Certificate:
    Data:
        Version: 3 (0x2)
        Serial Number: 268435667 (0x100000d3)
    Signature Algorithm: sha1WithRSAEncryption
        Issuer: C=DE, ST=Hessen, O=privacyidea, CN=CA001
        Validity
            Not Before: Apr 26 09:00:35 2016 GMT
            Not After : Apr 26 09:00:35 2017 GMT
        Subject: C=DE, ST=Hessen, O=privacyidea, CN=requester.localdomain
        Subject Public Key Info:
            Public Key Algorithm: rsaEncryption
                Public-Key: (2048 bit)
                Modulus:
                    00:cd:be:14:4f:fa:ce:01:3f:42:22:1b:1d:9c:af:
                    dd:92:d2:7f:db:6c:b7:3e:39:43:43:6b:13:03:f1:
                    05:f4:07:74:bc:76:69:28:0b:af:19:8e:d7:fc:e3:
                    cd:c6:58:f2:ca:7f:08:6d:53:fc:07:02:44:24:c6:
                    b4:34:4c:8c:04:fe:33:0e:40:e2:20:ba:02:73:5a:
                    f7:f5:4f:63:6e:cc:c6:b6:df:54:1d:37:39:7d:51:
                    36:26:5f:bd:dc:3f:a8:8b:6b:a2:ae:b6:9d:d6:21:
                    e7:df:41:b8:7a:28:2a:68:48:ca:a8:2d:ed:e1:e9:
                    46:5e:5a:72:6d:b4:84:38:87:91:fd:94:11:0b:28:
                    84:c6:c2:2f:2a:fb:01:f9:36:7a:09:75:d1:33:88:
                    3c:73:41:5b:c8:bf:94:89:70:a1:f0:c0:b9:2e:50:
                    53:1e:b1:17:64:69:f4:2d:81:e0:a9:0d:0e:32:e9:
                    ba:55:8a:85:f1:1b:6f:49:79:b4:7f:88:c3:0d:3e:
                    54:88:9b:3d:1f:38:8c:04:f3:ee:6a:63:2b:f5:c6:
                    db:b4:83:aa:c4:78:41:3a:7d:4b:e1:c8:3e:71:ca:
                    1b:61:59:ea:c6:c4:ca:32:5e:c9:e9:bf:12:29:e6:
                    c6:c3:63:fe:a0:55:da:7a:f1:60:98:4d:26:ed:fa:
                    70:2d
                Exponent: 65537 (0x10001)
        X509v3 extensions:
            X509v3 Key Usage: 
                Digital Signature, Key Encipherment
            X509v3 Basic Constraints: 
                CA:FALSE
            Netscape Cert Type: 
                SSL Server
            Netscape Comment: 
                OpenSSL Generated Server Certificate
            X509v3 Subject Key Identifier: 
                53:3F:ED:5D:09:07:B3:65:7B:AB:45:C9:24:5B:09:77:80:0A:96:ED
            X509v3 Authority Key Identifier: 
                keyid:F4:A7:C0:CC:91:46:AF:64:F3:91:F2:27:F8:C8:B2:6F:8A:87:32:73
                DirName:/C=DE/ST=Hessen/O=privacyidea/CN=CA001
                serial:FB:C8:EB:AC:83:CD:12:07

            X509v3 Extended Key Usage: 
                TLS Web Server Authentication
    Signature Algorithm: sha1WithRSAEncryption
         21:4b:1f:e1:3b:44:9c:94:38:a3:d9:a3:e8:c6:55:02:09:c9:
         52:3c:dc:ae:fe:de:83:73:7e:7a:f8:55:a5:d9:56:c1:ee:22:
         aa:d1:2a:74:9d:d0:07:b9:93:ca:a9:da:79:f3:2a:28:49:e4:
         56:8b:38:96:84:83:97:1d:30:74:84:6d:42:fa:54:0b:44:67:
         62:2c:95:f1:13:ea:7c:4f:67:3c:33:a7:4d:06:71:5f:18:8b:
         92:27:60:ed:e6:ab:10:9b:f9:a5:0a:f6:12:36:40:0c:84:8b:
         2d:c6:1c:6f:ee:a9:62:b7:9b:69:79:3a:80:d8:74:49:28:2e:
         b8:dc:fc:01:13:40:85:1c:3c:5f:1f:c3:19:4d:21:92:2a:b4:
         79:bf:8f:81:98:60:a4:84:db:9b:82:4e:9b:ff:9b:d8:6f:ca:
         09:d8:ef:8b:e6:52:b7:af:8a:55:86:f5:70:8c:b9:61:6e:d5:
         2c:e3:1b:6c:fa:b6:90:03:72:81:d4:a0:1d:b1:8b:d1:52:6d:
         f3:2d:78:8f:ae:7f:e9:0c:20:d8:46:e7:73:e0:0e:55:82:88:
         6f:80:89:1a:fc:d4:70:e1:58:59:2c:6e:d8:a2:ee:6e:cd:ba:
         17:70:ba:66:b3:92:3f:b2:9d:f1:c8:a7:43:34:28:c7:1d:ab:
         df:e1:0f:bb
-----BEGIN CERTIFICATE-----
MIIEJjCCAw6gAwIBAgIEEAAA0zANBgkqhkiG9w0BAQUFADBEMQswCQYDVQQGEwJE
RTEPMA0GA1UECAwGSGVzc2VuMRQwEgYDVQQKDAtwcml2YWN5aWRlYTEOMAwGA1UE
AwwFQ0EwMDEwHhcNMTYwNDI2MDkwMDM1WhcNMTcwNDI2MDkwMDM1WjBUMQswCQYD
VQQGEwJERTEPMA0GA1UECAwGSGVzc2VuMRQwEgYDVQQKDAtwcml2YWN5aWRlYTEe
MBwGA1UEAwwVcmVxdWVzdGVyLmxvY2FsZG9tYWluMIIBIjANBgkqhkiG9w0BAQEF
AAOCAQ8AMIIBCgKCAQEAzb4UT/rOAT9CIhsdnK/dktJ/22y3PjlDQ2sTA/EF9Ad0
vHZpKAuvGY7X/OPNxljyyn8IbVP8BwJEJMa0NEyMBP4zDkDiILoCc1r39U9jbszG
tt9UHTc5fVE2Jl+93D+oi2uirrad1iHn30G4eigqaEjKqC3t4elGXlpybbSEOIeR
/ZQRCyiExsIvKvsB+TZ6CXXRM4g8c0FbyL+UiXCh8MC5LlBTHrEXZGn0LYHgqQ0O
Mum6VYqF8RtvSXm0f4jDDT5UiJs9HziMBPPuamMr9cbbtIOqxHhBOn1L4cg+ccob
YVnqxsTKMl7J6b8SKebGw2P+oFXaevFgmE0m7fpwLQIDAQABo4IBDjCCAQowCwYD
VR0PBAQDAgWgMAkGA1UdEwQCMAAwEQYJYIZIAYb4QgEBBAQDAgZAMDMGCWCGSAGG
+EIBDQQmFiRPcGVuU1NMIEdlbmVyYXRlZCBTZXJ2ZXIgQ2VydGlmaWNhdGUwHQYD
VR0OBBYEFFM/7V0JB7Nle6tFySRbCXeACpbtMHQGA1UdIwRtMGuAFPSnwMyRRq9k
85HyJ/jIsm+KhzJzoUikRjBEMQswCQYDVQQGEwJERTEPMA0GA1UECAwGSGVzc2Vu
MRQwEgYDVQQKDAtwcml2YWN5aWRlYTEOMAwGA1UEAwwFQ0EwMDGCCQD7yOusg80S
BzATBgNVHSUEDDAKBggrBgEFBQcDATANBgkqhkiG9w0BAQUFAAOCAQEAIUsf4TtE
nJQ4o9mj6MZVAgnJUjzcrv7eg3N+evhVpdlWwe4iqtEqdJ3QB7mTyqnaefMqKEnk
Vos4loSDlx0wdIRtQvpUC0RnYiyV8RPqfE9nPDOnTQZxXxiLkidg7earEJv5pQr2
EjZADISLLcYcb+6pYrebaXk6gNh0SSguuNz8ARNAhRw8Xx/DGU0hkiq0eb+PgZhg
pITbm4JOm/+b2G/KCdjvi+ZSt6+KVYb1cIy5YW7VLOMbbPq2kANygdSgHbGL0VJt
8y14j65/6Qwg2Ebnc+AOVYKIb4CJGvzUcOFYWSxu2KLubs26F3C6ZrOSP7Kd8cin
QzQoxx2r3+EPuw==
-----END CERTIFICATE-----
