Certificate:
    Data:
        Version: 3 (0x2)
        Serial Number: 268435664 (0x100000d0)
    Signature Algorithm: sha1WithRSAEncryption
        Issuer: C=DE, ST=Hessen, O=privacyidea, CN=CA001
        Validity
            Not Before: Apr 26 08:49:34 2016 GMT
            Not After : Apr 26 08:49:34 2017 GMT
        Subject: C=DE, ST=Hessen, O=privacyidea, CN=requester.localdomain
        Subject Public Key Info:
            Public Key Algorithm: rsaEncryption
                Public-Key: (2048 bit)
                Modulus:
                    00:cd:be:14:4f:fa:ce:01:3f:42:22:1b:1d:9c:af:
                    dd:92:d2:7f:db:6c:b7:3e:39:43:43:6b:13:03:f1:
                    05:f4:07:74:bc:76:69:28:0b:af:19:8e:d7:fc:e3:
                    cd:c6:58:f2:ca:7f:08:6d:53:fc:07:02:44:24:c6:
                    b4:34:4c:8c:04:fe:33:0e:40:e2:20:ba:02:73:5a:
                    f7:f5:4f:63:6e:cc:c6:b6:df:54:1d:37:39:7d:51:
                    36:26:5f:bd:dc:3f:a8:8b:6b:a2:ae:b6:9d:d6:21:
                    e7:df:41:b8:7a:28:2a:68:48:ca:a8:2d:ed:e1:e9:
                    46:5e:5a:72:6d:b4:84:38:87:91:fd:94:11:0b:28:
                    84:c6:c2:2f:2a:fb:01:f9:36:7a:09:75:d1:33:88:
                    3c:73:41:5b:c8:bf:94:89:70:a1:f0:c0:b9:2e:50:
                    53:1e:b1:17:64:69:f4:2d:81:e0:a9:0d:0e:32:e9:
                    ba:55:8a:85:f1:1b:6f:49:79:b4:7f:88:c3:0d:3e:
                    54:88:9b:3d:1f:38:8c:04:f3:ee:6a:63:2b:f5:c6:
                    db:b4:83:aa:c4:78:41:3a:7d:4b:e1:c8:3e:71:ca:
                    1b:61:59:ea:c6:c4:ca:32:5e:c9:e9:bf:12:29:e6:
                    c6:c3:63:fe:a0:55:da:7a:f1:60:98:4d:26:ed:fa:
                    70:2d
                Exponent: 65537 (0x10001)
        X509v3 extensions:
            X509v3 Key Usage: 
                Digital Signature, Key Encipherment
            X509v3 Basic Constraints: 
                CA:FALSE
            Netscape Cert Type: 
                SSL Server
            Netscape Comment: 
                OpenSSL Generated Server Certificate
            X509v3 Subject Key Identifier: 
                53:3F:ED:5D:09:07:B3:65:7B:AB:45:C9:24:5B:09:77:80:0A:96:ED
            X509v3 Authority Key Identifier: 
                keyid:F4:A7:C0:CC:91:46:AF:64:F3:91:F2:27:F8:C8:B2:6F:8A:87:32:73
                DirName:/C=DE/ST=Hessen/O=privacyidea/CN=CA001
                serial:FB:C8:EB:AC:83:CD:12:07

            X509v3 Extended Key Usage: 
                TLS Web Server Authentication
    Signature Algorithm: sha1WithRSAEncryption
         00:79:ad:39:6d:94:e9:cb:43:a1:75:70:c1:cc:c0:e4:7c:0b:
         c4:9f:7e:e3:9d:1f:c6:08:22:3a:ae:47:e3:ea:50:e8:87:64:
         c6:b3:ba:8e:78:26:7d:6e:f5:cb:cb:0f:e0:6e:a8:bd:11:bd:
         e3:27:d3:01:b0:75:92:11:72:72:f8:7f:df:51:10:9d:03:ad:
         1c:41:00:0d:31:be:ac:7d:da:2a:46:79:89:eb:3a:b8:e3:b9:
         03:bd:d0:3c:61:21:ff:81:fe:78:10:16:67:42:90:fd:bb:b5:
         02:a4:f9:7a:af:a3:30:91:75:c6:46:e1:12:e1:e1:cc:d8:31:
         c5:75:ce:2c:76:40:aa:a4:3e:b8:c3:23:15:90:5a:37:35:29:
         16:a1:9f:ad:de:7c:d1:51:4e:4b:60:ae:b6:c2:ce:c0:02:85:
         51:01:ff:f8:da:bf:66:fa:92:b6:d6:4f:49:ed:90:96:ee:03:
         5e:5f:58:e7:69:34:32:d4:79:f2:32:d7:1c:1c:4a:2b:d9:81:
         da:9d:74:20:59:f9:8c:71:ba:12:7b:52:4c:86:34:7a:44:b9:
         4e:20:71:39:e8:dd:fc:6d:85:d9:cf:bb:be:6a:8f:a6:3f:dd:
         7c:8a:e7:82:bf:67:2b:6e:fd:bb:2b:f0:04:33:c5:2c:eb:15:
         19:1a:e0:55
-----BEGIN CERTIFICATE-----
MIIEJjCCAw6gAwIBAgIEEAAA0DANBgkqhkiG9w0BAQUFADBEMQswCQYDVQQGEwJE
RTEPMA0GA1UECAwGSGVzc2VuMRQwEgYDVQQKDAtwcml2YWN5aWRlYTEOMAwGA1UE
AwwFQ0EwMDEwHhcNMTYwNDI2MDg0OTM0WhcNMTcwNDI2MDg0OTM0WjBUMQswCQYD
VQQGEwJERTEPMA0GA1UECAwGSGVzc2VuMRQwEgYDVQQKDAtwcml2YWN5aWRlYTEe
MBwGA1UEAwwVcmVxdWVzdGVyLmxvY2FsZG9tYWluMIIBIjANBgkqhkiG9w0BAQEF
AAOCAQ8AMIIBCgKCAQEAzb4UT/rOAT9CIhsdnK/dktJ/22y3PjlDQ2sTA/EF9Ad0
vHZpKAuvGY7X/OPNxljyyn8IbVP8BwJEJMa0NEyMBP4zDkDiILoCc1r39U9jbszG
tt9UHTc5fVE2Jl+93D+oi2uirrad1iHn30G4eigqaEjKqC3t4elGXlpybbSEOIeR
/ZQRCyiExsIvKvsB+TZ6CXXRM4g8c0FbyL+UiXCh8MC5LlBTHrEXZGn0LYHgqQ0O
Mum6VYqF8RtvSXm0f4jDDT5UiJs9HziMBPPuamMr9cbbtIOqxHhBOn1L4cg+ccob
YVnqxsTKMl7J6b8SKebGw2P+oFXaevFgmE0m7fpwLQIDAQABo4IBDjCCAQowCwYD
VR0PBAQDAgWgMAkGA1UdEwQCMAAwEQYJYIZIAYb4QgEBBAQDAgZAMDMGCWCGSAGG
+EIBDQQmFiRPcGVuU1NMIEdlbmVyYXRlZCBTZXJ2ZXIgQ2VydGlmaWNhdGUwHQYD
VR0OBBYEFFM/7V0JB7Nle6tFySRbCXeACpbtMHQGA1UdIwRtMGuAFPSnwMyRRq9k
85HyJ/jIsm+KhzJzoUikRjBEMQswCQYDVQQGEwJERTEPMA0GA1UECAwGSGVzc2Vu
MRQwEgYDVQQKDAtwcml2YWN5aWRlYTEOMAwGA1UEAwwFQ0EwMDGCCQD7yOusg80S
BzATBgNVHSUEDDAKBggrBgEFBQcDATANBgkqhkiG9w0BAQUFAAOCAQEAAHmtOW2U
6ctDoXVwwczA5HwLxJ9+450fxggiOq5H4+pQ6IdkxrO6jngmfW71y8sP4G6ovRG9
4yfTAbB1khFycvh/31EQnQOtHEEADTG+rH3aKkZ5ies6uOO5A73QPGEh/4H+eBAW
Z0KQ/bu1AqT5eq+jMJF1xkbhEuHhzNgxxXXOLHZAqqQ+uMMjFZBaNzUpFqGfrd58
0VFOS2CutsLOwAKFUQH/+Nq/ZvqSttZPSe2Qlu4DXl9Y52k0MtR58jLXHBxKK9mB
2p10IFn5jHG6EntSTIY0ekS5TiBxOejd/G2F2c+7vmqPpj/dfIrngr9nK279uyvw
BDPFLOsVGRrgVQ==
-----END CERTIFICATE-----
