Certificate:
    Data:
        Version: 3 (0x2)
        Serial Number: 268435665 (0x100000d1)
    Signature Algorithm: sha1WithRSAEncryption
        Issuer: C=DE, ST=Hessen, O=privacyidea, CN=CA001
        Validity
            Not Before: Apr 26 08:50:04 2016 GMT
            Not After : Apr 26 08:50:04 2017 GMT
        Subject: C=DE, ST=Hessen, O=privacyidea, CN=requester.localdomain
        Subject Public Key Info:
            Public Key Algorithm: rsaEncryption
                Public-Key: (2048 bit)
                Modulus:
                    00:cd:be:14:4f:fa:ce:01:3f:42:22:1b:1d:9c:af:
                    dd:92:d2:7f:db:6c:b7:3e:39:43:43:6b:13:03:f1:
                    05:f4:07:74:bc:76:69:28:0b:af:19:8e:d7:fc:e3:
                    cd:c6:58:f2:ca:7f:08:6d:53:fc:07:02:44:24:c6:
                    b4:34:4c:8c:04:fe:33:0e:40:e2:20:ba:02:73:5a:
                    f7:f5:4f:63:6e:cc:c6:b6:df:54:1d:37:39:7d:51:
                    36:26:5f:bd:dc:3f:a8:8b:6b:a2:ae:b6:9d:d6:21:
                    e7:df:41:b8:7a:28:2a:68:48:ca:a8:2d:ed:e1:e9:
                    46:5e:5a:72:6d:b4:84:38:87:91:fd:94:11:0b:28:
                    84:c6:c2:2f:2a:fb:01:f9:36:7a:09:75:d1:33:88:
                    3c:73:41:5b:c8:bf:94:89:70:a1:f0:c0:b9:2e:50:
                    53:1e:b1:17:64:69:f4:2d:81:e0:a9:0d:0e:32:e9:
                    ba:55:8a:85:f1:1b:6f:49:79:b4:7f:88:c3:0d:3e:
                    54:88:9b:3d:1f:38:8c:04:f3:ee:6a:63:2b:f5:c6:
                    db:b4:83:aa:c4:78:41:3a:7d:4b:e1:c8:3e:71:ca:
                    1b:61:59:ea:c6:c4:ca:32:5e:c9:e9:bf:12:29:e6:
                    c6:c3:63:fe:a0:55:da:7a:f1:60:98:4d:26:ed:fa:
                    70:2d
                Exponent: 65537 (0x10001)
        X509v3 extensions:
            X509v3 Key Usage: 
                Digital Signature, Key Encipherment
            X509v3 Basic Constraints: 
                CA:FALSE
            Netscape Cert Type: 
                SSL Server
            Netscape Comment: 
                OpenSSL Generated Server Certificate
            X509v3 Subject Key Identifier: 
                53:3F:ED:5D:09:07:B3:65:7B:AB:45:C9:24:5B:09:77:80:0A:96:ED
            X509v3 Authority Key Identifier: 
                keyid:F4:A7:C0:CC:91:46:AF:64:F3:91:F2:27:F8:C8:B2:6F:8A:87:32:73
                DirName:/C=DE/ST=Hessen/O=privacyidea/CN=CA001
                serial:FB:C8:EB:AC:83:CD:12:07

            X509v3 Extended Key Usage: 
                TLS Web Server Authentication
    Signature Algorithm: sha1WithRSAEncryption
         0c:ed:80:22:8c:40:52:06:08:9c:e9:7b:37:90:6e:6d:f5:48:
         72:5f:8c:8a:41:52:0a:3e:b4:74:ed:ad:18:05:7c:67:fe:83:
         78:3a:62:e6:86:cc:01:8d:b6:34:ec:5d:2f:2b:93:b2:e2:eb:
         c8:2e:98:47:b6:7e:15:8d:82:2d:2b:ee:d7:6d:9e:a4:2f:3e:
         af:13:ef:1f:c6:26:1c:bf:8a:ec:6d:63:07:14:8d:68:24:b2:
         b4:ee:dc:6c:a2:80:72:20:7d:ea:1e:72:e7:66:0a:a8:8b:3c:
         5d:04:0e:29:3e:6a:9b:a7:b9:38:cc:be:0f:3a:a8:8d:a6:2c:
         7a:77:fa:d8:21:3c:d9:f5:fe:03:5a:b7:8a:c2:e3:f6:d5:12:
         d2:52:30:e1:df:51:72:06:ad:98:90:be:26:1c:cd:c5:df:8f:
         8d:78:77:64:5f:01:67:e1:51:1d:b1:c9:85:42:88:09:3e:c7:
         54:b8:74:d3:e6:8f:69:eb:1e:6c:de:a7:b3:76:13:1d:79:08:
         a5:6f:c6:13:4c:bd:92:3b:1c:57:f5:c3:ec:a7:72:a9:bd:5d:
         01:e9:42:4e:7a:cd:58:8a:b7:fb:a3:78:50:15:c5:41:4e:cb:
         90:d0:7f:82:27:c0:56:8e:9a:6e:a5:16:45:61:de:d7:d3:08:
         69:c3:5d:ac
-----BEGIN CERTIFICATE-----
MIIEJjCCAw6gAwIBAgIEEAAA0TANBgkqhkiG9w0BAQUFADBEMQswCQYDVQQGEwJE
RTEPMA0GA1UECAwGSGVzc2VuMRQwEgYDVQQKDAtwcml2YWN5aWRlYTEOMAwGA1UE
AwwFQ0EwMDEwHhcNMTYwNDI2MDg1MDA0WhcNMTcwNDI2MDg1MDA0WjBUMQswCQYD
VQQGEwJERTEPMA0GA1UECAwGSGVzc2VuMRQwEgYDVQQKDAtwcml2YWN5aWRlYTEe
MBwGA1UEAwwVcmVxdWVzdGVyLmxvY2FsZG9tYWluMIIBIjANBgkqhkiG9w0BAQEF
AAOCAQ8AMIIBCgKCAQEAzb4UT/rOAT9CIhsdnK/dktJ/22y3PjlDQ2sTA/EF9Ad0
vHZpKAuvGY7X/OPNxljyyn8IbVP8BwJEJMa0NEyMBP4zDkDiILoCc1r39U9jbszG
tt9UHTc5fVE2Jl+93D+oi2uirrad1iHn30G4eigqaEjKqC3t4elGXlpybbSEOIeR
/ZQRCyiExsIvKvsB+TZ6CXXRM4g8c0FbyL+UiXCh8MC5LlBTHrEXZGn0LYHgqQ0O
Mum6VYqF8RtvSXm0f4jDDT5UiJs9HziMBPPuamMr9cbbtIOqxHhBOn1L4cg+ccob
YVnqxsTKMl7J6b8SKebGw2P+oFXaevFgmE0m7fpwLQIDAQABo4IBDjCCAQowCwYD
VR0PBAQDAgWgMAkGA1UdEwQCMAAwEQYJYIZIAYb4QgEBBAQDAgZAMDMGCWCGSAGG
+EIBDQQmFiRPcGVuU1NMIEdlbmVyYXRlZCBTZXJ2ZXIgQ2VydGlmaWNhdGUwHQYD
VR0OBBYEFFM/7V0JB7Nle6tFySRbCXeACpbtMHQGA1UdIwRtMGuAFPSnwMyRRq9k
85HyJ/jIsm+KhzJzoUikRjBEMQswCQYDVQQGEwJERTEPMA0GA1UECAwGSGVzc2Vu
MRQwEgYDVQQKDAtwcml2YWN5aWRlYTEOMAwGA1UEAwwFQ0EwMDGCCQD7yOusg80S
BzATBgNVHSUEDDAKBggrBgEFBQcDATANBgkqhkiG9w0BAQUFAAOCAQEADO2AIoxA
UgYInOl7N5BubfVIcl+MikFSCj60dO2tGAV8Z/6DeDpi5obMAY22NOxdLyuTsuLr
yC6YR7Z+FY2CLSvu122epC8+rxPvH8YmHL+K7G1jBxSNaCSytO7cbKKAciB96h5y
52YKqIs8XQQOKT5qm6e5OMy+DzqojaYsenf62CE82fX+A1q3isLj9tUS0lIw4d9R
cgatmJC+JhzNxd+PjXh3ZF8BZ+FRHbHJhUKICT7HVLh00+aPaesebN6ns3YTHXkI
pW/GE0y9kjscV/XD7Kdyqb1dAelCTnrNWIq3+6N4UBXFQU7LkNB/gifAVo6abqUW
RWHe19MIacNdrA==
-----END CERTIFICATE-----
