Certificate:
    Data:
        Version: 3 (0x2)
        Serial Number: 268435654 (0x100000c6)
    Signature Algorithm: sha1WithRSAEncryption
        Issuer: C=DE, ST=Hessen, O=privacyidea, CN=CA001
        Validity
            Not Before: Apr 18 16:32:03 2016 GMT
            Not After : Apr 18 16:32:03 2017 GMT
        Subject: CN=Steve Test/emailAddress=steve@openssl.org
        Subject Public Key Info:
            Public Key Algorithm: rsaEncryption
                Public-Key: (2048 bit)
                Modulus:
                    00:d2:81:89:20:51:48:0f:73:f4:11:32:24:d5:1f:
                    1c:fd:5c:f5:b6:e6:c5:f0:52:81:dc:d2:af:66:4a:
                    7c:93:31:61:5c:af:d1:6d:06:70:03:60:7c:72:0c:
                    88:dd:49:cd:9e:02:6c:d2:5a:d7:53:0f:f3:da:be:
                    69:64:b5:0f:0c:00:e3:b3:50:47:a3:b3:9b:ba:13:
                    50:d6:58:5a:4b:ab:39:e0:11:ca:0a:27:67:03:78:
                    22:66:6d:92:1e:1b:5c:49:ae:e6:6b:d1:8e:3b:9d:
                    06:d3:c6:ac:4d:53:43:10:ab:e8:96:c1:87:82:97:
                    99:8f:20:d3:99:12:37:31:84:e1:8a:ff:29:03:5f:
                    22:90:3e:7f:9b:e0:20:c1:ad:dc:ae:4c:39:1a:31:
                    96:17:02:8c:b2:d9:b4:0d:20:12:9b:7d:86:54:fd:
                    33:fd:c1:2a:62:46:f8:60:96:cf:6e:01:6f:22:df:
                    13:47:e7:97:ec:05:72:23:a3:62:f8:fa:ef:ac:9c:
                    72:f0:37:cb:2f:37:cf:90:a8:27:51:86:c6:d7:78:
                    08:8f:7e:25:a2:15:70:a2:fb:1c:b6:15:5e:a0:97:
                    8b:81:4c:09:28:8a:27:3b:94:bc:71:db:5b:71:37:
                    9a:2b:16:e0:6f:b5:c9:f5:4b:4f:20:ba:65:cf:af:
                    ad:ad
                Exponent: 65537 (0x10001)
        X509v3 extensions:
            X509v3 Key Usage: 
                Digital Signature, Key Encipherment
            X509v3 Basic Constraints: 
                CA:FALSE
            Netscape Cert Type: 
                SSL Server
            Netscape Comment: 
                OpenSSL Generated Server Certificate
            X509v3 Subject Key Identifier: 
                E5:25:6D:3E:AF:0D:DD:3F:4C:F2:45:19:39:D5:14:DB:7E:9C:C0:AD
            X509v3 Authority Key Identifier: 
                keyid:F4:A7:C0:CC:91:46:AF:64:F3:91:F2:27:F8:C8:B2:6F:8A:87:32:73
                DirName:/C=DE/ST=Hessen/O=privacyidea/CN=CA001
                serial:FB:C8:EB:AC:83:CD:12:07

            X509v3 Extended Key Usage: 
                TLS Web Server Authentication
    Signature Algorithm: sha1WithRSAEncryption
         8f:38:b5:8a:66:b5:ae:a0:c7:34:2d:df:bc:a1:3f:60:44:5a:
         f1:d9:2b:40:e1:03:6b:81:94:ec:8d:65:a8:e1:14:b4:a9:17:
         8a:60:4c:dc:6f:c3:55:af:cb:96:16:05:2f:d5:a8:d9:4a:da:
         d2:ac:a7:8f:78:0b:6b:0d:2b:ce:ca:b4:d8:84:94:36:97:9b:
         f7:9e:14:fb:c7:7a:6c:f0:b4:64:0a:14:dd:4a:8b:e2:15:5e:
         2a:7e:95:d6:be:96:c0:02:6a:44:bc:34:3c:82:c7:bd:52:f6:
         3f:4c:03:90:97:c1:f7:9d:7f:55:e1:7f:fa:c9:79:5d:9e:9c:
         fa:81:76:16:11:c9:07:b4:af:ed:53:05:b9:bd:23:ba:b9:49:
         5f:5a:fa:6d:c9:ee:f3:f7:1e:5a:0b:c9:25:08:7b:13:87:4d:
         c4:3b:d4:58:ed:75:04:19:70:23:d2:0b:17:a9:48:bf:66:99:
         58:ab:69:e7:42:7f:d9:d6:83:a9:f4:c9:4b:6e:72:71:25:76:
         b6:c6:94:c3:80:e7:8d:01:15:ff:e5:af:8d:ee:7b:f8:b2:71:
         6f:b0:80:90:2e:b7:67:5f:c1:ec:a7:58:4a:73:ed:d7:5e:51:
         db:ea:19:3f:8b:d2:23:4a:e5:4f:f3:21:b6:fc:3c:0c:5c:5a:
         36:18:d9:a4
-----BEGIN CERTIFICATE-----
MIIECTCCAvGgAwIBAgIEEAAAxjANBgkqhkiG9w0BAQUFADBEMQswCQYDVQQGEwJE
RTEPMA0GA1UECAwGSGVzc2VuMRQwEgYDVQQKDAtwcml2YWN5aWRlYTEOMAwGA1UE
AwwFQ0EwMDEwHhcNMTYwNDE4MTYzMjAzWhcNMTcwNDE4MTYzMjAzWjA3MRMwEQYD
VQQDEwpTdGV2ZSBUZXN0MSAwHgYJKoZIhvcNAQkBFhFzdGV2ZUBvcGVuc3NsLm9y
ZzCCASIwDQYJKoZIhvcNAQEBBQADggEPADCCAQoCggEBANKBiSBRSA9z9BEyJNUf
HP1c9bbmxfBSgdzSr2ZKfJMxYVyv0W0GcANgfHIMiN1JzZ4CbNJa11MP89q+aWS1
DwwA47NQR6Ozm7oTUNZYWkurOeARygonZwN4ImZtkh4bXEmu5mvRjjudBtPGrE1T
QxCr6JbBh4KXmY8g05kSNzGE4Yr/KQNfIpA+f5vgIMGt3K5MORoxlhcCjLLZtA0g
Ept9hlT9M/3BKmJG+GCWz24BbyLfE0fnl+wFciOjYvj676yccvA3yy83z5CoJ1GG
xtd4CI9+JaIVcKL7HLYVXqCXi4FMCSiKJzuUvHHbW3E3misW4G+1yfVLTyC6Zc+v
ra0CAwEAAaOCAQ4wggEKMAsGA1UdDwQEAwIFoDAJBgNVHRMEAjAAMBEGCWCGSAGG
+EIBAQQEAwIGQDAzBglghkgBhvhCAQ0EJhYkT3BlblNTTCBHZW5lcmF0ZWQgU2Vy
dmVyIENlcnRpZmljYXRlMB0GA1UdDgQWBBTlJW0+rw3dP0zyRRk51RTbfpzArTB0
BgNVHSMEbTBrgBT0p8DMkUavZPOR8if4yLJviocyc6FIpEYwRDELMAkGA1UEBhMC
REUxDzANBgNVBAgMBkhlc3NlbjEUMBIGA1UECgwLcHJpdmFjeWlkZWExDjAMBgNV
BAMMBUNBMDAxggkA+8jrrIPNEgcwEwYDVR0lBAwwCgYIKwYBBQUHAwEwDQYJKoZI
hvcNAQEFBQADggEBAI84tYpmta6gxzQt37yhP2BEWvHZK0DhA2uBlOyNZajhFLSp
F4pgTNxvw1Wvy5YWBS/VqNlK2tKsp494C2sNK87KtNiElDaXm/eeFPvHemzwtGQK
FN1Ki+IVXip+lda+lsACakS8NDyCx71S9j9MA5CXwfedf1Xhf/rJeV2enPqBdhYR
yQe0r+1TBbm9I7q5SV9a+m3J7vP3HloLySUIexOHTcQ71FjtdQQZcCPSCxepSL9m
mViraedCf9nWg6n0yUtucnEldrbGlMOA540BFf/lr43ue/iycW+wgJAut2dfweyn
WEpz7ddeUdvqGT+L0iNK5U/zIbb8PAxcWjYY2aQ=
-----END CERTIFICATE-----
