Certificate:
    Data:
        Version: 3 (0x2)
        Serial Number: 268435669 (0x100000d5)
    Signature Algorithm: sha1WithRSAEncryption
        Issuer: C=DE, ST=Hessen, O=privacyidea, CN=CA001
        Validity
            Not Before: Apr 26 09:00:55 2016 GMT
            Not After : Apr 26 09:00:55 2017 GMT
        Subject: C=DE, ST=Hessen, O=privacyidea, CN=requester.localdomain
        Subject Public Key Info:
            Public Key Algorithm: rsaEncryption
                Public-Key: (2048 bit)
                Modulus:
                    00:cd:be:14:4f:fa:ce:01:3f:42:22:1b:1d:9c:af:
                    dd:92:d2:7f:db:6c:b7:3e:39:43:43:6b:13:03:f1:
                    05:f4:07:74:bc:76:69:28:0b:af:19:8e:d7:fc:e3:
                    cd:c6:58:f2:ca:7f:08:6d:53:fc:07:02:44:24:c6:
                    b4:34:4c:8c:04:fe:33:0e:40:e2:20:ba:02:73:5a:
                    f7:f5:4f:63:6e:cc:c6:b6:df:54:1d:37:39:7d:51:
                    36:26:5f:bd:dc:3f:a8:8b:6b:a2:ae:b6:9d:d6:21:
                    e7:df:41:b8:7a:28:2a:68:48:ca:a8:2d:ed:e1:e9:
                    46:5e:5a:72:6d:b4:84:38:87:91:fd:94:11:0b:28:
                    84:c6:c2:2f:2a:fb:01:f9:36:7a:09:75:d1:33:88:
                    3c:73:41:5b:c8:bf:94:89:70:a1:f0:c0:b9:2e:50:
                    53:1e:b1:17:64:69:f4:2d:81:e0:a9:0d:0e:32:e9:
                    ba:55:8a:85:f1:1b:6f:49:79:b4:7f:88:c3:0d:3e:
                    54:88:9b:3d:1f:38:8c:04:f3:ee:6a:63:2b:f5:c6:
                    db:b4:83:aa:c4:78:41:3a:7d:4b:e1:c8:3e:71:ca:
                    1b:61:59:ea:c6:c4:ca:32:5e:c9:e9:bf:12:29:e6:
                    c6:c3:63:fe:a0:55:da:7a:f1:60:98:4d:26:ed:fa:
                    70:2d
                Exponent: 65537 (0x10001)
        X509v3 extensions:
            X509v3 Key Usage: 
                Digital Signature, Key Encipherment
            X509v3 Basic Constraints: 
                CA:FALSE
            Netscape Cert Type: 
                SSL Server
            Netscape Comment: 
                OpenSSL Generated Server Certificate
            X509v3 Subject Key Identifier: 
                53:3F:ED:5D:09:07:B3:65:7B:AB:45:C9:24:5B:09:77:80:0A:96:ED
            X509v3 Authority Key Identifier: 
                keyid:F4:A7:C0:CC:91:46:AF:64:F3:91:F2:27:F8:C8:B2:6F:8A:87:32:73
                DirName:/C=DE/ST=Hessen/O=privacyidea/CN=CA001
                serial:FB:C8:EB:AC:83:CD:12:07

            X509v3 Extended Key Usage: 
                TLS Web Server Authentication
    Signature Algorithm: sha1WithRSAEncryption
         ad:54:c2:cb:d4:43:7d:ee:de:c9:eb:24:8f:3d:75:ce:8e:a4:
         eb:37:01:bd:93:6d:06:66:df:1e:e5:58:48:7f:1c:e2:2a:b0:
         0f:5e:e3:0a:97:50:7e:13:33:2f:7e:be:01:1c:0f:1d:1d:1a:
         2e:93:23:f5:21:27:27:7d:a8:2b:32:b5:14:f8:11:0e:46:7c:
         0f:4a:48:f4:68:92:3f:1a:48:79:80:95:4e:da:49:4c:9b:d2:
         21:e2:16:66:57:c3:20:81:b3:e6:2d:84:af:9a:7d:19:7b:31:
         39:cb:54:52:92:61:e5:4d:62:3d:a5:bf:c0:84:47:aa:3a:96:
         4b:37:05:c7:88:89:66:e8:60:00:69:fa:a8:5f:a8:ad:cf:0d:
         89:df:74:e0:03:82:c0:d9:25:39:f9:87:b1:ac:67:f2:89:86:
         b6:20:cb:34:8c:9b:8d:3b:e3:dd:06:c6:9a:28:ee:7c:50:91:
         7e:70:0a:43:cd:aa:79:44:af:ca:81:56:9b:70:b7:30:43:9d:
         6e:79:b1:cb:ca:cd:e2:85:60:3a:af:14:4c:f7:e4:95:08:49:
         c8:06:db:92:4c:b7:9d:e6:54:e8:86:29:6c:c7:f2:a6:64:9b:
         dd:30:c6:c2:23:1c:12:d2:1e:a8:44:d7:f7:56:17:2a:70:b1:
         e9:21:d4:98
-----BEGIN CERTIFICATE-----
MIIEJjCCAw6gAwIBAgIEEAAA1TANBgkqhkiG9w0BAQUFADBEMQswCQYDVQQGEwJE
RTEPMA0GA1UECAwGSGVzc2VuMRQwEgYDVQQKDAtwcml2YWN5aWRlYTEOMAwGA1UE
AwwFQ0EwMDEwHhcNMTYwNDI2MDkwMDU1WhcNMTcwNDI2MDkwMDU1WjBUMQswCQYD
VQQGEwJERTEPMA0GA1UECAwGSGVzc2VuMRQwEgYDVQQKDAtwcml2YWN5aWRlYTEe
MBwGA1UEAwwVcmVxdWVzdGVyLmxvY2FsZG9tYWluMIIBIjANBgkqhkiG9w0BAQEF
AAOCAQ8AMIIBCgKCAQEAzb4UT/rOAT9CIhsdnK/dktJ/22y3PjlDQ2sTA/EF9Ad0
vHZpKAuvGY7X/OPNxljyyn8IbVP8BwJEJMa0NEyMBP4zDkDiILoCc1r39U9jbszG
tt9UHTc5fVE2Jl+93D+oi2uirrad1iHn30G4eigqaEjKqC3t4elGXlpybbSEOIeR
/ZQRCyiExsIvKvsB+TZ6CXXRM4g8c0FbyL+UiXCh8MC5LlBTHrEXZGn0LYHgqQ0O
Mum6VYqF8RtvSXm0f4jDDT5UiJs9HziMBPPuamMr9cbbtIOqxHhBOn1L4cg+ccob
YVnqxsTKMl7J6b8SKebGw2P+oFXaevFgmE0m7fpwLQIDAQABo4IBDjCCAQowCwYD
VR0PBAQDAgWgMAkGA1UdEwQCMAAwEQYJYIZIAYb4QgEBBAQDAgZAMDMGCWCGSAGG
+EIBDQQmFiRPcGVuU1NMIEdlbmVyYXRlZCBTZXJ2ZXIgQ2VydGlmaWNhdGUwHQYD
VR0OBBYEFFM/7V0JB7Nle6tFySRbCXeACpbtMHQGA1UdIwRtMGuAFPSnwMyRRq9k
85HyJ/jIsm+KhzJzoUikRjBEMQswCQYDVQQGEwJERTEPMA0GA1UECAwGSGVzc2Vu
MRQwEgYDVQQKDAtwcml2YWN5aWRlYTEOMAwGA1UEAwwFQ0EwMDGCCQD7yOusg80S
BzATBgNVHSUEDDAKBggrBgEFBQcDATANBgkqhkiG9w0BAQUFAAOCAQEArVTCy9RD
fe7eyeskjz11zo6k6zcBvZNtBmbfHuVYSH8c4iqwD17jCpdQfhMzL36+ARwPHR0a
LpMj9SEnJ32oKzK1FPgRDkZ8D0pI9GiSPxpIeYCVTtpJTJvSIeIWZlfDIIGz5i2E
r5p9GXsxOctUUpJh5U1iPaW/wIRHqjqWSzcFx4iJZuhgAGn6qF+orc8Nid904AOC
wNklOfmHsaxn8omGtiDLNIybjTvj3QbGmijufFCRfnAKQ82qeUSvyoFWm3C3MEOd
bnmxy8rN4oVgOq8UTPfklQhJyAbbkky3neZU6IYpbMfypmSb3TDGwiMcEtIeqETX
91YXKnCx6SHUmA==
-----END CERTIFICATE-----
