Certificate:
    Data:
        Version: 3 (0x2)
        Serial Number: 268435653 (0x100000c5)
    Signature Algorithm: sha1WithRSAEncryption
        Issuer: C=DE, ST=Hessen, O=privacyidea, CN=CA001
        Validity
            Not Before: Apr 18 16:32:03 2016 GMT
            Not After : Apr 18 16:32:03 2017 GMT
        Subject: C=DE, ST=Hessen, O=privacyidea, CN=usercert
        Subject Public Key Info:
            Public Key Algorithm: rsaEncryption
                Public-Key: (2048 bit)
                Modulus:
                    00:dc:2f:d1:5f:29:97:d4:7c:c3:53:c8:30:bd:4b:
                    67:70:2c:24:6b:b8:5e:eb:21:7a:48:12:56:7c:81:
                    5c:48:75:b6:68:eb:f6:f2:98:4e:50:51:d1:7f:6c:
                    73:f3:0a:a7:ae:be:48:5e:e5:d6:e1:d9:2a:7c:32:
                    6e:4e:fd:08:f6:5a:54:49:23:73:c3:b9:07:18:d1:
                    ef:b3:ac:f8:8a:dc:94:96:a4:90:3a:8e:74:df:e6:
                    0d:37:1b:bd:5b:b7:25:1a:56:39:da:6f:91:aa:5e:
                    1c:74:f3:f9:7c:14:01:83:12:65:76:c7:bb:fe:36:
                    5b:95:e9:72:65:83:ed:3e:98:30:71:fa:87:dd:a3:
                    36:5a:30:03:2e:26:e0:61:d1:bf:02:3f:b6:06:1f:
                    4a:89:28:1c:5c:a2:ff:4e:be:94:e6:8c:e0:da:82:
                    f1:9d:29:32:48:30:73:b4:04:f6:42:1e:be:f7:e2:
                    32:32:27:3c:9d:89:2f:70:3e:85:9a:6f:5c:c5:09:
                    c0:8c:32:2f:72:22:c9:d2:95:1f:b6:ac:72:60:72:
                    b7:82:4d:6b:ce:5b:e3:00:d0:d2:2f:58:c6:e0:10:
                    e5:51:ca:4d:3b:2e:e6:7e:ab:84:d6:56:f1:93:35:
                    a0:93:64:26:81:75:2f:91:b5:16:06:38:0b:db:cc:
                    2d:07
                Exponent: 65537 (0x10001)
        X509v3 extensions:
            X509v3 Key Usage: 
                Digital Signature, Key Encipherment
            X509v3 Basic Constraints: 
                CA:FALSE
            Netscape Cert Type: 
                SSL Server
            Netscape Comment: 
                OpenSSL Generated Server Certificate
            X509v3 Subject Key Identifier: 
                FC:14:D1:F0:4B:8D:00:90:F2:F5:B8:71:9E:4E:97:C3:92:54:AD:0B
            X509v3 Authority Key Identifier: 
                keyid:F4:A7:C0:CC:91:46:AF:64:F3:91:F2:27:F8:C8:B2:6F:8A:87:32:73
                DirName:/C=DE/ST=Hessen/O=privacyidea/CN=CA001
                serial:FB:C8:EB:AC:83:CD:12:07

            X509v3 Extended Key Usage: 
                TLS Web Server Authentication
    Signature Algorithm: sha1WithRSAEncryption
         02:93:57:9e:8c:03:a2:60:ac:1b:1d:f9:5d:59:68:f1:94:94:
         99:c0:f4:17:47:e7:04:f9:e2:e5:c1:d3:6c:34:a9:07:50:87:
         c6:ec:b4:42:e8:0b:44:18:a0:d7:b0:68:f3:4c:00:d6:7b:ad:
         67:d5:24:8f:ec:5c:80:5b:a6:b9:fd:b0:7b:b2:ef:fb:66:e5:
         63:b6:dd:f4:90:20:d6:50:49:27:d9:bb:89:29:61:b8:ab:bf:
         71:24:2d:ff:4e:4d:f9:79:97:c8:3e:08:b6:8e:b4:15:ff:97:
         90:ea:05:88:36:e1:28:88:44:1c:0b:51:ee:f3:8f:ed:73:8b:
         31:c6:bb:c3:52:a1:74:90:95:ea:6f:19:d2:33:f3:5a:36:ac:
         82:0b:7e:26:5c:cb:77:79:12:79:bb:03:00:a5:5f:59:87:0b:
         d7:c9:a3:22:91:ef:ea:ae:5a:61:cf:6e:10:de:5e:8b:dc:18:
         39:dc:21:43:4f:1a:97:04:13:30:ce:49:b4:22:5f:f6:a7:70:
         23:60:c9:b2:53:d8:68:61:a3:94:cc:3b:aa:65:97:ca:8d:02:
         9e:a6:9a:3d:aa:fa:da:bd:b1:59:d0:8b:55:f2:90:84:a4:74:
         e6:41:c0:25:39:79:73:d8:14:6e:dc:c5:dc:81:0e:d4:f9:bc:
         ee:2f:6e:68
-----BEGIN CERTIFICATE-----
MIIEGTCCAwGgAwIBAgIEEAAAxTANBgkqhkiG9w0BAQUFADBEMQswCQYDVQQGEwJE
RTEPMA0GA1UECAwGSGVzc2VuMRQwEgYDVQQKDAtwcml2YWN5aWRlYTEOMAwGA1UE
AwwFQ0EwMDEwHhcNMTYwNDE4MTYzMjAzWhcNMTcwNDE4MTYzMjAzWjBHMQswCQYD
VQQGEwJERTEPMA0GA1UECAwGSGVzc2VuMRQwEgYDVQQKDAtwcml2YWN5aWRlYTER
MA8GA1UEAwwIdXNlcmNlcnQwggEiMA0GCSqGSIb3DQEBAQUAA4IBDwAwggEKAoIB
AQDcL9FfKZfUfMNTyDC9S2dwLCRruF7rIXpIElZ8gVxIdbZo6/bymE5QUdF/bHPz
Cqeuvkhe5dbh2Sp8Mm5O/Qj2WlRJI3PDuQcY0e+zrPiK3JSWpJA6jnTf5g03G71b
tyUaVjnab5GqXhx08/l8FAGDEmV2x7v+NluV6XJlg+0+mDBx+ofdozZaMAMuJuBh
0b8CP7YGH0qJKBxcov9OvpTmjODagvGdKTJIMHO0BPZCHr734jIyJzydiS9wPoWa
b1zFCcCMMi9yIsnSlR+2rHJgcreCTWvOW+MA0NIvWMbgEOVRyk07LuZ+q4TWVvGT
NaCTZCaBdS+RtRYGOAvbzC0HAgMBAAGjggEOMIIBCjALBgNVHQ8EBAMCBaAwCQYD
VR0TBAIwADARBglghkgBhvhCAQEEBAMCBkAwMwYJYIZIAYb4QgENBCYWJE9wZW5T
U0wgR2VuZXJhdGVkIFNlcnZlciBDZXJ0aWZpY2F0ZTAdBgNVHQ4EFgQU/BTR8EuN
AJDy9bhxnk6Xw5JUrQswdAYDVR0jBG0wa4AU9KfAzJFGr2TzkfIn+Miyb4qHMnOh
SKRGMEQxCzAJBgNVBAYTAkRFMQ8wDQYDVQQIDAZIZXNzZW4xFDASBgNVBAoMC3By
aXZhY3lpZGVhMQ4wDAYDVQQDDAVDQTAwMYIJAPvI66yDzRIHMBMGA1UdJQQMMAoG
CCsGAQUFBwMBMA0GCSqGSIb3DQEBBQUAA4IBAQACk1eejAOiYKwbHfldWWjxlJSZ
wPQXR+cE+eLlwdNsNKkHUIfG7LRC6AtEGKDXsGjzTADWe61n1SSP7FyAW6a5/bB7
su/7ZuVjtt30kCDWUEkn2buJKWG4q79xJC3/Tk35eZfIPgi2jrQV/5eQ6gWINuEo
iEQcC1Hu84/tc4sxxrvDUqF0kJXqbxnSM/NaNqyCC34mXMt3eRJ5uwMApV9ZhwvX
yaMike/qrlphz24Q3l6L3Bg53CFDTxqXBBMwzkm0Il/2p3AjYMmyU9hoYaOUzDuq
ZZfKjQKeppo9qvravbFZ0ItV8pCEpHTmQcAlOXlz2BRu3MXcgQ7U+bzuL25o
-----END CERTIFICATE-----
