Certificate:
    Data:
        Version: 3 (0x2)
        Serial Number: 268435656 (0x100000c8)
    Signature Algorithm: sha1WithRSAEncryption
        Issuer: C=DE, ST=Hessen, O=privacyidea, CN=CA001
        Validity
            Not Before: Apr 18 16:42:32 2016 GMT
            Not After : Apr 18 16:42:32 2017 GMT
        Subject: CN=selfservice,CN=user,O=realm1/emailAddress=meine
        Subject Public Key Info:
            Public Key Algorithm: rsaEncryption
                Public-Key: (2048 bit)
                Modulus:
                    00:cf:3c:d4:33:0e:12:c4:e6:da:cd:b6:56:a1:1c:
                    26:bb:26:1c:8a:4a:73:a8:58:8a:b6:1e:b3:8b:99:
                    d2:1d:07:c2:92:89:79:c0:69:d8:c8:df:28:61:98:
                    1e:b3:fe:ae:2b:bd:78:a9:f7:6e:47:dc:a3:a0:16:
                    8c:85:02:c1:4e:92:fd:72:6e:f0:c8:03:29:9b:b8:
                    00:6e:c0:83:95:c8:34:20:36:9c:b3:e5:e4:e6:76:
                    73:a3:1a:ad:40:96:e0:53:54:00:ec:76:79:9a:c6:
                    0d:7e:b6:bd:29:ec:83:f3:cb:89:a4:cb:6c:00:ba:
                    0c:c5:78:0f:ff:69:b8:94:f4:04:70:43:3f:d8:9e:
                    d7:a7:fb:5d:ce:75:8e:da:e7:c4:07:b1:9d:de:6f:
                    88:4b:b6:4d:9a:cf:f9:bc:fa:9f:cd:32:6d:f6:3a:
                    0b:0d:23:42:78:ec:97:42:bf:0e:4d:60:56:e1:d3:
                    02:f2:19:cb:84:57:90:e5:70:a1:a2:83:35:86:e2:
                    da:86:9f:f9:8a:c4:79:b3:52:28:da:cb:bb:34:ca:
                    d3:da:91:4a:cf:8d:76:a2:b2:6b:9b:f9:96:fd:09:
                    2a:da:11:23:4d:f0:cb:d6:b2:b1:0e:12:6c:9a:19:
                    65:98:87:ca:e4:ee:24:ce:44:ac:90:8f:9d:1b:c5:
                    2a:9d
                Exponent: 65537 (0x10001)
        X509v3 extensions:
            X509v3 Key Usage: 
                Digital Signature, Key Encipherment
            X509v3 Basic Constraints: 
                CA:FALSE
            Netscape Cert Type: 
                SSL Server
            Netscape Comment: 
                OpenSSL Generated Server Certificate
            X509v3 Subject Key Identifier: 
                4D:07:90:AD:FF:1D:0D:E7:1A:DD:D6:2E:FA:BA:34:CB:AA:1F:24:C6
            X509v3 Authority Key Identifier: 
                keyid:F4:A7:C0:CC:91:46:AF:64:F3:91:F2:27:F8:C8:B2:6F:8A:87:32:73
                DirName:/C=DE/ST=Hessen/O=privacyidea/CN=CA001
                serial:FB:C8:EB:AC:83:CD:12:07

            X509v3 Extended Key Usage: 
                TLS Web Server Authentication
    Signature Algorithm: sha1WithRSAEncryption
         9b:ba:7e:2a:dd:71:ea:99:f8:2e:04:48:6f:40:e0:49:b6:0c:
         08:de:a9:74:2d:b8:e1:b3:27:f2:53:af:60:9d:18:30:10:0b:
         c9:23:c8:e9:c3:51:12:13:2d:b4:08:ef:d8:32:d1:f4:20:97:
         cc:c3:ad:73:d0:cb:da:8d:d0:f7:f1:1c:39:c5:55:ad:47:18:
         32:32:72:03:83:81:c0:1e:00:bc:c4:c4:e6:ef:7b:e5:fd:82:
         05:6b:db:d2:35:31:2e:2c:06:d7:12:29:a4:3f:16:25:e9:cb:
         cb:1d:50:31:a8:c9:d3:59:66:98:ea:e6:89:51:51:bf:e4:33:
         48:b6:6a:7a:2e:cb:23:84:bd:06:a6:aa:23:a7:85:23:6d:a0:
         97:27:1c:1d:b6:d2:86:7c:e1:eb:c1:2c:4c:49:c5:1a:ea:e2:
         59:c0:3d:f4:6a:1b:15:42:0d:a9:05:48:02:04:94:3a:83:fd:
         39:8c:b0:23:59:5e:ea:bd:54:b9:d9:bb:0e:fb:1b:4d:9f:e1:
         73:a0:42:da:3e:46:b0:46:14:b8:2d:22:5f:70:e4:da:ca:c1:
         68:40:f3:d5:85:b8:d0:3f:39:9f:b9:61:ac:28:a5:95:4d:d4:
         70:03:66:de:56:7b:8b:d2:f8:cf:f2:70:7d:ce:bc:df:89:75:
         67:6b:d7:c0
-----BEGIN CERTIFICATE-----
MIIEDzCCAvegAwIBAgIEEAAAyDANBgkqhkiG9w0BAQUFADBEMQswCQYDVQQGEwJE
RTEPMA0GA1UECAwGSGVzc2VuMRQwEgYDVQQKDAtwcml2YWN5aWRlYTEOMAwGA1UE
AwwFQ0EwMDEwHhcNMTYwNDE4MTY0MjMyWhcNMTcwNDE4MTY0MjMyWjA9MSUwIwYD
VQQDExxzZWxmc2VydmljZSxDTj11c2VyLE89cmVhbG0xMRQwEgYJKoZIhvcNAQkB
FgVtZWluZTCCASIwDQYJKoZIhvcNAQEBBQADggEPADCCAQoCggEBAM881DMOEsTm
2s22VqEcJrsmHIpKc6hYirYes4uZ0h0HwpKJecBp2MjfKGGYHrP+riu9eKn3bkfc
o6AWjIUCwU6S/XJu8MgDKZu4AG7Ag5XINCA2nLPl5OZ2c6MarUCW4FNUAOx2eZrG
DX62vSnsg/PLiaTLbAC6DMV4D/9puJT0BHBDP9ie16f7Xc51jtrnxAexnd5viEu2
TZrP+bz6n80ybfY6Cw0jQnjsl0K/Dk1gVuHTAvIZy4RXkOVwoaKDNYbi2oaf+YrE
ebNSKNrLuzTK09qRSs+NdqKya5v5lv0JKtoRI03wy9aysQ4SbJoZZZiHyuTuJM5E
rJCPnRvFKp0CAwEAAaOCAQ4wggEKMAsGA1UdDwQEAwIFoDAJBgNVHRMEAjAAMBEG
CWCGSAGG+EIBAQQEAwIGQDAzBglghkgBhvhCAQ0EJhYkT3BlblNTTCBHZW5lcmF0
ZWQgU2VydmVyIENlcnRpZmljYXRlMB0GA1UdDgQWBBRNB5Ct/x0N5xrd1i76ujTL
qh8kxjB0BgNVHSMEbTBrgBT0p8DMkUavZPOR8if4yLJviocyc6FIpEYwRDELMAkG
A1UEBhMCREUxDzANBgNVBAgMBkhlc3NlbjEUMBIGA1UECgwLcHJpdmFjeWlkZWEx
DjAMBgNVBAMMBUNBMDAxggkA+8jrrIPNEgcwEwYDVR0lBAwwCgYIKwYBBQUHAwEw
DQYJKoZIhvcNAQEFBQADggEBAJu6firdceqZ+C4ESG9A4Em2DAjeqXQtuOGzJ/JT
r2CdGDAQC8kjyOnDURITLbQI79gy0fQgl8zDrXPQy9qN0PfxHDnFVa1HGDIycgOD
gcAeALzExObve+X9ggVr29I1MS4sBtcSKaQ/FiXpy8sdUDGoydNZZpjq5olRUb/k
M0i2anouyyOEvQamqiOnhSNtoJcnHB220oZ84evBLExJxRrq4lnAPfRqGxVCDakF
SAIElDqD/TmMsCNZXuq9VLnZuw77G02f4XOgQto+RrBGFLgtIl9w5NrKwWhA89WF
uNA/OZ+5YawopZVN1HADZt5We4vS+M/ycH3OvN+JdWdr18A=
-----END CERTIFICATE-----
