Certificate:
    Data:
        Version: 3 (0x2)
        Serial Number: 268435666 (0x100000d2)
    Signature Algorithm: sha1WithRSAEncryption
        Issuer: C=DE, ST=Hessen, O=privacyidea, CN=CA001
        Validity
            Not Before: Apr 26 08:59:43 2016 GMT
            Not After : Apr 26 08:59:43 2017 GMT
        Subject: C=DE, ST=Hessen, O=privacyidea, CN=requester.localdomain
        Subject Public Key Info:
            Public Key Algorithm: rsaEncryption
                Public-Key: (2048 bit)
                Modulus:
                    00:cd:be:14:4f:fa:ce:01:3f:42:22:1b:1d:9c:af:
                    dd:92:d2:7f:db:6c:b7:3e:39:43:43:6b:13:03:f1:
                    05:f4:07:74:bc:76:69:28:0b:af:19:8e:d7:fc:e3:
                    cd:c6:58:f2:ca:7f:08:6d:53:fc:07:02:44:24:c6:
                    b4:34:4c:8c:04:fe:33:0e:40:e2:20:ba:02:73:5a:
                    f7:f5:4f:63:6e:cc:c6:b6:df:54:1d:37:39:7d:51:
                    36:26:5f:bd:dc:3f:a8:8b:6b:a2:ae:b6:9d:d6:21:
                    e7:df:41:b8:7a:28:2a:68:48:ca:a8:2d:ed:e1:e9:
                    46:5e:5a:72:6d:b4:84:38:87:91:fd:94:11:0b:28:
                    84:c6:c2:2f:2a:fb:01:f9:36:7a:09:75:d1:33:88:
                    3c:73:41:5b:c8:bf:94:89:70:a1:f0:c0:b9:2e:50:
                    53:1e:b1:17:64:69:f4:2d:81:e0:a9:0d:0e:32:e9:
                    ba:55:8a:85:f1:1b:6f:49:79:b4:7f:88:c3:0d:3e:
                    54:88:9b:3d:1f:38:8c:04:f3:ee:6a:63:2b:f5:c6:
                    db:b4:83:aa:c4:78:41:3a:7d:4b:e1:c8:3e:71:ca:
                    1b:61:59:ea:c6:c4:ca:32:5e:c9:e9:bf:12:29:e6:
                    c6:c3:63:fe:a0:55:da:7a:f1:60:98:4d:26:ed:fa:
                    70:2d
                Exponent: 65537 (0x10001)
        X509v3 extensions:
            X509v3 Key Usage: 
                Digital Signature, Key Encipherment
            X509v3 Basic Constraints: 
                CA:FALSE
            Netscape Cert Type: 
                SSL Server
            Netscape Comment: 
                OpenSSL Generated Server Certificate
            X509v3 Subject Key Identifier: 
                53:3F:ED:5D:09:07:B3:65:7B:AB:45:C9:24:5B:09:77:80:0A:96:ED
            X509v3 Authority Key Identifier: 
                keyid:F4:A7:C0:CC:91:46:AF:64:F3:91:F2:27:F8:C8:B2:6F:8A:87:32:73
                DirName:/C=DE/ST=Hessen/O=privacyidea/CN=CA001
                serial:FB:C8:EB:AC:83:CD:12:07

            X509v3 Extended Key Usage: 
                TLS Web Server Authentication
    Signature Algorithm: sha1WithRSAEncryption
         77:7d:42:45:66:e0:bc:bc:48:04:fe:3f:3f:de:f8:51:31:e2:
         e5:27:8b:9f:fb:ad:37:be:2d:ad:08:af:a9:c2:39:6f:99:e1:
         87:67:ce:1c:4b:7b:96:ff:7a:53:4d:0d:e8:0e:30:11:63:12:
         b8:5f:aa:89:52:dc:95:4e:e3:85:3b:8b:1b:6f:b5:50:51:97:
         e8:07:f8:41:2d:02:b7:84:04:28:95:ab:89:2f:a8:3e:d7:a8:
         48:7f:29:f4:c5:21:14:77:8a:29:21:6b:b8:66:d3:37:46:64:
         99:1b:7a:e2:93:45:43:0f:53:29:3b:11:1c:65:a2:ba:00:c6:
         bb:74:b2:4e:4d:ce:9d:3f:8c:bb:55:b0:d6:b9:5f:c8:2b:ce:
         2d:39:bc:b7:2c:cb:e9:e1:7c:38:0b:c0:a4:b0:d1:6a:5e:de:
         23:16:6a:a9:39:b3:32:a4:f3:50:24:a6:6e:94:ff:a6:d3:32:
         53:93:0d:b6:dd:42:59:6d:6d:d8:82:54:33:de:cc:99:f2:f2:
         9a:e8:0f:09:af:cf:eb:0a:d6:80:60:20:07:5c:10:6e:9d:c1:
         21:c9:53:11:9d:00:ec:1a:b2:5b:43:ed:37:1f:bd:9d:ad:6e:
         78:7f:b5:0d:3e:25:b8:0e:b0:cc:d0:75:f5:d5:8e:bc:5c:a8:
         b4:5d:44:32
-----BEGIN CERTIFICATE-----
MIIEJjCCAw6gAwIBAgIEEAAA0jANBgkqhkiG9w0BAQUFADBEMQswCQYDVQQGEwJE
RTEPMA0GA1UECAwGSGVzc2VuMRQwEgYDVQQKDAtwcml2YWN5aWRlYTEOMAwGA1UE
AwwFQ0EwMDEwHhcNMTYwNDI2MDg1OTQzWhcNMTcwNDI2MDg1OTQzWjBUMQswCQYD
VQQGEwJERTEPMA0GA1UECAwGSGVzc2VuMRQwEgYDVQQKDAtwcml2YWN5aWRlYTEe
MBwGA1UEAwwVcmVxdWVzdGVyLmxvY2FsZG9tYWluMIIBIjANBgkqhkiG9w0BAQEF
AAOCAQ8AMIIBCgKCAQEAzb4UT/rOAT9CIhsdnK/dktJ/22y3PjlDQ2sTA/EF9Ad0
vHZpKAuvGY7X/OPNxljyyn8IbVP8BwJEJMa0NEyMBP4zDkDiILoCc1r39U9jbszG
tt9UHTc5fVE2Jl+93D+oi2uirrad1iHn30G4eigqaEjKqC3t4elGXlpybbSEOIeR
/ZQRCyiExsIvKvsB+TZ6CXXRM4g8c0FbyL+UiXCh8MC5LlBTHrEXZGn0LYHgqQ0O
Mum6VYqF8RtvSXm0f4jDDT5UiJs9HziMBPPuamMr9cbbtIOqxHhBOn1L4cg+ccob
YVnqxsTKMl7J6b8SKebGw2P+oFXaevFgmE0m7fpwLQIDAQABo4IBDjCCAQowCwYD
VR0PBAQDAgWgMAkGA1UdEwQCMAAwEQYJYIZIAYb4QgEBBAQDAgZAMDMGCWCGSAGG
+EIBDQQmFiRPcGVuU1NMIEdlbmVyYXRlZCBTZXJ2ZXIgQ2VydGlmaWNhdGUwHQYD
VR0OBBYEFFM/7V0JB7Nle6tFySRbCXeACpbtMHQGA1UdIwRtMGuAFPSnwMyRRq9k
85HyJ/jIsm+KhzJzoUikRjBEMQswCQYDVQQGEwJERTEPMA0GA1UECAwGSGVzc2Vu
MRQwEgYDVQQKDAtwcml2YWN5aWRlYTEOMAwGA1UEAwwFQ0EwMDGCCQD7yOusg80S
BzATBgNVHSUEDDAKBggrBgEFBQcDATANBgkqhkiG9w0BAQUFAAOCAQEAd31CRWbg
vLxIBP4/P974UTHi5SeLn/utN74trQivqcI5b5nhh2fOHEt7lv96U00N6A4wEWMS
uF+qiVLclU7jhTuLG2+1UFGX6Af4QS0Ct4QEKJWriS+oPteoSH8p9MUhFHeKKSFr
uGbTN0ZkmRt64pNFQw9TKTsRHGWiugDGu3SyTk3OnT+Mu1Ww1rlfyCvOLTm8tyzL
6eF8OAvApLDRal7eIxZqqTmzMqTzUCSmbpT/ptMyU5MNtt1CWW1t2IJUM97MmfLy
mugPCa/P6wrWgGAgB1wQbp3BIclTEZ0A7BqyW0PtNx+9na1ueH+1DT4luA6wzNB1
9dWOvFyotF1EMg==
-----END CERTIFICATE-----
