Certificate:
    Data:
        Version: 3 (0x2)
        Serial Number: 268435662 (0x100000ce)
    Signature Algorithm: sha1WithRSAEncryption
        Issuer: C=DE, ST=Hessen, O=privacyidea, CN=CA001
        Validity
            Not Before: Apr 26 08:45:48 2016 GMT
            Not After : Apr 26 08:45:48 2017 GMT
        Subject: C=DE, ST=Hessen, O=privacyidea, CN=requester.localdomain
        Subject Public Key Info:
            Public Key Algorithm: rsaEncryption
                Public-Key: (2048 bit)
                Modulus:
                    00:cd:be:14:4f:fa:ce:01:3f:42:22:1b:1d:9c:af:
                    dd:92:d2:7f:db:6c:b7:3e:39:43:43:6b:13:03:f1:
                    05:f4:07:74:bc:76:69:28:0b:af:19:8e:d7:fc:e3:
                    cd:c6:58:f2:ca:7f:08:6d:53:fc:07:02:44:24:c6:
                    b4:34:4c:8c:04:fe:33:0e:40:e2:20:ba:02:73:5a:
                    f7:f5:4f:63:6e:cc:c6:b6:df:54:1d:37:39:7d:51:
                    36:26:5f:bd:dc:3f:a8:8b:6b:a2:ae:b6:9d:d6:21:
                    e7:df:41:b8:7a:28:2a:68:48:ca:a8:2d:ed:e1:e9:
                    46:5e:5a:72:6d:b4:84:38:87:91:fd:94:11:0b:28:
                    84:c6:c2:2f:2a:fb:01:f9:36:7a:09:75:d1:33:88:
                    3c:73:41:5b:c8:bf:94:89:70:a1:f0:c0:b9:2e:50:
                    53:1e:b1:17:64:69:f4:2d:81:e0:a9:0d:0e:32:e9:
                    ba:55:8a:85:f1:1b:6f:49:79:b4:7f:88:c3:0d:3e:
                    54:88:9b:3d:1f:38:8c:04:f3:ee:6a:63:2b:f5:c6:
                    db:b4:83:aa:c4:78:41:3a:7d:4b:e1:c8:3e:71:ca:
                    1b:61:59:ea:c6:c4:ca:32:5e:c9:e9:bf:12:29:e6:
                    c6:c3:63:fe:a0:55:da:7a:f1:60:98:4d:26:ed:fa:
                    70:2d
                Exponent: 65537 (0x10001)
        X509v3 extensions:
            X509v3 Key Usage: 
                Digital Signature, Key Encipherment
            X509v3 Basic Constraints: 
                CA:FALSE
            Netscape Cert Type: 
                SSL Server
            Netscape Comment: 
                OpenSSL Generated Server Certificate
            X509v3 Subject Key Identifier: 
                53:3F:ED:5D:09:07:B3:65:7B:AB:45:C9:24:5B:09:77:80:0A:96:ED
            X509v3 Authority Key Identifier: 
                keyid:F4:A7:C0:CC:91:46:AF:64:F3:91:F2:27:F8:C8:B2:6F:8A:87:32:73
                DirName:/C=DE/ST=Hessen/O=privacyidea/CN=CA001
                serial:FB:C8:EB:AC:83:CD:12:07

            X509v3 Extended Key Usage: 
                TLS Web Server Authentication
    Signature Algorithm: sha1WithRSAEncryption
         81:4e:f9:51:ec:a6:75:2f:ee:48:00:25:29:a0:6f:73:f1:3e:
         17:16:3d:88:8e:d9:16:aa:f1:6f:14:bf:1b:30:7b:aa:e0:77:
         dc:e0:50:44:69:7c:86:95:ca:f5:b8:59:3b:b6:a9:6e:16:0f:
         59:c9:30:f8:9e:81:2d:95:a8:8b:92:3d:90:dd:24:d4:47:d7:
         b6:9f:6d:0f:4f:72:8b:ef:36:04:4a:bb:34:ac:b9:5b:a1:0a:
         f7:8f:7e:ec:9d:17:bf:fc:76:75:a2:cd:ef:af:02:f3:11:d6:
         b9:07:b1:c6:6e:25:9b:19:6b:f3:5d:2f:5c:0d:a7:ed:b3:c8:
         b4:19:25:ac:c7:50:f0:ac:5d:bd:3f:17:f4:c9:f7:05:c5:b1:
         28:77:72:dc:e5:61:2a:14:e1:c4:43:38:4e:9f:66:8a:b4:46:
         d0:5e:6a:6d:f6:1d:90:a0:2b:21:3c:04:2b:59:bb:9b:af:bd:
         3f:f5:f3:83:bd:35:44:9e:d9:b5:fe:1f:d1:04:1a:ee:28:f5:
         82:a0:7c:23:63:16:b3:e5:37:e6:a5:fe:bf:3d:96:73:2d:9d:
         0f:33:fc:5d:91:7a:29:4e:df:35:03:2d:00:16:09:e9:b9:19:
         82:ec:e9:19:cc:5f:70:cb:82:96:7b:24:6f:c1:11:58:b3:05:
         75:76:eb:74
-----BEGIN CERTIFICATE-----
MIIEJjCCAw6gAwIBAgIEEAAAzjANBgkqhkiG9w0BAQUFADBEMQswCQYDVQQGEwJE
RTEPMA0GA1UECAwGSGVzc2VuMRQwEgYDVQQKDAtwcml2YWN5aWRlYTEOMAwGA1UE
AwwFQ0EwMDEwHhcNMTYwNDI2MDg0NTQ4WhcNMTcwNDI2MDg0NTQ4WjBUMQswCQYD
VQQGEwJERTEPMA0GA1UECAwGSGVzc2VuMRQwEgYDVQQKDAtwcml2YWN5aWRlYTEe
MBwGA1UEAwwVcmVxdWVzdGVyLmxvY2FsZG9tYWluMIIBIjANBgkqhkiG9w0BAQEF
AAOCAQ8AMIIBCgKCAQEAzb4UT/rOAT9CIhsdnK/dktJ/22y3PjlDQ2sTA/EF9Ad0
vHZpKAuvGY7X/OPNxljyyn8IbVP8BwJEJMa0NEyMBP4zDkDiILoCc1r39U9jbszG
tt9UHTc5fVE2Jl+93D+oi2uirrad1iHn30G4eigqaEjKqC3t4elGXlpybbSEOIeR
/ZQRCyiExsIvKvsB+TZ6CXXRM4g8c0FbyL+UiXCh8MC5LlBTHrEXZGn0LYHgqQ0O
Mum6VYqF8RtvSXm0f4jDDT5UiJs9HziMBPPuamMr9cbbtIOqxHhBOn1L4cg+ccob
YVnqxsTKMl7J6b8SKebGw2P+oFXaevFgmE0m7fpwLQIDAQABo4IBDjCCAQowCwYD
VR0PBAQDAgWgMAkGA1UdEwQCMAAwEQYJYIZIAYb4QgEBBAQDAgZAMDMGCWCGSAGG
+EIBDQQmFiRPcGVuU1NMIEdlbmVyYXRlZCBTZXJ2ZXIgQ2VydGlmaWNhdGUwHQYD
VR0OBBYEFFM/7V0JB7Nle6tFySRbCXeACpbtMHQGA1UdIwRtMGuAFPSnwMyRRq9k
85HyJ/jIsm+KhzJzoUikRjBEMQswCQYDVQQGEwJERTEPMA0GA1UECAwGSGVzc2Vu
MRQwEgYDVQQKDAtwcml2YWN5aWRlYTEOMAwGA1UEAwwFQ0EwMDGCCQD7yOusg80S
BzATBgNVHSUEDDAKBggrBgEFBQcDATANBgkqhkiG9w0BAQUFAAOCAQEAgU75Ueym
dS/uSAAlKaBvc/E+FxY9iI7ZFqrxbxS/GzB7quB33OBQRGl8hpXK9bhZO7apbhYP
Wckw+J6BLZWoi5I9kN0k1EfXtp9tD09yi+82BEq7NKy5W6EK949+7J0Xv/x2daLN
768C8xHWuQexxm4lmxlr810vXA2n7bPItBklrMdQ8KxdvT8X9Mn3BcWxKHdy3OVh
KhThxEM4Tp9mirRG0F5qbfYdkKArITwEK1m7m6+9P/Xzg701RJ7Ztf4f0QQa7ij1
gqB8I2MWs+U35qX+vz2Wcy2dDzP8XZF6KU7fNQMtABYJ6bkZguzpGcxfcMuClnsk
b8ERWLMFdXbrdA==
-----END CERTIFICATE-----
