Certificate:
    Data:
        Version: 3 (0x2)
        Serial Number: 268435659 (0x100000cb)
    Signature Algorithm: sha1WithRSAEncryption
        Issuer: C=DE, ST=Hessen, O=privacyidea, CN=CA001
        Validity
            Not Before: Apr 26 08:30:14 2016 GMT
            Not After : Apr 26 08:30:14 2017 GMT
        Subject: C=DE, ST=Hessen, O=privacyidea, CN=requester.localdomain
        Subject Public Key Info:
            Public Key Algorithm: rsaEncryption
                Public-Key: (2048 bit)
                Modulus:
                    00:cd:be:14:4f:fa:ce:01:3f:42:22:1b:1d:9c:af:
                    dd:92:d2:7f:db:6c:b7:3e:39:43:43:6b:13:03:f1:
                    05:f4:07:74:bc:76:69:28:0b:af:19:8e:d7:fc:e3:
                    cd:c6:58:f2:ca:7f:08:6d:53:fc:07:02:44:24:c6:
                    b4:34:4c:8c:04:fe:33:0e:40:e2:20:ba:02:73:5a:
                    f7:f5:4f:63:6e:cc:c6:b6:df:54:1d:37:39:7d:51:
                    36:26:5f:bd:dc:3f:a8:8b:6b:a2:ae:b6:9d:d6:21:
                    e7:df:41:b8:7a:28:2a:68:48:ca:a8:2d:ed:e1:e9:
                    46:5e:5a:72:6d:b4:84:38:87:91:fd:94:11:0b:28:
                    84:c6:c2:2f:2a:fb:01:f9:36:7a:09:75:d1:33:88:
                    3c:73:41:5b:c8:bf:94:89:70:a1:f0:c0:b9:2e:50:
                    53:1e:b1:17:64:69:f4:2d:81:e0:a9:0d:0e:32:e9:
                    ba:55:8a:85:f1:1b:6f:49:79:b4:7f:88:c3:0d:3e:
                    54:88:9b:3d:1f:38:8c:04:f3:ee:6a:63:2b:f5:c6:
                    db:b4:83:aa:c4:78:41:3a:7d:4b:e1:c8:3e:71:ca:
                    1b:61:59:ea:c6:c4:ca:32:5e:c9:e9:bf:12:29:e6:
                    c6:c3:63:fe:a0:55:da:7a:f1:60:98:4d:26:ed:fa:
                    70:2d
                Exponent: 65537 (0x10001)
        X509v3 extensions:
            X509v3 Key Usage: 
                Digital Signature, Key Encipherment
            X509v3 Basic Constraints: 
                CA:FALSE
            Netscape Cert Type: 
                SSL Server
            Netscape Comment: 
                OpenSSL Generated Server Certificate
            X509v3 Subject Key Identifier: 
                53:3F:ED:5D:09:07:B3:65:7B:AB:45:C9:24:5B:09:77:80:0A:96:ED
            X509v3 Authority Key Identifier: 
                keyid:F4:A7:C0:CC:91:46:AF:64:F3:91:F2:27:F8:C8:B2:6F:8A:87:32:73
                DirName:/C=DE/ST=Hessen/O=privacyidea/CN=CA001
                serial:FB:C8:EB:AC:83:CD:12:07

            X509v3 Extended Key Usage: 
                TLS Web Server Authentication
    Signature Algorithm: sha1WithRSAEncryption
         78:07:8e:bf:0c:9b:07:73:b4:03:53:ca:74:af:90:96:66:d8:
         98:89:90:8d:32:67:14:c8:b6:52:f3:48:3c:c9:7e:65:90:3b:
         b3:6f:73:63:fd:39:27:c4:5e:34:bd:0e:4d:29:3c:7c:38:e5:
         03:dc:06:9e:7c:c5:c5:60:3a:7e:45:7f:f3:e3:8b:41:a3:bb:
         0c:bd:b3:d8:11:5c:cd:2b:aa:2c:1d:ec:ad:71:5a:b9:62:07:
         b5:b9:55:93:3a:08:5a:67:76:09:6e:0b:ed:69:d3:4d:20:24:
         e9:1d:70:e2:ba:bd:51:51:95:9c:14:27:9a:a0:70:20:52:5a:
         d8:5e:1a:b0:50:08:31:5a:4d:a5:9f:8c:f1:3e:83:34:ca:fc:
         80:c0:05:03:7c:ce:b8:32:da:f9:b9:43:76:93:93:b8:2a:7a:
         0b:f5:58:e7:04:97:40:2e:a2:49:da:35:1e:5c:0d:ee:05:5f:
         3d:01:c6:07:29:a4:7e:4d:1d:dd:9e:a7:cc:14:2d:11:f6:88:
         8c:c0:03:c4:ba:4d:57:79:24:04:cb:63:8e:cc:82:e7:bd:84:
         71:2f:d2:e6:c5:08:39:8d:38:de:e9:c2:07:42:33:b7:62:ba:
         a4:20:15:69:a9:5d:13:8d:24:10:dc:07:79:ef:1c:71:3b:e2:
         bb:c6:b6:84
-----BEGIN CERTIFICATE-----
MIIEJjCCAw6gAwIBAgIEEAAAyzANBgkqhkiG9w0BAQUFADBEMQswCQYDVQQGEwJE
RTEPMA0GA1UECAwGSGVzc2VuMRQwEgYDVQQKDAtwcml2YWN5aWRlYTEOMAwGA1UE
AwwFQ0EwMDEwHhcNMTYwNDI2MDgzMDE0WhcNMTcwNDI2MDgzMDE0WjBUMQswCQYD
VQQGEwJERTEPMA0GA1UECAwGSGVzc2VuMRQwEgYDVQQKDAtwcml2YWN5aWRlYTEe
MBwGA1UEAwwVcmVxdWVzdGVyLmxvY2FsZG9tYWluMIIBIjANBgkqhkiG9w0BAQEF
AAOCAQ8AMIIBCgKCAQEAzb4UT/rOAT9CIhsdnK/dktJ/22y3PjlDQ2sTA/EF9Ad0
vHZpKAuvGY7X/OPNxljyyn8IbVP8BwJEJMa0NEyMBP4zDkDiILoCc1r39U9jbszG
tt9UHTc5fVE2Jl+93D+oi2uirrad1iHn30G4eigqaEjKqC3t4elGXlpybbSEOIeR
/ZQRCyiExsIvKvsB+TZ6CXXRM4g8c0FbyL+UiXCh8MC5LlBTHrEXZGn0LYHgqQ0O
Mum6VYqF8RtvSXm0f4jDDT5UiJs9HziMBPPuamMr9cbbtIOqxHhBOn1L4cg+ccob
YVnqxsTKMl7J6b8SKebGw2P+oFXaevFgmE0m7fpwLQIDAQABo4IBDjCCAQowCwYD
VR0PBAQDAgWgMAkGA1UdEwQCMAAwEQYJYIZIAYb4QgEBBAQDAgZAMDMGCWCGSAGG
+EIBDQQmFiRPcGVuU1NMIEdlbmVyYXRlZCBTZXJ2ZXIgQ2VydGlmaWNhdGUwHQYD
VR0OBBYEFFM/7V0JB7Nle6tFySRbCXeACpbtMHQGA1UdIwRtMGuAFPSnwMyRRq9k
85HyJ/jIsm+KhzJzoUikRjBEMQswCQYDVQQGEwJERTEPMA0GA1UECAwGSGVzc2Vu
MRQwEgYDVQQKDAtwcml2YWN5aWRlYTEOMAwGA1UEAwwFQ0EwMDGCCQD7yOusg80S
BzATBgNVHSUEDDAKBggrBgEFBQcDATANBgkqhkiG9w0BAQUFAAOCAQEAeAeOvwyb
B3O0A1PKdK+QlmbYmImQjTJnFMi2UvNIPMl+ZZA7s29zY/05J8ReNL0OTSk8fDjl
A9wGnnzFxWA6fkV/8+OLQaO7DL2z2BFczSuqLB3srXFauWIHtblVkzoIWmd2CW4L
7WnTTSAk6R1w4rq9UVGVnBQnmqBwIFJa2F4asFAIMVpNpZ+M8T6DNMr8gMAFA3zO
uDLa+blDdpOTuCp6C/VY5wSXQC6iSdo1HlwN7gVfPQHGBymkfk0d3Z6nzBQtEfaI
jMADxLpNV3kkBMtjjsyC572EcS/S5sUIOY043unCB0Izt2K6pCAVaaldE40kENwH
ee8ccTviu8a2hA==
-----END CERTIFICATE-----
