Certificate:
    Data:
        Version: 3 (0x2)
        Serial Number: 268435651 (0x100000c3)
    Signature Algorithm: sha1WithRSAEncryption
        Issuer: C=DE, ST=Hessen, O=privacyidea, CN=CA001
        Validity
            Not Before: Apr 18 16:30:25 2016 GMT
            Not After : Apr 18 16:30:25 2017 GMT
        Subject: C=DE, ST=Hessen, O=privacyidea, CN=requester.localdomain
        Subject Public Key Info:
            Public Key Algorithm: rsaEncryption
                Public-Key: (2048 bit)
                Modulus:
                    00:cd:be:14:4f:fa:ce:01:3f:42:22:1b:1d:9c:af:
                    dd:92:d2:7f:db:6c:b7:3e:39:43:43:6b:13:03:f1:
                    05:f4:07:74:bc:76:69:28:0b:af:19:8e:d7:fc:e3:
                    cd:c6:58:f2:ca:7f:08:6d:53:fc:07:02:44:24:c6:
                    b4:34:4c:8c:04:fe:33:0e:40:e2:20:ba:02:73:5a:
                    f7:f5:4f:63:6e:cc:c6:b6:df:54:1d:37:39:7d:51:
                    36:26:5f:bd:dc:3f:a8:8b:6b:a2:ae:b6:9d:d6:21:
                    e7:df:41:b8:7a:28:2a:68:48:ca:a8:2d:ed:e1:e9:
                    46:5e:5a:72:6d:b4:84:38:87:91:fd:94:11:0b:28:
                    84:c6:c2:2f:2a:fb:01:f9:36:7a:09:75:d1:33:88:
                    3c:73:41:5b:c8:bf:94:89:70:a1:f0:c0:b9:2e:50:
                    53:1e:b1:17:64:69:f4:2d:81:e0:a9:0d:0e:32:e9:
                    ba:55:8a:85:f1:1b:6f:49:79:b4:7f:88:c3:0d:3e:
                    54:88:9b:3d:1f:38:8c:04:f3:ee:6a:63:2b:f5:c6:
                    db:b4:83:aa:c4:78:41:3a:7d:4b:e1:c8:3e:71:ca:
                    1b:61:59:ea:c6:c4:ca:32:5e:c9:e9:bf:12:29:e6:
                    c6:c3:63:fe:a0:55:da:7a:f1:60:98:4d:26:ed:fa:
                    70:2d
                Exponent: 65537 (0x10001)
        X509v3 extensions:
            X509v3 Key Usage: 
                Digital Signature, Key Encipherment
            X509v3 Basic Constraints: 
                CA:FALSE
            Netscape Cert Type: 
                SSL Server
            Netscape Comment: 
                OpenSSL Generated Server Certificate
            X509v3 Subject Key Identifier: 
                53:3F:ED:5D:09:07:B3:65:7B:AB:45:C9:24:5B:09:77:80:0A:96:ED
            X509v3 Authority Key Identifier: 
                keyid:F4:A7:C0:CC:91:46:AF:64:F3:91:F2:27:F8:C8:B2:6F:8A:87:32:73
                DirName:/C=DE/ST=Hessen/O=privacyidea/CN=CA001
                serial:FB:C8:EB:AC:83:CD:12:07

            X509v3 Extended Key Usage: 
                TLS Web Server Authentication
    Signature Algorithm: sha1WithRSAEncryption
         5f:29:bc:b0:b6:fa:a6:18:fd:81:e5:3f:25:97:8f:eb:c9:4a:
         3e:44:a7:a9:2c:5b:c2:7e:90:06:24:3a:5f:e2:40:ed:c2:ce:
         aa:a9:56:09:e4:d4:f7:08:37:69:25:31:fb:3d:f2:b6:a7:62:
         88:13:16:89:71:23:bc:6e:65:52:e6:71:b7:48:cb:cb:06:8c:
         11:87:5d:4d:eb:ef:c8:3a:03:a5:d4:11:55:7a:34:7e:f8:ca:
         0d:32:74:96:f6:d6:ca:eb:5e:fe:37:e7:5a:d6:c1:2e:c0:6d:
         fc:63:d4:d8:10:79:c6:be:a2:68:a8:53:56:4a:3b:fb:22:e8:
         da:2e:8b:3e:b4:9d:50:a9:e5:4a:49:7f:b8:f9:cb:5a:1b:67:
         81:ce:18:53:b2:7f:76:30:42:3d:f5:96:35:53:12:f0:ff:95:
         47:9b:ca:17:9f:eb:d9:a4:39:bf:fb:69:05:9d:bd:e6:73:8a:
         28:9a:89:7a:fe:a1:a5:c3:f1:92:de:77:40:04:45:80:47:7f:
         21:66:2a:a2:d3:0d:ca:87:64:d4:92:ae:4e:d3:5a:1d:da:5e:
         4d:ef:1e:3e:dc:8e:45:36:92:9a:8c:fc:f4:2e:d9:d1:f0:ba:
         75:24:b2:b1:8d:e4:4e:01:8a:a8:df:e9:84:81:d2:86:1d:42:
         f5:5a:73:f4
-----BEGIN CERTIFICATE-----
MIIEJjCCAw6gAwIBAgIEEAAAwzANBgkqhkiG9w0BAQUFADBEMQswCQYDVQQGEwJE
RTEPMA0GA1UECAwGSGVzc2VuMRQwEgYDVQQKDAtwcml2YWN5aWRlYTEOMAwGA1UE
AwwFQ0EwMDEwHhcNMTYwNDE4MTYzMDI1WhcNMTcwNDE4MTYzMDI1WjBUMQswCQYD
VQQGEwJERTEPMA0GA1UECAwGSGVzc2VuMRQwEgYDVQQKDAtwcml2YWN5aWRlYTEe
MBwGA1UEAwwVcmVxdWVzdGVyLmxvY2FsZG9tYWluMIIBIjANBgkqhkiG9w0BAQEF
AAOCAQ8AMIIBCgKCAQEAzb4UT/rOAT9CIhsdnK/dktJ/22y3PjlDQ2sTA/EF9Ad0
vHZpKAuvGY7X/OPNxljyyn8IbVP8BwJEJMa0NEyMBP4zDkDiILoCc1r39U9jbszG
tt9UHTc5fVE2Jl+93D+oi2uirrad1iHn30G4eigqaEjKqC3t4elGXlpybbSEOIeR
/ZQRCyiExsIvKvsB+TZ6CXXRM4g8c0FbyL+UiXCh8MC5LlBTHrEXZGn0LYHgqQ0O
Mum6VYqF8RtvSXm0f4jDDT5UiJs9HziMBPPuamMr9cbbtIOqxHhBOn1L4cg+ccob
YVnqxsTKMl7J6b8SKebGw2P+oFXaevFgmE0m7fpwLQIDAQABo4IBDjCCAQowCwYD
VR0PBAQDAgWgMAkGA1UdEwQCMAAwEQYJYIZIAYb4QgEBBAQDAgZAMDMGCWCGSAGG
+EIBDQQmFiRPcGVuU1NMIEdlbmVyYXRlZCBTZXJ2ZXIgQ2VydGlmaWNhdGUwHQYD
VR0OBBYEFFM/7V0JB7Nle6tFySRbCXeACpbtMHQGA1UdIwRtMGuAFPSnwMyRRq9k
85HyJ/jIsm+KhzJzoUikRjBEMQswCQYDVQQGEwJERTEPMA0GA1UECAwGSGVzc2Vu
MRQwEgYDVQQKDAtwcml2YWN5aWRlYTEOMAwGA1UEAwwFQ0EwMDGCCQD7yOusg80S
BzATBgNVHSUEDDAKBggrBgEFBQcDATANBgkqhkiG9w0BAQUFAAOCAQEAXym8sLb6
phj9geU/JZeP68lKPkSnqSxbwn6QBiQ6X+JA7cLOqqlWCeTU9wg3aSUx+z3ytqdi
iBMWiXEjvG5lUuZxt0jLywaMEYddTevvyDoDpdQRVXo0fvjKDTJ0lvbWyute/jfn
WtbBLsBt/GPU2BB5xr6iaKhTVko7+yLo2i6LPrSdUKnlSkl/uPnLWhtngc4YU7J/
djBCPfWWNVMS8P+VR5vKF5/r2aQ5v/tpBZ295nOKKJqJev6hpcPxkt53QARFgEd/
IWYqotMNyodk1JKuTtNaHdpeTe8ePtyORTaSmoz89C7Z0fC6dSSysY3kTgGKqN/p
hIHShh1C9Vpz9A==
-----END CERTIFICATE-----
