Certificate:
    Data:
        Version: 3 (0x2)
        Serial Number: 268435657 (0x100000c9)
    Signature Algorithm: sha1WithRSAEncryption
        Issuer: C=DE, ST=Hessen, O=privacyidea, CN=CA001
        Validity
            Not Before: Apr 26 08:24:37 2016 GMT
            Not After : Apr 26 08:24:37 2017 GMT
        Subject: C=DE, ST=Hessen, O=privacyidea, CN=requester.localdomain
        Subject Public Key Info:
            Public Key Algorithm: rsaEncryption
                Public-Key: (2048 bit)
                Modulus:
                    00:cd:be:14:4f:fa:ce:01:3f:42:22:1b:1d:9c:af:
                    dd:92:d2:7f:db:6c:b7:3e:39:43:43:6b:13:03:f1:
                    05:f4:07:74:bc:76:69:28:0b:af:19:8e:d7:fc:e3:
                    cd:c6:58:f2:ca:7f:08:6d:53:fc:07:02:44:24:c6:
                    b4:34:4c:8c:04:fe:33:0e:40:e2:20:ba:02:73:5a:
                    f7:f5:4f:63:6e:cc:c6:b6:df:54:1d:37:39:7d:51:
                    36:26:5f:bd:dc:3f:a8:8b:6b:a2:ae:b6:9d:d6:21:
                    e7:df:41:b8:7a:28:2a:68:48:ca:a8:2d:ed:e1:e9:
                    46:5e:5a:72:6d:b4:84:38:87:91:fd:94:11:0b:28:
                    84:c6:c2:2f:2a:fb:01:f9:36:7a:09:75:d1:33:88:
                    3c:73:41:5b:c8:bf:94:89:70:a1:f0:c0:b9:2e:50:
                    53:1e:b1:17:64:69:f4:2d:81:e0:a9:0d:0e:32:e9:
                    ba:55:8a:85:f1:1b:6f:49:79:b4:7f:88:c3:0d:3e:
                    54:88:9b:3d:1f:38:8c:04:f3:ee:6a:63:2b:f5:c6:
                    db:b4:83:aa:c4:78:41:3a:7d:4b:e1:c8:3e:71:ca:
                    1b:61:59:ea:c6:c4:ca:32:5e:c9:e9:bf:12:29:e6:
                    c6:c3:63:fe:a0:55:da:7a:f1:60:98:4d:26:ed:fa:
                    70:2d
                Exponent: 65537 (0x10001)
        X509v3 extensions:
            X509v3 Key Usage: 
                Digital Signature, Key Encipherment
            X509v3 Basic Constraints: 
                CA:FALSE
            Netscape Cert Type: 
                SSL Server
            Netscape Comment: 
                OpenSSL Generated Server Certificate
            X509v3 Subject Key Identifier: 
                53:3F:ED:5D:09:07:B3:65:7B:AB:45:C9:24:5B:09:77:80:0A:96:ED
            X509v3 Authority Key Identifier: 
                keyid:F4:A7:C0:CC:91:46:AF:64:F3:91:F2:27:F8:C8:B2:6F:8A:87:32:73
                DirName:/C=DE/ST=Hessen/O=privacyidea/CN=CA001
                serial:FB:C8:EB:AC:83:CD:12:07

            X509v3 Extended Key Usage: 
                TLS Web Server Authentication
    Signature Algorithm: sha1WithRSAEncryption
         5d:1f:0e:de:43:6b:fe:8f:f1:ba:83:47:ab:64:91:a8:38:55:
         64:59:27:f6:08:0d:ef:2f:38:a9:0f:a0:3b:9f:49:b6:1d:d8:
         f7:f4:f0:21:fa:28:b7:ce:9a:38:1a:b6:41:cf:49:d2:e6:96:
         99:e4:34:f5:c2:9e:6b:10:f3:ed:4c:55:bb:88:40:82:86:73:
         93:3d:5e:78:cf:24:1e:4a:3f:2a:e5:a5:20:23:90:e6:aa:51:
         3d:7f:8f:65:8b:a3:8f:f1:8d:0f:23:88:cc:bc:c6:e5:4c:e3:
         0d:5d:81:e5:4f:36:a3:37:58:37:0e:c8:89:f0:6d:16:4b:67:
         04:9b:ff:6d:f2:11:41:58:63:4c:ca:71:9c:cc:75:bc:e9:4e:
         63:41:37:9b:ad:91:8d:83:09:ab:68:0d:0d:69:ce:b3:12:e0:
         1b:e8:f1:9b:38:5e:f4:84:ed:c5:c4:54:27:da:f9:1b:a6:5f:
         00:da:1b:6e:49:7f:da:f4:ba:b0:83:83:a1:ee:ce:55:c1:cb:
         d6:bb:c9:e2:35:39:d4:84:5e:bc:74:2e:2d:7e:2c:d5:9e:8b:
         af:40:af:f2:ab:ac:a3:44:a2:9c:7c:d8:e8:7b:07:c9:55:d2:
         83:e9:48:c7:2f:8f:14:55:a1:23:f4:12:09:20:fc:bf:30:e5:
         b3:4b:b2:84
-----BEGIN CERTIFICATE-----
MIIEJjCCAw6gAwIBAgIEEAAAyTANBgkqhkiG9w0BAQUFADBEMQswCQYDVQQGEwJE
RTEPMA0GA1UECAwGSGVzc2VuMRQwEgYDVQQKDAtwcml2YWN5aWRlYTEOMAwGA1UE
AwwFQ0EwMDEwHhcNMTYwNDI2MDgyNDM3WhcNMTcwNDI2MDgyNDM3WjBUMQswCQYD
VQQGEwJERTEPMA0GA1UECAwGSGVzc2VuMRQwEgYDVQQKDAtwcml2YWN5aWRlYTEe
MBwGA1UEAwwVcmVxdWVzdGVyLmxvY2FsZG9tYWluMIIBIjANBgkqhkiG9w0BAQEF
AAOCAQ8AMIIBCgKCAQEAzb4UT/rOAT9CIhsdnK/dktJ/22y3PjlDQ2sTA/EF9Ad0
vHZpKAuvGY7X/OPNxljyyn8IbVP8BwJEJMa0NEyMBP4zDkDiILoCc1r39U9jbszG
tt9UHTc5fVE2Jl+93D+oi2uirrad1iHn30G4eigqaEjKqC3t4elGXlpybbSEOIeR
/ZQRCyiExsIvKvsB+TZ6CXXRM4g8c0FbyL+UiXCh8MC5LlBTHrEXZGn0LYHgqQ0O
Mum6VYqF8RtvSXm0f4jDDT5UiJs9HziMBPPuamMr9cbbtIOqxHhBOn1L4cg+ccob
YVnqxsTKMl7J6b8SKebGw2P+oFXaevFgmE0m7fpwLQIDAQABo4IBDjCCAQowCwYD
VR0PBAQDAgWgMAkGA1UdEwQCMAAwEQYJYIZIAYb4QgEBBAQDAgZAMDMGCWCGSAGG
+EIBDQQmFiRPcGVuU1NMIEdlbmVyYXRlZCBTZXJ2ZXIgQ2VydGlmaWNhdGUwHQYD
VR0OBBYEFFM/7V0JB7Nle6tFySRbCXeACpbtMHQGA1UdIwRtMGuAFPSnwMyRRq9k
85HyJ/jIsm+KhzJzoUikRjBEMQswCQYDVQQGEwJERTEPMA0GA1UECAwGSGVzc2Vu
MRQwEgYDVQQKDAtwcml2YWN5aWRlYTEOMAwGA1UEAwwFQ0EwMDGCCQD7yOusg80S
BzATBgNVHSUEDDAKBggrBgEFBQcDATANBgkqhkiG9w0BAQUFAAOCAQEAXR8O3kNr
/o/xuoNHq2SRqDhVZFkn9ggN7y84qQ+gO59Jth3Y9/TwIfoot86aOBq2Qc9J0uaW
meQ09cKeaxDz7UxVu4hAgoZzkz1eeM8kHko/KuWlICOQ5qpRPX+PZYujj/GNDyOI
zLzG5UzjDV2B5U82ozdYNw7IifBtFktnBJv/bfIRQVhjTMpxnMx1vOlOY0E3m62R
jYMJq2gNDWnOsxLgG+jxmzhe9ITtxcRUJ9r5G6ZfANobbkl/2vS6sIODoe7OVcHL
1rvJ4jU51IRevHQuLX4s1Z6Lr0Cv8quso0SinHzY6HsHyVXSg+lIxy+PFFWhI/QS
CSD8vzDls0uyhA==
-----END CERTIFICATE-----
