Certificate:
    Data:
        Version: 3 (0x2)
        Serial Number: 268435668 (0x100000d4)
    Signature Algorithm: sha1WithRSAEncryption
        Issuer: C=DE, ST=Hessen, O=privacyidea, CN=CA001
        Validity
            Not Before: Apr 26 09:00:41 2016 GMT
            Not After : Apr 26 09:00:41 2017 GMT
        Subject: CN=root
        Subject Public Key Info:
            Public Key Algorithm: rsaEncryption
                Public-Key: (2048 bit)
                Modulus:
                    00:d0:9a:11:e9:bf:a4:a8:12:39:ee:7c:d3:94:48:
                    a9:5e:d6:c4:93:e3:6b:17:63:9a:ac:35:bd:59:f5:
                    ac:6e:92:67:23:6d:c8:00:6f:e9:39:c7:89:38:bb:
                    5c:22:2e:51:74:a4:35:c3:b8:ac:88:ba:15:bb:55:
                    aa:9c:a3:9f:2b:e8:e1:cd:a8:b1:2e:b7:d4:50:e5:
                    9b:74:6b:a3:06:c6:c7:d9:a6:ca:42:23:66:b8:46:
                    16:e8:2e:0e:79:e8:52:60:bc:13:8a:16:5e:83:93:
                    6f:ef:12:3d:90:51:82:25:cd:d1:c3:4c:17:4c:99:
                    f9:03:3d:3f:e9:15:07:50:91:45:e1:6f:2d:9f:55:
                    94:99:37:fe:67:d3:78:4f:5f:07:02:25:a4:c6:be:
                    28:bb:30:11:48:1f:20:37:c2:bf:e2:bc:f5:43:ac:
                    4c:28:b2:6c:5f:77:17:eb:6c:1d:71:44:d9:55:78:
                    eb:1a:87:4b:bf:13:ec:06:22:6c:0a:4f:43:50:46:
                    04:87:ea:5b:0a:e1:36:4f:83:af:7d:f5:ee:c2:69:
                    5c:1b:a9:b7:64:cc:3a:3c:43:46:74:68:60:6e:5e:
                    b7:49:6c:40:0f:2c:dc:2b:4e:c2:5e:6a:5d:fa:6f:
                    48:7a:2c:f8:f4:14:5e:3b:bc:0e:72:93:45:93:d1:
                    ab:b1
                Exponent: 65537 (0x10001)
        X509v3 extensions:
            X509v3 Key Usage: 
                Digital Signature, Key Encipherment
            X509v3 Basic Constraints: 
                CA:FALSE
            Netscape Cert Type: 
                SSL Server
            Netscape Comment: 
                OpenSSL Generated Server Certificate
            X509v3 Subject Key Identifier: 
                5B:5C:C2:B6:A0:01:BA:AB:70:F1:8F:C3:9F:B5:B9:51:19:A5:1F:93
            X509v3 Authority Key Identifier: 
                keyid:F4:A7:C0:CC:91:46:AF:64:F3:91:F2:27:F8:C8:B2:6F:8A:87:32:73
                DirName:/C=DE/ST=Hessen/O=privacyidea/CN=CA001
                serial:FB:C8:EB:AC:83:CD:12:07

            X509v3 Extended Key Usage: 
                TLS Web Server Authentication
    Signature Algorithm: sha1WithRSAEncryption
         90:cb:0f:a3:f6:a0:db:b4:1e:6c:55:48:52:98:3a:83:75:27:
         48:d1:f0:d6:7e:8e:25:02:78:8e:fd:0f:b8:f8:7e:be:bf:61:
         08:30:50:d1:61:33:a3:c4:ee:0d:f7:81:43:7b:dd:be:f7:4b:
         9a:91:50:10:e1:98:c1:81:b1:03:7e:43:ff:aa:a4:b1:c7:b7:
         7d:66:1a:5d:d7:e6:ac:cc:a7:6a:74:c3:b2:ab:da:7f:51:9e:
         18:e2:64:64:70:fb:54:0e:26:3a:7f:e5:0b:fd:45:fa:50:aa:
         54:73:09:8d:c5:eb:ef:43:d8:50:50:4c:94:13:66:21:97:9c:
         9f:03:87:14:d7:40:52:21:45:ca:c2:37:a7:aa:14:37:b0:72:
         2a:ae:b9:46:aa:7c:e4:ab:69:3d:89:f4:b4:40:d9:0d:1a:45:
         69:16:55:6c:60:a2:f0:e0:50:0f:d7:ec:df:ca:25:3b:b6:53:
         17:2d:fb:0b:46:43:74:42:37:1a:66:d5:d7:18:3c:fc:36:9a:
         8e:06:d6:01:6a:f2:cb:50:ad:c9:8c:df:42:39:be:ea:fc:6b:
         9f:ba:5d:17:51:88:81:b4:68:af:a2:ef:c0:4e:e0:d2:ef:98:
         e3:71:66:bf:29:47:d8:dc:18:9c:bc:8a:90:8a:66:73:a2:e3:
         08:d4:7d:52
-----BEGIN CERTIFICATE-----
MIID4TCCAsmgAwIBAgIEEAAA1DANBgkqhkiG9w0BAQUFADBEMQswCQYDVQQGEwJE
RTEPMA0GA1UECAwGSGVzc2VuMRQwEgYDVQQKDAtwcml2YWN5aWRlYTEOMAwGA1UE
AwwFQ0EwMDEwHhcNMTYwNDI2MDkwMDQxWhcNMTcwNDI2MDkwMDQxWjAPMQ0wCwYD
VQQDEwRyb290MIIBIjANBgkqhkiG9w0BAQEFAAOCAQ8AMIIBCgKCAQEA0JoR6b+k
qBI57nzTlEipXtbEk+NrF2OarDW9WfWsbpJnI23IAG/pOceJOLtcIi5RdKQ1w7is
iLoVu1WqnKOfK+jhzaixLrfUUOWbdGujBsbH2abKQiNmuEYW6C4OeehSYLwTihZe
g5Nv7xI9kFGCJc3Rw0wXTJn5Az0/6RUHUJFF4W8tn1WUmTf+Z9N4T18HAiWkxr4o
uzARSB8gN8K/4rz1Q6xMKLJsX3cX62wdcUTZVXjrGodLvxPsBiJsCk9DUEYEh+pb
CuE2T4OvffXuwmlcG6m3ZMw6PENGdGhgbl63SWxADyzcK07CXmpd+m9Ieiz49BRe
O7wOcpNFk9GrsQIDAQABo4IBDjCCAQowCwYDVR0PBAQDAgWgMAkGA1UdEwQCMAAw
EQYJYIZIAYb4QgEBBAQDAgZAMDMGCWCGSAGG+EIBDQQmFiRPcGVuU1NMIEdlbmVy
YXRlZCBTZXJ2ZXIgQ2VydGlmaWNhdGUwHQYDVR0OBBYEFFtcwragAbqrcPGPw5+1
uVEZpR+TMHQGA1UdIwRtMGuAFPSnwMyRRq9k85HyJ/jIsm+KhzJzoUikRjBEMQsw
CQYDVQQGEwJERTEPMA0GA1UECAwGSGVzc2VuMRQwEgYDVQQKDAtwcml2YWN5aWRl
YTEOMAwGA1UEAwwFQ0EwMDGCCQD7yOusg80SBzATBgNVHSUEDDAKBggrBgEFBQcD
ATANBgkqhkiG9w0BAQUFAAOCAQEAkMsPo/ag27QebFVIUpg6g3UnSNHw1n6OJQJ4
jv0PuPh+vr9hCDBQ0WEzo8TuDfeBQ3vdvvdLmpFQEOGYwYGxA35D/6qksce3fWYa
XdfmrMynanTDsqvaf1GeGOJkZHD7VA4mOn/lC/1F+lCqVHMJjcXr70PYUFBMlBNm
IZecnwOHFNdAUiFFysI3p6oUN7ByKq65Rqp85KtpPYn0tEDZDRpFaRZVbGCi8OBQ
D9fs38olO7ZTFy37C0ZDdEI3GmbV1xg8/DaajgbWAWryy1CtyYzfQjm+6vxrn7pd
F1GIgbRor6LvwE7g0u+Y43FmvylH2NwYnLyKkIpmc6LjCNR9Ug==
-----END CERTIFICATE-----
