Certificate:
    Data:
        Version: 3 (0x2)
        Serial Number: 268435661 (0x100000cd)
    Signature Algorithm: sha1WithRSAEncryption
        Issuer: C=DE, ST=Hessen, O=privacyidea, CN=CA001
        Validity
            Not Before: Apr 26 08:44:55 2016 GMT
            Not After : Apr 26 08:44:55 2017 GMT
        Subject: C=DE, ST=Hessen, O=privacyidea, CN=requester.localdomain
        Subject Public Key Info:
            Public Key Algorithm: rsaEncryption
                Public-Key: (2048 bit)
                Modulus:
                    00:cd:be:14:4f:fa:ce:01:3f:42:22:1b:1d:9c:af:
                    dd:92:d2:7f:db:6c:b7:3e:39:43:43:6b:13:03:f1:
                    05:f4:07:74:bc:76:69:28:0b:af:19:8e:d7:fc:e3:
                    cd:c6:58:f2:ca:7f:08:6d:53:fc:07:02:44:24:c6:
                    b4:34:4c:8c:04:fe:33:0e:40:e2:20:ba:02:73:5a:
                    f7:f5:4f:63:6e:cc:c6:b6:df:54:1d:37:39:7d:51:
                    36:26:5f:bd:dc:3f:a8:8b:6b:a2:ae:b6:9d:d6:21:
                    e7:df:41:b8:7a:28:2a:68:48:ca:a8:2d:ed:e1:e9:
                    46:5e:5a:72:6d:b4:84:38:87:91:fd:94:11:0b:28:
                    84:c6:c2:2f:2a:fb:01:f9:36:7a:09:75:d1:33:88:
                    3c:73:41:5b:c8:bf:94:89:70:a1:f0:c0:b9:2e:50:
                    53:1e:b1:17:64:69:f4:2d:81:e0:a9:0d:0e:32:e9:
                    ba:55:8a:85:f1:1b:6f:49:79:b4:7f:88:c3:0d:3e:
                    54:88:9b:3d:1f:38:8c:04:f3:ee:6a:63:2b:f5:c6:
                    db:b4:83:aa:c4:78:41:3a:7d:4b:e1:c8:3e:71:ca:
                    1b:61:59:ea:c6:c4:ca:32:5e:c9:e9:bf:12:29:e6:
                    c6:c3:63:fe:a0:55:da:7a:f1:60:98:4d:26:ed:fa:
                    70:2d
                Exponent: 65537 (0x10001)
        X509v3 extensions:
            X509v3 Key Usage: 
                Digital Signature, Key Encipherment
            X509v3 Basic Constraints: 
                CA:FALSE
            Netscape Cert Type: 
                SSL Server
            Netscape Comment: 
                OpenSSL Generated Server Certificate
            X509v3 Subject Key Identifier: 
                53:3F:ED:5D:09:07:B3:65:7B:AB:45:C9:24:5B:09:77:80:0A:96:ED
            X509v3 Authority Key Identifier: 
                keyid:F4:A7:C0:CC:91:46:AF:64:F3:91:F2:27:F8:C8:B2:6F:8A:87:32:73
                DirName:/C=DE/ST=Hessen/O=privacyidea/CN=CA001
                serial:FB:C8:EB:AC:83:CD:12:07

            X509v3 Extended Key Usage: 
                TLS Web Server Authentication
    Signature Algorithm: sha1WithRSAEncryption
         9a:7c:9b:35:94:e7:69:50:1a:4e:83:09:55:cf:a0:e9:59:15:
         d6:d4:da:09:1a:19:d8:f6:91:f8:88:02:81:ef:57:28:4c:65:
         d1:01:3f:05:d5:88:b4:94:cc:d9:6b:f0:4d:c2:e1:08:29:d0:
         72:7e:fa:f0:ff:c1:50:26:d2:dd:7d:33:87:0a:a7:5e:0d:4a:
         bb:9b:b7:42:3b:58:2e:9f:b1:f4:63:41:a8:18:d3:d4:8d:d5:
         53:92:e1:cf:7e:b4:44:e2:67:a0:da:61:66:98:58:78:4a:47:
         a9:51:25:b0:e2:a5:43:68:a7:4b:eb:e7:fd:74:e9:ad:2b:2f:
         20:9e:65:56:34:fa:a3:1b:f8:88:bf:7d:fa:9d:bb:dd:2c:3f:
         84:78:b3:a9:e6:1f:80:ef:b7:09:8a:4a:8a:21:12:ff:8d:a0:
         cb:47:35:04:d3:f9:ca:6a:55:5c:e4:53:4e:ea:3b:7c:60:78:
         d1:6d:66:38:bd:76:51:1c:13:99:c2:1b:88:71:3f:34:ee:6c:
         ea:0e:87:0b:a7:0a:c3:7b:f1:79:e8:67:ea:d2:89:c3:21:e8:
         ed:de:5a:34:77:7b:0f:af:a6:82:f6:8d:03:10:fa:9a:e9:56:
         4d:6a:b2:0e:81:2e:5f:25:82:65:25:d6:67:ec:27:f6:cb:4a:
         5e:0f:d1:f5
-----BEGIN CERTIFICATE-----
MIIEJjCCAw6gAwIBAgIEEAAAzTANBgkqhkiG9w0BAQUFADBEMQswCQYDVQQGEwJE
RTEPMA0GA1UECAwGSGVzc2VuMRQwEgYDVQQKDAtwcml2YWN5aWRlYTEOMAwGA1UE
AwwFQ0EwMDEwHhcNMTYwNDI2MDg0NDU1WhcNMTcwNDI2MDg0NDU1WjBUMQswCQYD
VQQGEwJERTEPMA0GA1UECAwGSGVzc2VuMRQwEgYDVQQKDAtwcml2YWN5aWRlYTEe
MBwGA1UEAwwVcmVxdWVzdGVyLmxvY2FsZG9tYWluMIIBIjANBgkqhkiG9w0BAQEF
AAOCAQ8AMIIBCgKCAQEAzb4UT/rOAT9CIhsdnK/dktJ/22y3PjlDQ2sTA/EF9Ad0
vHZpKAuvGY7X/OPNxljyyn8IbVP8BwJEJMa0NEyMBP4zDkDiILoCc1r39U9jbszG
tt9UHTc5fVE2Jl+93D+oi2uirrad1iHn30G4eigqaEjKqC3t4elGXlpybbSEOIeR
/ZQRCyiExsIvKvsB+TZ6CXXRM4g8c0FbyL+UiXCh8MC5LlBTHrEXZGn0LYHgqQ0O
Mum6VYqF8RtvSXm0f4jDDT5UiJs9HziMBPPuamMr9cbbtIOqxHhBOn1L4cg+ccob
YVnqxsTKMl7J6b8SKebGw2P+oFXaevFgmE0m7fpwLQIDAQABo4IBDjCCAQowCwYD
VR0PBAQDAgWgMAkGA1UdEwQCMAAwEQYJYIZIAYb4QgEBBAQDAgZAMDMGCWCGSAGG
+EIBDQQmFiRPcGVuU1NMIEdlbmVyYXRlZCBTZXJ2ZXIgQ2VydGlmaWNhdGUwHQYD
VR0OBBYEFFM/7V0JB7Nle6tFySRbCXeACpbtMHQGA1UdIwRtMGuAFPSnwMyRRq9k
85HyJ/jIsm+KhzJzoUikRjBEMQswCQYDVQQGEwJERTEPMA0GA1UECAwGSGVzc2Vu
MRQwEgYDVQQKDAtwcml2YWN5aWRlYTEOMAwGA1UEAwwFQ0EwMDGCCQD7yOusg80S
BzATBgNVHSUEDDAKBggrBgEFBQcDATANBgkqhkiG9w0BAQUFAAOCAQEAmnybNZTn
aVAaToMJVc+g6VkV1tTaCRoZ2PaR+IgCge9XKExl0QE/BdWItJTM2WvwTcLhCCnQ
cn768P/BUCbS3X0zhwqnXg1Ku5u3QjtYLp+x9GNBqBjT1I3VU5Lhz360ROJnoNph
ZphYeEpHqVElsOKlQ2inS+vn/XTprSsvIJ5lVjT6oxv4iL99+p273Sw/hHizqeYf
gO+3CYpKiiES/42gy0c1BNP5ympVXORTTuo7fGB40W1mOL12URwTmcIbiHE/NO5s
6g6HC6cKw3vxeehn6tKJwyHo7d5aNHd7D6+mgvaNAxD6mulWTWqyDoEuXyWCZSXW
Z+wn9stKXg/R9Q==
-----END CERTIFICATE-----
