Certificate:
    Data:
        Version: 3 (0x2)
        Serial Number: 268435655 (0x100000c7)
    Signature Algorithm: sha1WithRSAEncryption
        Issuer: C=DE, ST=Hessen, O=privacyidea, CN=CA001
        Validity
            Not Before: Apr 18 16:34:44 2016 GMT
            Not After : Apr 18 16:34:44 2017 GMT
        Subject: C=DE, ST=Hessen, O=privacyidea, CN=requester.localdomain
        Subject Public Key Info:
            Public Key Algorithm: rsaEncryption
                Public-Key: (2048 bit)
                Modulus:
                    00:cd:be:14:4f:fa:ce:01:3f:42:22:1b:1d:9c:af:
                    dd:92:d2:7f:db:6c:b7:3e:39:43:43:6b:13:03:f1:
                    05:f4:07:74:bc:76:69:28:0b:af:19:8e:d7:fc:e3:
                    cd:c6:58:f2:ca:7f:08:6d:53:fc:07:02:44:24:c6:
                    b4:34:4c:8c:04:fe:33:0e:40:e2:20:ba:02:73:5a:
                    f7:f5:4f:63:6e:cc:c6:b6:df:54:1d:37:39:7d:51:
                    36:26:5f:bd:dc:3f:a8:8b:6b:a2:ae:b6:9d:d6:21:
                    e7:df:41:b8:7a:28:2a:68:48:ca:a8:2d:ed:e1:e9:
                    46:5e:5a:72:6d:b4:84:38:87:91:fd:94:11:0b:28:
                    84:c6:c2:2f:2a:fb:01:f9:36:7a:09:75:d1:33:88:
                    3c:73:41:5b:c8:bf:94:89:70:a1:f0:c0:b9:2e:50:
                    53:1e:b1:17:64:69:f4:2d:81:e0:a9:0d:0e:32:e9:
                    ba:55:8a:85:f1:1b:6f:49:79:b4:7f:88:c3:0d:3e:
                    54:88:9b:3d:1f:38:8c:04:f3:ee:6a:63:2b:f5:c6:
                    db:b4:83:aa:c4:78:41:3a:7d:4b:e1:c8:3e:71:ca:
                    1b:61:59:ea:c6:c4:ca:32:5e:c9:e9:bf:12:29:e6:
                    c6:c3:63:fe:a0:55:da:7a:f1:60:98:4d:26:ed:fa:
                    70:2d
                Exponent: 65537 (0x10001)
        X509v3 extensions:
            X509v3 Key Usage: 
                Digital Signature, Key Encipherment
            X509v3 Basic Constraints: 
                CA:FALSE
            Netscape Cert Type: 
                SSL Server
            Netscape Comment: 
                OpenSSL Generated Server Certificate
            X509v3 Subject Key Identifier: 
                53:3F:ED:5D:09:07:B3:65:7B:AB:45:C9:24:5B:09:77:80:0A:96:ED
            X509v3 Authority Key Identifier: 
                keyid:F4:A7:C0:CC:91:46:AF:64:F3:91:F2:27:F8:C8:B2:6F:8A:87:32:73
                DirName:/C=DE/ST=Hessen/O=privacyidea/CN=CA001
                serial:FB:C8:EB:AC:83:CD:12:07

            X509v3 Extended Key Usage: 
                TLS Web Server Authentication
    Signature Algorithm: sha1WithRSAEncryption
         1c:18:b0:e4:b2:7c:e9:91:5a:dd:15:b7:cf:03:65:26:d5:40:
         cd:4c:e5:bd:f2:82:4f:47:0f:67:bf:d9:7f:1e:99:37:18:fa:
         65:31:bf:64:8e:45:87:14:e7:e1:88:57:af:7c:d8:eb:46:9f:
         5f:45:8f:80:b1:01:65:77:99:1c:66:c7:e5:08:55:e0:fd:5d:
         44:1f:96:1a:9b:1f:b2:73:6d:c2:ac:aa:b2:69:c4:43:47:d1:
         a4:f2:6d:0a:4e:e5:98:9d:38:af:ac:75:d8:6c:34:fc:cf:af:
         be:80:e6:db:89:6b:db:87:dc:6d:f8:1e:22:5f:2c:0c:5b:62:
         5a:03:8f:a6:f4:1c:4a:c1:4d:5c:6c:fb:ba:59:da:dd:60:9d:
         b7:c0:ba:92:0e:c3:27:b3:79:1b:65:a3:ac:d9:ee:ce:3e:4a:
         b3:c7:6e:09:55:1f:2b:8e:ba:ce:22:2a:1a:26:17:6a:4c:f4:
         02:89:4a:6b:4b:99:25:24:f8:b3:4f:90:13:d4:31:cd:03:82:
         9d:ce:98:07:90:dd:f2:8a:01:66:04:06:ce:39:c5:04:2e:49:
         d4:5d:59:b5:1d:cd:19:6c:fc:41:4a:7d:9b:eb:a7:29:2f:93:
         3d:e3:9c:02:c3:de:22:17:6d:f5:8d:1b:26:82:1a:f3:6d:d9:
         8a:d9:3e:49
-----BEGIN CERTIFICATE-----
MIIEJjCCAw6gAwIBAgIEEAAAxzANBgkqhkiG9w0BAQUFADBEMQswCQYDVQQGEwJE
RTEPMA0GA1UECAwGSGVzc2VuMRQwEgYDVQQKDAtwcml2YWN5aWRlYTEOMAwGA1UE
AwwFQ0EwMDEwHhcNMTYwNDE4MTYzNDQ0WhcNMTcwNDE4MTYzNDQ0WjBUMQswCQYD
VQQGEwJERTEPMA0GA1UECAwGSGVzc2VuMRQwEgYDVQQKDAtwcml2YWN5aWRlYTEe
MBwGA1UEAwwVcmVxdWVzdGVyLmxvY2FsZG9tYWluMIIBIjANBgkqhkiG9w0BAQEF
AAOCAQ8AMIIBCgKCAQEAzb4UT/rOAT9CIhsdnK/dktJ/22y3PjlDQ2sTA/EF9Ad0
vHZpKAuvGY7X/OPNxljyyn8IbVP8BwJEJMa0NEyMBP4zDkDiILoCc1r39U9jbszG
tt9UHTc5fVE2Jl+93D+oi2uirrad1iHn30G4eigqaEjKqC3t4elGXlpybbSEOIeR
/ZQRCyiExsIvKvsB+TZ6CXXRM4g8c0FbyL+UiXCh8MC5LlBTHrEXZGn0LYHgqQ0O
Mum6VYqF8RtvSXm0f4jDDT5UiJs9HziMBPPuamMr9cbbtIOqxHhBOn1L4cg+ccob
YVnqxsTKMl7J6b8SKebGw2P+oFXaevFgmE0m7fpwLQIDAQABo4IBDjCCAQowCwYD
VR0PBAQDAgWgMAkGA1UdEwQCMAAwEQYJYIZIAYb4QgEBBAQDAgZAMDMGCWCGSAGG
+EIBDQQmFiRPcGVuU1NMIEdlbmVyYXRlZCBTZXJ2ZXIgQ2VydGlmaWNhdGUwHQYD
VR0OBBYEFFM/7V0JB7Nle6tFySRbCXeACpbtMHQGA1UdIwRtMGuAFPSnwMyRRq9k
85HyJ/jIsm+KhzJzoUikRjBEMQswCQYDVQQGEwJERTEPMA0GA1UECAwGSGVzc2Vu
MRQwEgYDVQQKDAtwcml2YWN5aWRlYTEOMAwGA1UEAwwFQ0EwMDGCCQD7yOusg80S
BzATBgNVHSUEDDAKBggrBgEFBQcDATANBgkqhkiG9w0BAQUFAAOCAQEAHBiw5LJ8
6ZFa3RW3zwNlJtVAzUzlvfKCT0cPZ7/Zfx6ZNxj6ZTG/ZI5FhxTn4YhXr3zY60af
X0WPgLEBZXeZHGbH5QhV4P1dRB+WGpsfsnNtwqyqsmnEQ0fRpPJtCk7lmJ04r6x1
2Gw0/M+vvoDm24lr24fcbfgeIl8sDFtiWgOPpvQcSsFNXGz7ulna3WCdt8C6kg7D
J7N5G2WjrNnuzj5Ks8duCVUfK466ziIqGiYXakz0AolKa0uZJST4s0+QE9QxzQOC
nc6YB5Dd8ooBZgQGzjnFBC5J1F1ZtR3NGWz8QUp9m+unKS+TPeOcAsPeIhdt9Y0b
JoIa823Zitk+SQ==
-----END CERTIFICATE-----
