Certificate:
    Data:
        Version: 3 (0x2)
        Serial Number: 268435658 (0x100000ca)
    Signature Algorithm: sha1WithRSAEncryption
        Issuer: C=DE, ST=Hessen, O=privacyidea, CN=CA001
        Validity
            Not Before: Apr 26 08:26:38 2016 GMT
            Not After : Apr 26 08:26:38 2017 GMT
        Subject: C=DE, ST=Hessen, O=privacyidea, CN=requester.localdomain
        Subject Public Key Info:
            Public Key Algorithm: rsaEncryption
                Public-Key: (2048 bit)
                Modulus:
                    00:cd:be:14:4f:fa:ce:01:3f:42:22:1b:1d:9c:af:
                    dd:92:d2:7f:db:6c:b7:3e:39:43:43:6b:13:03:f1:
                    05:f4:07:74:bc:76:69:28:0b:af:19:8e:d7:fc:e3:
                    cd:c6:58:f2:ca:7f:08:6d:53:fc:07:02:44:24:c6:
                    b4:34:4c:8c:04:fe:33:0e:40:e2:20:ba:02:73:5a:
                    f7:f5:4f:63:6e:cc:c6:b6:df:54:1d:37:39:7d:51:
                    36:26:5f:bd:dc:3f:a8:8b:6b:a2:ae:b6:9d:d6:21:
                    e7:df:41:b8:7a:28:2a:68:48:ca:a8:2d:ed:e1:e9:
                    46:5e:5a:72:6d:b4:84:38:87:91:fd:94:11:0b:28:
                    84:c6:c2:2f:2a:fb:01:f9:36:7a:09:75:d1:33:88:
                    3c:73:41:5b:c8:bf:94:89:70:a1:f0:c0:b9:2e:50:
                    53:1e:b1:17:64:69:f4:2d:81:e0:a9:0d:0e:32:e9:
                    ba:55:8a:85:f1:1b:6f:49:79:b4:7f:88:c3:0d:3e:
                    54:88:9b:3d:1f:38:8c:04:f3:ee:6a:63:2b:f5:c6:
                    db:b4:83:aa:c4:78:41:3a:7d:4b:e1:c8:3e:71:ca:
                    1b:61:59:ea:c6:c4:ca:32:5e:c9:e9:bf:12:29:e6:
                    c6:c3:63:fe:a0:55:da:7a:f1:60:98:4d:26:ed:fa:
                    70:2d
                Exponent: 65537 (0x10001)
        X509v3 extensions:
            X509v3 Key Usage: 
                Digital Signature, Key Encipherment
            X509v3 Basic Constraints: 
                CA:FALSE
            Netscape Cert Type: 
                SSL Server
            Netscape Comment: 
                OpenSSL Generated Server Certificate
            X509v3 Subject Key Identifier: 
                53:3F:ED:5D:09:07:B3:65:7B:AB:45:C9:24:5B:09:77:80:0A:96:ED
            X509v3 Authority Key Identifier: 
                keyid:F4:A7:C0:CC:91:46:AF:64:F3:91:F2:27:F8:C8:B2:6F:8A:87:32:73
                DirName:/C=DE/ST=Hessen/O=privacyidea/CN=CA001
                serial:FB:C8:EB:AC:83:CD:12:07

            X509v3 Extended Key Usage: 
                TLS Web Server Authentication
    Signature Algorithm: sha1WithRSAEncryption
         6a:17:97:31:24:56:0c:14:b5:85:39:dd:7d:2f:3b:d0:9d:57:
         df:0e:c6:eb:fb:04:32:11:e1:ca:59:c4:fd:b0:8e:94:92:38:
         63:08:3c:9e:01:a6:61:ed:10:c2:ec:f4:0b:6a:23:f0:71:4e:
         72:bb:54:91:77:3e:94:52:ca:7f:45:f4:eb:c2:17:fc:7f:39:
         ca:64:77:3d:b4:de:ea:82:0d:48:62:3e:29:72:bd:6b:5d:f8:
         90:40:7b:aa:dd:82:ca:91:67:62:4c:85:8d:46:78:ec:a3:59:
         d1:4e:bb:a3:1b:17:5f:fa:cc:22:11:c0:87:d5:50:84:a2:8e:
         84:88:31:07:0e:5f:4e:f8:b5:29:36:7f:6c:17:56:06:19:09:
         41:04:0c:d3:c0:81:5e:9e:cb:c0:21:92:4d:e3:53:65:0b:6a:
         31:f7:6f:2c:29:f1:b9:89:28:d4:39:14:56:c7:7f:62:ae:b9:
         67:9b:d7:82:92:d8:2a:56:00:03:a1:81:58:e7:63:fe:6d:d3:
         0e:1b:8a:72:3b:4e:a5:ce:e2:66:b7:30:00:fe:84:08:d8:a7:
         cd:43:3f:64:54:f1:0e:3e:65:ca:84:05:0c:b6:9c:1f:da:40:
         7f:c1:8c:34:d1:ef:3d:92:ec:1f:59:2c:9d:62:6d:c9:2c:6b:
         a0:39:ca:29
-----BEGIN CERTIFICATE-----
MIIEJjCCAw6gAwIBAgIEEAAAyjANBgkqhkiG9w0BAQUFADBEMQswCQYDVQQGEwJE
RTEPMA0GA1UECAwGSGVzc2VuMRQwEgYDVQQKDAtwcml2YWN5aWRlYTEOMAwGA1UE
AwwFQ0EwMDEwHhcNMTYwNDI2MDgyNjM4WhcNMTcwNDI2MDgyNjM4WjBUMQswCQYD
VQQGEwJERTEPMA0GA1UECAwGSGVzc2VuMRQwEgYDVQQKDAtwcml2YWN5aWRlYTEe
MBwGA1UEAwwVcmVxdWVzdGVyLmxvY2FsZG9tYWluMIIBIjANBgkqhkiG9w0BAQEF
AAOCAQ8AMIIBCgKCAQEAzb4UT/rOAT9CIhsdnK/dktJ/22y3PjlDQ2sTA/EF9Ad0
vHZpKAuvGY7X/OPNxljyyn8IbVP8BwJEJMa0NEyMBP4zDkDiILoCc1r39U9jbszG
tt9UHTc5fVE2Jl+93D+oi2uirrad1iHn30G4eigqaEjKqC3t4elGXlpybbSEOIeR
/ZQRCyiExsIvKvsB+TZ6CXXRM4g8c0FbyL+UiXCh8MC5LlBTHrEXZGn0LYHgqQ0O
Mum6VYqF8RtvSXm0f4jDDT5UiJs9HziMBPPuamMr9cbbtIOqxHhBOn1L4cg+ccob
YVnqxsTKMl7J6b8SKebGw2P+oFXaevFgmE0m7fpwLQIDAQABo4IBDjCCAQowCwYD
VR0PBAQDAgWgMAkGA1UdEwQCMAAwEQYJYIZIAYb4QgEBBAQDAgZAMDMGCWCGSAGG
+EIBDQQmFiRPcGVuU1NMIEdlbmVyYXRlZCBTZXJ2ZXIgQ2VydGlmaWNhdGUwHQYD
VR0OBBYEFFM/7V0JB7Nle6tFySRbCXeACpbtMHQGA1UdIwRtMGuAFPSnwMyRRq9k
85HyJ/jIsm+KhzJzoUikRjBEMQswCQYDVQQGEwJERTEPMA0GA1UECAwGSGVzc2Vu
MRQwEgYDVQQKDAtwcml2YWN5aWRlYTEOMAwGA1UEAwwFQ0EwMDGCCQD7yOusg80S
BzATBgNVHSUEDDAKBggrBgEFBQcDATANBgkqhkiG9w0BAQUFAAOCAQEAaheXMSRW
DBS1hTndfS870J1X3w7G6/sEMhHhylnE/bCOlJI4Ywg8ngGmYe0Qwuz0C2oj8HFO
crtUkXc+lFLKf0X068IX/H85ymR3PbTe6oINSGI+KXK9a134kEB7qt2CypFnYkyF
jUZ47KNZ0U67oxsXX/rMIhHAh9VQhKKOhIgxBw5fTvi1KTZ/bBdWBhkJQQQM08CB
Xp7LwCGSTeNTZQtqMfdvLCnxuYko1DkUVsd/Yq65Z5vXgpLYKlYAA6GBWOdj/m3T
DhuKcjtOpc7iZrcwAP6ECNinzUM/ZFTxDj5lyoQFDLacH9pAf8GMNNHvPZLsH1ks
nWJtySxroDnKKQ==
-----END CERTIFICATE-----
