Certificate:
    Data:
        Version: 3 (0x2)
        Serial Number: 268435659 (0x100000cb)
    Signature Algorithm: sha1WithRSAEncryption
        Issuer: C=DE, ST=Hessen, O=privacyidea, CN=CA001
        Validity
            Not Before: Apr 21 14:04:48 2016 GMT
            Not After : Apr 21 14:04:48 2017 GMT
        Subject: C=DE, ST=Hessen, O=privacyidea, CN=usercert
        Subject Public Key Info:
            Public Key Algorithm: rsaEncryption
                Public-Key: (2048 bit)
                Modulus:
                    00:dc:2f:d1:5f:29:97:d4:7c:c3:53:c8:30:bd:4b:
                    67:70:2c:24:6b:b8:5e:eb:21:7a:48:12:56:7c:81:
                    5c:48:75:b6:68:eb:f6:f2:98:4e:50:51:d1:7f:6c:
                    73:f3:0a:a7:ae:be:48:5e:e5:d6:e1:d9:2a:7c:32:
                    6e:4e:fd:08:f6:5a:54:49:23:73:c3:b9:07:18:d1:
                    ef:b3:ac:f8:8a:dc:94:96:a4:90:3a:8e:74:df:e6:
                    0d:37:1b:bd:5b:b7:25:1a:56:39:da:6f:91:aa:5e:
                    1c:74:f3:f9:7c:14:01:83:12:65:76:c7:bb:fe:36:
                    5b:95:e9:72:65:83:ed:3e:98:30:71:fa:87:dd:a3:
                    36:5a:30:03:2e:26:e0:61:d1:bf:02:3f:b6:06:1f:
                    4a:89:28:1c:5c:a2:ff:4e:be:94:e6:8c:e0:da:82:
                    f1:9d:29:32:48:30:73:b4:04:f6:42:1e:be:f7:e2:
                    32:32:27:3c:9d:89:2f:70:3e:85:9a:6f:5c:c5:09:
                    c0:8c:32:2f:72:22:c9:d2:95:1f:b6:ac:72:60:72:
                    b7:82:4d:6b:ce:5b:e3:00:d0:d2:2f:58:c6:e0:10:
                    e5:51:ca:4d:3b:2e:e6:7e:ab:84:d6:56:f1:93:35:
                    a0:93:64:26:81:75:2f:91:b5:16:06:38:0b:db:cc:
                    2d:07
                Exponent: 65537 (0x10001)
        X509v3 extensions:
            X509v3 Key Usage: 
                Digital Signature, Key Encipherment
            X509v3 Basic Constraints: 
                CA:FALSE
            Netscape Cert Type: 
                SSL Server
            Netscape Comment: 
                OpenSSL Generated Server Certificate
            X509v3 Subject Key Identifier: 
                FC:14:D1:F0:4B:8D:00:90:F2:F5:B8:71:9E:4E:97:C3:92:54:AD:0B
            X509v3 Authority Key Identifier: 
                keyid:F4:A7:C0:CC:91:46:AF:64:F3:91:F2:27:F8:C8:B2:6F:8A:87:32:73
                DirName:/C=DE/ST=Hessen/O=privacyidea/CN=CA001
                serial:FB:C8:EB:AC:83:CD:12:07

            X509v3 Extended Key Usage: 
                TLS Web Server Authentication
    Signature Algorithm: sha1WithRSAEncryption
         78:be:d9:7c:27:0c:5e:b1:53:34:03:65:2c:97:44:1d:7a:58:
         aa:06:2b:40:b9:70:58:36:bf:87:49:f1:50:e1:fd:d2:fa:c1:
         49:64:28:cf:b9:3b:2f:f4:5a:70:c7:5a:88:e9:55:36:61:b6:
         88:80:29:a5:9e:9e:f9:7d:b2:25:20:12:7c:57:1e:a9:d3:9e:
         f4:98:5b:c3:a5:f2:85:75:55:75:b0:ab:a7:68:2d:42:f9:31:
         48:ad:0a:9a:52:3f:84:e3:b9:d9:bb:79:2b:22:1b:34:98:29:
         86:1b:f9:9c:49:3e:f7:1a:8e:73:d7:23:79:dc:df:b5:4f:4f:
         1c:3a:a8:94:e9:4f:85:d6:87:d6:cb:d4:58:cf:aa:c3:3b:87:
         13:2d:7f:31:2a:71:28:d4:96:33:3a:0b:6b:ab:d4:0c:ed:da:
         c4:81:79:d1:3b:f7:b0:f1:1e:93:0b:cf:ed:e0:34:2b:2d:b3:
         a0:0d:9b:af:39:f2:e7:6e:6b:ae:65:bb:4e:1c:55:03:86:8a:
         f9:fb:71:7b:e2:00:ff:2c:87:59:4e:f4:f2:4a:6a:b0:ce:c3:
         17:4c:ac:a6:4c:9a:be:27:68:42:0d:6c:58:bd:25:00:e0:10:
         81:d5:c0:9f:4b:70:c5:2b:c3:63:0a:15:b3:bf:65:dd:0a:53:
         fe:a4:89:8c
-----BEGIN CERTIFICATE-----
MIIEGTCCAwGgAwIBAgIEEAAAyzANBgkqhkiG9w0BAQUFADBEMQswCQYDVQQGEwJE
RTEPMA0GA1UECAwGSGVzc2VuMRQwEgYDVQQKDAtwcml2YWN5aWRlYTEOMAwGA1UE
AwwFQ0EwMDEwHhcNMTYwNDIxMTQwNDQ4WhcNMTcwNDIxMTQwNDQ4WjBHMQswCQYD
VQQGEwJERTEPMA0GA1UECAwGSGVzc2VuMRQwEgYDVQQKDAtwcml2YWN5aWRlYTER
MA8GA1UEAwwIdXNlcmNlcnQwggEiMA0GCSqGSIb3DQEBAQUAA4IBDwAwggEKAoIB
AQDcL9FfKZfUfMNTyDC9S2dwLCRruF7rIXpIElZ8gVxIdbZo6/bymE5QUdF/bHPz
Cqeuvkhe5dbh2Sp8Mm5O/Qj2WlRJI3PDuQcY0e+zrPiK3JSWpJA6jnTf5g03G71b
tyUaVjnab5GqXhx08/l8FAGDEmV2x7v+NluV6XJlg+0+mDBx+ofdozZaMAMuJuBh
0b8CP7YGH0qJKBxcov9OvpTmjODagvGdKTJIMHO0BPZCHr734jIyJzydiS9wPoWa
b1zFCcCMMi9yIsnSlR+2rHJgcreCTWvOW+MA0NIvWMbgEOVRyk07LuZ+q4TWVvGT
NaCTZCaBdS+RtRYGOAvbzC0HAgMBAAGjggEOMIIBCjALBgNVHQ8EBAMCBaAwCQYD
VR0TBAIwADARBglghkgBhvhCAQEEBAMCBkAwMwYJYIZIAYb4QgENBCYWJE9wZW5T
U0wgR2VuZXJhdGVkIFNlcnZlciBDZXJ0aWZpY2F0ZTAdBgNVHQ4EFgQU/BTR8EuN
AJDy9bhxnk6Xw5JUrQswdAYDVR0jBG0wa4AU9KfAzJFGr2TzkfIn+Miyb4qHMnOh
SKRGMEQxCzAJBgNVBAYTAkRFMQ8wDQYDVQQIDAZIZXNzZW4xFDASBgNVBAoMC3By
aXZhY3lpZGVhMQ4wDAYDVQQDDAVDQTAwMYIJAPvI66yDzRIHMBMGA1UdJQQMMAoG
CCsGAQUFBwMBMA0GCSqGSIb3DQEBBQUAA4IBAQB4vtl8JwxesVM0A2Usl0Qdeliq
BitAuXBYNr+HSfFQ4f3S+sFJZCjPuTsv9Fpwx1qI6VU2YbaIgCmlnp75fbIlIBJ8
Vx6p0570mFvDpfKFdVV1sKunaC1C+TFIrQqaUj+E47nZu3krIhs0mCmGG/mcST73
Go5z1yN53N+1T08cOqiU6U+F1ofWy9RYz6rDO4cTLX8xKnEo1JYzOgtrq9QM7drE
gXnRO/ew8R6TC8/t4DQrLbOgDZuvOfLnbmuuZbtOHFUDhor5+3F74gD/LIdZTvTy
SmqwzsMXTKymTJq+J2hCDWxYvSUA4BCB1cCfS3DFK8NjChWzv2XdClP+pImM
-----END CERTIFICATE-----
