Certificate:
    Data:
        Version: 3 (0x2)
        Serial Number: 268435676 (0x100000dc)
    Signature Algorithm: sha1WithRSAEncryption
        Issuer: C=DE, ST=Hessen, O=privacyidea, CN=CA001
        Validity
            Not Before: Apr 11 10:05:55 2016 GMT
            Not After : Apr 11 10:05:55 2017 GMT
        Subject: CN=Steve Test/emailAddress=steve@openssl.org
        Subject Public Key Info:
            Public Key Algorithm: rsaEncryption
                Public-Key: (2048 bit)
                Modulus:
                    00:d2:81:89:20:51:48:0f:73:f4:11:32:24:d5:1f:
                    1c:fd:5c:f5:b6:e6:c5:f0:52:81:dc:d2:af:66:4a:
                    7c:93:31:61:5c:af:d1:6d:06:70:03:60:7c:72:0c:
                    88:dd:49:cd:9e:02:6c:d2:5a:d7:53:0f:f3:da:be:
                    69:64:b5:0f:0c:00:e3:b3:50:47:a3:b3:9b:ba:13:
                    50:d6:58:5a:4b:ab:39:e0:11:ca:0a:27:67:03:78:
                    22:66:6d:92:1e:1b:5c:49:ae:e6:6b:d1:8e:3b:9d:
                    06:d3:c6:ac:4d:53:43:10:ab:e8:96:c1:87:82:97:
                    99:8f:20:d3:99:12:37:31:84:e1:8a:ff:29:03:5f:
                    22:90:3e:7f:9b:e0:20:c1:ad:dc:ae:4c:39:1a:31:
                    96:17:02:8c:b2:d9:b4:0d:20:12:9b:7d:86:54:fd:
                    33:fd:c1:2a:62:46:f8:60:96:cf:6e:01:6f:22:df:
                    13:47:e7:97:ec:05:72:23:a3:62:f8:fa:ef:ac:9c:
                    72:f0:37:cb:2f:37:cf:90:a8:27:51:86:c6:d7:78:
                    08:8f:7e:25:a2:15:70:a2:fb:1c:b6:15:5e:a0:97:
                    8b:81:4c:09:28:8a:27:3b:94:bc:71:db:5b:71:37:
                    9a:2b:16:e0:6f:b5:c9:f5:4b:4f:20:ba:65:cf:af:
                    ad:ad
                Exponent: 65537 (0x10001)
        X509v3 extensions:
            X509v3 Key Usage: 
                Digital Signature, Key Encipherment
            X509v3 Basic Constraints: 
                CA:FALSE
            Netscape Cert Type: 
                SSL Server
            Netscape Comment: 
                OpenSSL Generated Server Certificate
            X509v3 Subject Key Identifier: 
                E5:25:6D:3E:AF:0D:DD:3F:4C:F2:45:19:39:D5:14:DB:7E:9C:C0:AD
            X509v3 Authority Key Identifier: 
                keyid:F4:A7:C0:CC:91:46:AF:64:F3:91:F2:27:F8:C8:B2:6F:8A:87:32:73
                DirName:/C=DE/ST=Hessen/O=privacyidea/CN=CA001
                serial:FB:C8:EB:AC:83:CD:12:07

            X509v3 Extended Key Usage: 
                TLS Web Server Authentication
    Signature Algorithm: sha1WithRSAEncryption
         98:c2:74:f9:a7:b8:33:da:3a:b3:4d:c0:05:c0:74:f3:54:8c:
         3f:28:4b:6d:85:94:f1:f3:88:7b:40:b9:b9:36:dd:55:23:4e:
         06:3e:4d:41:35:61:45:4e:46:59:2f:8d:e0:3e:1b:18:28:84:
         98:bf:88:d0:72:13:97:bf:82:5d:4c:b2:ba:59:c9:8c:e1:db:
         da:06:fa:60:8a:de:c9:3e:bf:3d:aa:f5:9d:84:02:07:4b:23:
         a1:95:75:18:46:06:70:f4:1a:b1:02:98:ea:49:aa:2a:07:c4:
         1d:00:4e:a3:8d:00:ba:49:b0:ca:14:39:1a:b4:f9:17:16:be:
         83:ad:c1:dc:6a:c5:97:2a:5c:c7:2d:75:87:48:36:d6:25:22:
         c1:56:a6:86:38:e2:54:ee:61:aa:cf:ae:04:f2:64:01:94:a4:
         7b:a4:ee:ec:9f:01:87:1a:74:a5:d2:63:e7:e0:3b:34:ca:a9:
         52:e0:3a:a2:d0:37:81:63:c0:39:12:d2:7d:97:29:1b:1e:c8:
         cc:9b:87:d5:39:f3:48:38:9b:12:0d:0a:f5:a8:28:a3:d7:1f:
         7d:50:a4:ef:c4:45:de:ed:ab:09:6f:05:ca:b7:cb:21:95:5d:
         57:86:74:7d:0a:70:03:4f:31:0a:3a:ef:bb:f9:52:cc:95:b9:
         c7:0f:cc:2f
-----BEGIN CERTIFICATE-----
MIIECTCCAvGgAwIBAgIEEAAA3DANBgkqhkiG9w0BAQUFADBEMQswCQYDVQQGEwJE
RTEPMA0GA1UECAwGSGVzc2VuMRQwEgYDVQQKDAtwcml2YWN5aWRlYTEOMAwGA1UE
AwwFQ0EwMDEwHhcNMTYwNDExMTAwNTU1WhcNMTcwNDExMTAwNTU1WjA3MRMwEQYD
VQQDEwpTdGV2ZSBUZXN0MSAwHgYJKoZIhvcNAQkBFhFzdGV2ZUBvcGVuc3NsLm9y
ZzCCASIwDQYJKoZIhvcNAQEBBQADggEPADCCAQoCggEBANKBiSBRSA9z9BEyJNUf
HP1c9bbmxfBSgdzSr2ZKfJMxYVyv0W0GcANgfHIMiN1JzZ4CbNJa11MP89q+aWS1
DwwA47NQR6Ozm7oTUNZYWkurOeARygonZwN4ImZtkh4bXEmu5mvRjjudBtPGrE1T
QxCr6JbBh4KXmY8g05kSNzGE4Yr/KQNfIpA+f5vgIMGt3K5MORoxlhcCjLLZtA0g
Ept9hlT9M/3BKmJG+GCWz24BbyLfE0fnl+wFciOjYvj676yccvA3yy83z5CoJ1GG
xtd4CI9+JaIVcKL7HLYVXqCXi4FMCSiKJzuUvHHbW3E3misW4G+1yfVLTyC6Zc+v
ra0CAwEAAaOCAQ4wggEKMAsGA1UdDwQEAwIFoDAJBgNVHRMEAjAAMBEGCWCGSAGG
+EIBAQQEAwIGQDAzBglghkgBhvhCAQ0EJhYkT3BlblNTTCBHZW5lcmF0ZWQgU2Vy
dmVyIENlcnRpZmljYXRlMB0GA1UdDgQWBBTlJW0+rw3dP0zyRRk51RTbfpzArTB0
BgNVHSMEbTBrgBT0p8DMkUavZPOR8if4yLJviocyc6FIpEYwRDELMAkGA1UEBhMC
REUxDzANBgNVBAgMBkhlc3NlbjEUMBIGA1UECgwLcHJpdmFjeWlkZWExDjAMBgNV
BAMMBUNBMDAxggkA+8jrrIPNEgcwEwYDVR0lBAwwCgYIKwYBBQUHAwEwDQYJKoZI
hvcNAQEFBQADggEBAJjCdPmnuDPaOrNNwAXAdPNUjD8oS22FlPHziHtAubk23VUj
TgY+TUE1YUVORlkvjeA+GxgohJi/iNByE5e/gl1MsrpZyYzh29oG+mCK3sk+vz2q
9Z2EAgdLI6GVdRhGBnD0GrECmOpJqioHxB0ATqONALpJsMoUORq0+RcWvoOtwdxq
xZcqXMctdYdINtYlIsFWpoY44lTuYarPrgTyZAGUpHuk7uyfAYcadKXSY+fgOzTK
qVLgOqLQN4FjwDkS0n2XKRseyMybh9U580g4mxINCvWoKKPXH31QpO/ERd7tqwlv
Bcq3yyGVXVeGdH0KcANPMQo677v5UsyVuccPzC8=
-----END CERTIFICATE-----
