Certificate:
    Data:
        Version: 3 (0x2)
        Serial Number: 268435664 (0x100000d0)
    Signature Algorithm: sha1WithRSAEncryption
        Issuer: C=DE, ST=Hessen, O=privacyidea, CN=CA001
        Validity
            Not Before: Apr 11 08:45:52 2016 GMT
            Not After : Apr 11 08:45:52 2017 GMT
        Subject: CN=Steve Test/emailAddress=steve@openssl.org
        Subject Public Key Info:
            Public Key Algorithm: rsaEncryption
                Public-Key: (2048 bit)
                Modulus:
                    00:d2:81:89:20:51:48:0f:73:f4:11:32:24:d5:1f:
                    1c:fd:5c:f5:b6:e6:c5:f0:52:81:dc:d2:af:66:4a:
                    7c:93:31:61:5c:af:d1:6d:06:70:03:60:7c:72:0c:
                    88:dd:49:cd:9e:02:6c:d2:5a:d7:53:0f:f3:da:be:
                    69:64:b5:0f:0c:00:e3:b3:50:47:a3:b3:9b:ba:13:
                    50:d6:58:5a:4b:ab:39:e0:11:ca:0a:27:67:03:78:
                    22:66:6d:92:1e:1b:5c:49:ae:e6:6b:d1:8e:3b:9d:
                    06:d3:c6:ac:4d:53:43:10:ab:e8:96:c1:87:82:97:
                    99:8f:20:d3:99:12:37:31:84:e1:8a:ff:29:03:5f:
                    22:90:3e:7f:9b:e0:20:c1:ad:dc:ae:4c:39:1a:31:
                    96:17:02:8c:b2:d9:b4:0d:20:12:9b:7d:86:54:fd:
                    33:fd:c1:2a:62:46:f8:60:96:cf:6e:01:6f:22:df:
                    13:47:e7:97:ec:05:72:23:a3:62:f8:fa:ef:ac:9c:
                    72:f0:37:cb:2f:37:cf:90:a8:27:51:86:c6:d7:78:
                    08:8f:7e:25:a2:15:70:a2:fb:1c:b6:15:5e:a0:97:
                    8b:81:4c:09:28:8a:27:3b:94:bc:71:db:5b:71:37:
                    9a:2b:16:e0:6f:b5:c9:f5:4b:4f:20:ba:65:cf:af:
                    ad:ad
                Exponent: 65537 (0x10001)
        X509v3 extensions:
            X509v3 Key Usage: 
                Digital Signature, Key Encipherment
            X509v3 Basic Constraints: 
                CA:FALSE
            Netscape Cert Type: 
                SSL Server
            Netscape Comment: 
                OpenSSL Generated Server Certificate
            X509v3 Subject Key Identifier: 
                E5:25:6D:3E:AF:0D:DD:3F:4C:F2:45:19:39:D5:14:DB:7E:9C:C0:AD
            X509v3 Authority Key Identifier: 
                keyid:F4:A7:C0:CC:91:46:AF:64:F3:91:F2:27:F8:C8:B2:6F:8A:87:32:73
                DirName:/C=DE/ST=Hessen/O=privacyidea/CN=CA001
                serial:FB:C8:EB:AC:83:CD:12:07

            X509v3 Extended Key Usage: 
                TLS Web Server Authentication
    Signature Algorithm: sha1WithRSAEncryption
         6f:bf:32:ff:6d:36:af:b7:73:78:9b:1a:46:3e:e6:ca:e1:9d:
         66:26:c5:55:58:e7:d7:26:f7:85:d7:1b:58:5e:2b:95:eb:c9:
         55:13:7b:db:31:27:d8:27:93:ea:26:7e:62:04:15:94:9b:84:
         6d:f9:aa:2d:b1:fb:72:74:53:0f:1f:69:6b:91:c6:e7:d8:32:
         61:45:e2:0e:f5:ff:b1:4d:73:98:5b:0a:aa:79:d7:c5:92:51:
         22:23:ef:43:b7:72:d9:8f:ef:e7:46:86:5a:2c:77:57:d4:72:
         03:f1:17:58:b5:19:6c:9d:52:02:da:4f:44:e7:0c:29:e7:86:
         d6:82:48:11:26:18:21:ff:17:0c:99:8a:8b:4b:9d:4a:d1:f5:
         1c:45:a3:97:67:90:03:6f:52:af:34:3a:23:10:b8:1e:a1:cf:
         b0:4c:0d:c7:b6:ca:8d:40:6d:6a:16:4f:cb:47:39:62:2d:fd:
         6d:5b:f1:6f:f9:ed:14:c7:d9:38:4e:e0:31:a3:e3:ab:57:3d:
         c2:04:ac:cb:79:08:73:1d:3e:bc:13:61:bd:f7:0b:b4:1c:70:
         00:fa:d8:33:ad:b6:9d:e7:66:da:f3:f9:1c:62:b0:95:93:8e:
         5d:ec:ff:ea:77:08:f6:b6:db:8b:48:6a:e0:42:b5:0f:bb:58:
         28:0f:ee:7e
-----BEGIN CERTIFICATE-----
MIIECTCCAvGgAwIBAgIEEAAA0DANBgkqhkiG9w0BAQUFADBEMQswCQYDVQQGEwJE
RTEPMA0GA1UECAwGSGVzc2VuMRQwEgYDVQQKDAtwcml2YWN5aWRlYTEOMAwGA1UE
AwwFQ0EwMDEwHhcNMTYwNDExMDg0NTUyWhcNMTcwNDExMDg0NTUyWjA3MRMwEQYD
VQQDEwpTdGV2ZSBUZXN0MSAwHgYJKoZIhvcNAQkBFhFzdGV2ZUBvcGVuc3NsLm9y
ZzCCASIwDQYJKoZIhvcNAQEBBQADggEPADCCAQoCggEBANKBiSBRSA9z9BEyJNUf
HP1c9bbmxfBSgdzSr2ZKfJMxYVyv0W0GcANgfHIMiN1JzZ4CbNJa11MP89q+aWS1
DwwA47NQR6Ozm7oTUNZYWkurOeARygonZwN4ImZtkh4bXEmu5mvRjjudBtPGrE1T
QxCr6JbBh4KXmY8g05kSNzGE4Yr/KQNfIpA+f5vgIMGt3K5MORoxlhcCjLLZtA0g
Ept9hlT9M/3BKmJG+GCWz24BbyLfE0fnl+wFciOjYvj676yccvA3yy83z5CoJ1GG
xtd4CI9+JaIVcKL7HLYVXqCXi4FMCSiKJzuUvHHbW3E3misW4G+1yfVLTyC6Zc+v
ra0CAwEAAaOCAQ4wggEKMAsGA1UdDwQEAwIFoDAJBgNVHRMEAjAAMBEGCWCGSAGG
+EIBAQQEAwIGQDAzBglghkgBhvhCAQ0EJhYkT3BlblNTTCBHZW5lcmF0ZWQgU2Vy
dmVyIENlcnRpZmljYXRlMB0GA1UdDgQWBBTlJW0+rw3dP0zyRRk51RTbfpzArTB0
BgNVHSMEbTBrgBT0p8DMkUavZPOR8if4yLJviocyc6FIpEYwRDELMAkGA1UEBhMC
REUxDzANBgNVBAgMBkhlc3NlbjEUMBIGA1UECgwLcHJpdmFjeWlkZWExDjAMBgNV
BAMMBUNBMDAxggkA+8jrrIPNEgcwEwYDVR0lBAwwCgYIKwYBBQUHAwEwDQYJKoZI
hvcNAQEFBQADggEBAG+/Mv9tNq+3c3ibGkY+5srhnWYmxVVY59cm94XXG1heK5Xr
yVUTe9sxJ9gnk+omfmIEFZSbhG35qi2x+3J0Uw8faWuRxufYMmFF4g71/7FNc5hb
Cqp518WSUSIj70O3ctmP7+dGhlosd1fUcgPxF1i1GWydUgLaT0TnDCnnhtaCSBEm
GCH/FwyZiotLnUrR9RxFo5dnkANvUq80OiMQuB6hz7BMDce2yo1AbWoWT8tHOWIt
/W1b8W/57RTH2ThO4DGj46tXPcIErMt5CHMdPrwTYb33C7QccAD62DOttp3nZtrz
+RxisJWTjl3s/+p3CPa224tIauBCtQ+7WCgP7n4=
-----END CERTIFICATE-----
