Certificate:
    Data:
        Version: 3 (0x2)
        Serial Number: 268435657 (0x100000c9)
    Signature Algorithm: sha1WithRSAEncryption
        Issuer: C=DE, ST=Hessen, O=privacyidea, CN=CA001
        Validity
            Not Before: Apr 11 08:26:21 2016 GMT
            Not After : Apr 11 08:26:21 2017 GMT
        Subject: C=DE, ST=Hessen, O=privacyidea, CN=requester.localdomain
        Subject Public Key Info:
            Public Key Algorithm: rsaEncryption
                Public-Key: (2048 bit)
                Modulus:
                    00:cd:be:14:4f:fa:ce:01:3f:42:22:1b:1d:9c:af:
                    dd:92:d2:7f:db:6c:b7:3e:39:43:43:6b:13:03:f1:
                    05:f4:07:74:bc:76:69:28:0b:af:19:8e:d7:fc:e3:
                    cd:c6:58:f2:ca:7f:08:6d:53:fc:07:02:44:24:c6:
                    b4:34:4c:8c:04:fe:33:0e:40:e2:20:ba:02:73:5a:
                    f7:f5:4f:63:6e:cc:c6:b6:df:54:1d:37:39:7d:51:
                    36:26:5f:bd:dc:3f:a8:8b:6b:a2:ae:b6:9d:d6:21:
                    e7:df:41:b8:7a:28:2a:68:48:ca:a8:2d:ed:e1:e9:
                    46:5e:5a:72:6d:b4:84:38:87:91:fd:94:11:0b:28:
                    84:c6:c2:2f:2a:fb:01:f9:36:7a:09:75:d1:33:88:
                    3c:73:41:5b:c8:bf:94:89:70:a1:f0:c0:b9:2e:50:
                    53:1e:b1:17:64:69:f4:2d:81:e0:a9:0d:0e:32:e9:
                    ba:55:8a:85:f1:1b:6f:49:79:b4:7f:88:c3:0d:3e:
                    54:88:9b:3d:1f:38:8c:04:f3:ee:6a:63:2b:f5:c6:
                    db:b4:83:aa:c4:78:41:3a:7d:4b:e1:c8:3e:71:ca:
                    1b:61:59:ea:c6:c4:ca:32:5e:c9:e9:bf:12:29:e6:
                    c6:c3:63:fe:a0:55:da:7a:f1:60:98:4d:26:ed:fa:
                    70:2d
                Exponent: 65537 (0x10001)
        X509v3 extensions:
            X509v3 Key Usage: 
                Digital Signature, Key Encipherment
            X509v3 Basic Constraints: 
                CA:FALSE
            Netscape Cert Type: 
                SSL Server
            Netscape Comment: 
                OpenSSL Generated Server Certificate
            X509v3 Subject Key Identifier: 
                53:3F:ED:5D:09:07:B3:65:7B:AB:45:C9:24:5B:09:77:80:0A:96:ED
            X509v3 Authority Key Identifier: 
                keyid:F4:A7:C0:CC:91:46:AF:64:F3:91:F2:27:F8:C8:B2:6F:8A:87:32:73
                DirName:/C=DE/ST=Hessen/O=privacyidea/CN=CA001
                serial:FB:C8:EB:AC:83:CD:12:07

            X509v3 Extended Key Usage: 
                TLS Web Server Authentication
    Signature Algorithm: sha1WithRSAEncryption
         ae:0f:97:d2:21:18:be:bc:04:03:40:e4:11:08:ae:b2:38:7a:
         f9:a4:f8:1e:63:33:7e:e3:6c:57:51:19:a2:5a:59:af:9b:d6:
         f0:fe:85:18:04:aa:5f:62:c0:ba:47:15:c1:46:e1:09:b5:83:
         be:00:20:d1:b6:97:8a:d4:99:05:6b:9b:89:4f:f2:d1:52:e7:
         d3:d8:51:6e:32:71:78:c9:3e:98:35:e7:59:1c:76:2e:00:8c:
         2c:4e:b3:c6:f0:24:2e:c8:40:93:58:57:79:0a:92:f4:3a:28:
         f5:a4:cf:d5:8e:f6:04:e0:d0:33:32:a4:72:0f:3e:2a:9a:65:
         e2:2e:b5:ab:78:db:b0:4a:35:6e:99:0f:0e:35:a4:86:fb:e5:
         5c:72:b8:2b:e7:06:a0:c4:b2:58:fd:04:ac:f5:da:32:f4:23:
         53:00:f2:9c:13:27:3d:66:b6:fa:33:84:21:14:7d:16:82:d5:
         61:54:45:e8:d0:9d:d1:da:5e:8f:62:81:f3:69:06:a4:5d:82:
         71:91:47:7d:73:1a:00:76:40:5f:46:59:ae:7c:27:4f:44:a4:
         9b:94:ab:79:75:ae:ac:0b:1e:e8:7a:bc:25:8f:a4:9a:b9:b6:
         34:76:6c:f0:1c:0c:b4:25:68:bb:82:19:94:1b:79:3e:75:e9:
         9b:88:01:af
-----BEGIN CERTIFICATE-----
MIIEJjCCAw6gAwIBAgIEEAAAyTANBgkqhkiG9w0BAQUFADBEMQswCQYDVQQGEwJE
RTEPMA0GA1UECAwGSGVzc2VuMRQwEgYDVQQKDAtwcml2YWN5aWRlYTEOMAwGA1UE
AwwFQ0EwMDEwHhcNMTYwNDExMDgyNjIxWhcNMTcwNDExMDgyNjIxWjBUMQswCQYD
VQQGEwJERTEPMA0GA1UECAwGSGVzc2VuMRQwEgYDVQQKDAtwcml2YWN5aWRlYTEe
MBwGA1UEAwwVcmVxdWVzdGVyLmxvY2FsZG9tYWluMIIBIjANBgkqhkiG9w0BAQEF
AAOCAQ8AMIIBCgKCAQEAzb4UT/rOAT9CIhsdnK/dktJ/22y3PjlDQ2sTA/EF9Ad0
vHZpKAuvGY7X/OPNxljyyn8IbVP8BwJEJMa0NEyMBP4zDkDiILoCc1r39U9jbszG
tt9UHTc5fVE2Jl+93D+oi2uirrad1iHn30G4eigqaEjKqC3t4elGXlpybbSEOIeR
/ZQRCyiExsIvKvsB+TZ6CXXRM4g8c0FbyL+UiXCh8MC5LlBTHrEXZGn0LYHgqQ0O
Mum6VYqF8RtvSXm0f4jDDT5UiJs9HziMBPPuamMr9cbbtIOqxHhBOn1L4cg+ccob
YVnqxsTKMl7J6b8SKebGw2P+oFXaevFgmE0m7fpwLQIDAQABo4IBDjCCAQowCwYD
VR0PBAQDAgWgMAkGA1UdEwQCMAAwEQYJYIZIAYb4QgEBBAQDAgZAMDMGCWCGSAGG
+EIBDQQmFiRPcGVuU1NMIEdlbmVyYXRlZCBTZXJ2ZXIgQ2VydGlmaWNhdGUwHQYD
VR0OBBYEFFM/7V0JB7Nle6tFySRbCXeACpbtMHQGA1UdIwRtMGuAFPSnwMyRRq9k
85HyJ/jIsm+KhzJzoUikRjBEMQswCQYDVQQGEwJERTEPMA0GA1UECAwGSGVzc2Vu
MRQwEgYDVQQKDAtwcml2YWN5aWRlYTEOMAwGA1UEAwwFQ0EwMDGCCQD7yOusg80S
BzATBgNVHSUEDDAKBggrBgEFBQcDATANBgkqhkiG9w0BAQUFAAOCAQEArg+X0iEY
vrwEA0DkEQiusjh6+aT4HmMzfuNsV1EZolpZr5vW8P6FGASqX2LAukcVwUbhCbWD
vgAg0baXitSZBWubiU/y0VLn09hRbjJxeMk+mDXnWRx2LgCMLE6zxvAkLshAk1hX
eQqS9Doo9aTP1Y72BODQMzKkcg8+Kppl4i61q3jbsEo1bpkPDjWkhvvlXHK4K+cG
oMSyWP0ErPXaMvQjUwDynBMnPWa2+jOEIRR9FoLVYVRF6NCd0dpej2KB82kGpF2C
cZFHfXMaAHZAX0ZZrnwnT0Skm5SreXWurAse6Hq8JY+kmrm2NHZs8BwMtCVou4IZ
lBt5PnXpm4gBrw==
-----END CERTIFICATE-----
