Certificate:
    Data:
        Version: 3 (0x2)
        Serial Number: 268435654 (0x100000c6)
    Signature Algorithm: sha1WithRSAEncryption
        Issuer: C=DE, ST=Hessen, O=privacyidea, CN=CA001
        Validity
            Not Before: Apr 11 11:15:57 2016 GMT
            Not After : Apr 11 11:15:57 2017 GMT
        Subject: CN=Steve Test/emailAddress=steve@openssl.org
        Subject Public Key Info:
            Public Key Algorithm: rsaEncryption
                Public-Key: (2048 bit)
                Modulus:
                    00:d2:81:89:20:51:48:0f:73:f4:11:32:24:d5:1f:
                    1c:fd:5c:f5:b6:e6:c5:f0:52:81:dc:d2:af:66:4a:
                    7c:93:31:61:5c:af:d1:6d:06:70:03:60:7c:72:0c:
                    88:dd:49:cd:9e:02:6c:d2:5a:d7:53:0f:f3:da:be:
                    69:64:b5:0f:0c:00:e3:b3:50:47:a3:b3:9b:ba:13:
                    50:d6:58:5a:4b:ab:39:e0:11:ca:0a:27:67:03:78:
                    22:66:6d:92:1e:1b:5c:49:ae:e6:6b:d1:8e:3b:9d:
                    06:d3:c6:ac:4d:53:43:10:ab:e8:96:c1:87:82:97:
                    99:8f:20:d3:99:12:37:31:84:e1:8a:ff:29:03:5f:
                    22:90:3e:7f:9b:e0:20:c1:ad:dc:ae:4c:39:1a:31:
                    96:17:02:8c:b2:d9:b4:0d:20:12:9b:7d:86:54:fd:
                    33:fd:c1:2a:62:46:f8:60:96:cf:6e:01:6f:22:df:
                    13:47:e7:97:ec:05:72:23:a3:62:f8:fa:ef:ac:9c:
                    72:f0:37:cb:2f:37:cf:90:a8:27:51:86:c6:d7:78:
                    08:8f:7e:25:a2:15:70:a2:fb:1c:b6:15:5e:a0:97:
                    8b:81:4c:09:28:8a:27:3b:94:bc:71:db:5b:71:37:
                    9a:2b:16:e0:6f:b5:c9:f5:4b:4f:20:ba:65:cf:af:
                    ad:ad
                Exponent: 65537 (0x10001)
        X509v3 extensions:
            X509v3 Key Usage: 
                Digital Signature, Key Encipherment
            X509v3 Basic Constraints: 
                CA:FALSE
            Netscape Cert Type: 
                SSL Server
            Netscape Comment: 
                OpenSSL Generated Server Certificate
            X509v3 Subject Key Identifier: 
                E5:25:6D:3E:AF:0D:DD:3F:4C:F2:45:19:39:D5:14:DB:7E:9C:C0:AD
            X509v3 Authority Key Identifier: 
                keyid:F4:A7:C0:CC:91:46:AF:64:F3:91:F2:27:F8:C8:B2:6F:8A:87:32:73
                DirName:/C=DE/ST=Hessen/O=privacyidea/CN=CA001
                serial:FB:C8:EB:AC:83:CD:12:07

            X509v3 Extended Key Usage: 
                TLS Web Server Authentication
    Signature Algorithm: sha1WithRSAEncryption
         b5:98:f6:ef:14:7b:72:7a:c5:41:2f:6f:52:e2:b0:37:78:f4:
         58:fd:eb:84:b9:f4:00:6d:af:dc:9a:ae:97:a8:c9:fb:5d:dd:
         22:d1:23:62:5d:1f:33:4a:03:69:e7:b7:6c:7d:b4:d2:ec:64:
         60:13:bb:73:a3:8b:82:f3:03:60:7a:2b:d2:47:60:97:05:3f:
         bf:9b:ca:2a:42:e6:e5:d9:6e:b1:29:11:c7:e7:d3:ef:40:98:
         0c:ca:9c:54:5b:ef:e7:74:36:ec:1e:9a:b6:06:3f:5e:da:c6:
         9c:09:1c:29:f4:d3:71:c7:d5:23:2e:2b:ea:1f:77:29:15:e6:
         03:31:f7:83:99:8c:bf:93:5f:0f:76:41:b2:a3:a2:4e:20:46:
         da:cc:bc:35:5c:18:cf:dc:ac:c8:29:dc:34:8c:91:12:d6:31:
         17:a1:12:aa:84:3c:39:0b:05:5b:09:4d:1a:77:14:4a:61:46:
         49:28:45:78:72:19:f4:c6:dc:45:29:4c:e3:c6:9c:04:c6:71:
         6a:12:c1:48:3e:91:b5:93:82:bf:32:ae:83:8a:54:00:3f:b2:
         76:da:5e:18:a7:a7:c7:51:0f:2d:71:e3:6c:fe:a7:fc:52:d3:
         2f:7f:51:b3:44:12:e8:20:3c:13:97:fc:e6:e5:18:0e:f8:47:
         7c:38:6f:9e
-----BEGIN CERTIFICATE-----
MIIECTCCAvGgAwIBAgIEEAAAxjANBgkqhkiG9w0BAQUFADBEMQswCQYDVQQGEwJE
RTEPMA0GA1UECAwGSGVzc2VuMRQwEgYDVQQKDAtwcml2YWN5aWRlYTEOMAwGA1UE
AwwFQ0EwMDEwHhcNMTYwNDExMTExNTU3WhcNMTcwNDExMTExNTU3WjA3MRMwEQYD
VQQDEwpTdGV2ZSBUZXN0MSAwHgYJKoZIhvcNAQkBFhFzdGV2ZUBvcGVuc3NsLm9y
ZzCCASIwDQYJKoZIhvcNAQEBBQADggEPADCCAQoCggEBANKBiSBRSA9z9BEyJNUf
HP1c9bbmxfBSgdzSr2ZKfJMxYVyv0W0GcANgfHIMiN1JzZ4CbNJa11MP89q+aWS1
DwwA47NQR6Ozm7oTUNZYWkurOeARygonZwN4ImZtkh4bXEmu5mvRjjudBtPGrE1T
QxCr6JbBh4KXmY8g05kSNzGE4Yr/KQNfIpA+f5vgIMGt3K5MORoxlhcCjLLZtA0g
Ept9hlT9M/3BKmJG+GCWz24BbyLfE0fnl+wFciOjYvj676yccvA3yy83z5CoJ1GG
xtd4CI9+JaIVcKL7HLYVXqCXi4FMCSiKJzuUvHHbW3E3misW4G+1yfVLTyC6Zc+v
ra0CAwEAAaOCAQ4wggEKMAsGA1UdDwQEAwIFoDAJBgNVHRMEAjAAMBEGCWCGSAGG
+EIBAQQEAwIGQDAzBglghkgBhvhCAQ0EJhYkT3BlblNTTCBHZW5lcmF0ZWQgU2Vy
dmVyIENlcnRpZmljYXRlMB0GA1UdDgQWBBTlJW0+rw3dP0zyRRk51RTbfpzArTB0
BgNVHSMEbTBrgBT0p8DMkUavZPOR8if4yLJviocyc6FIpEYwRDELMAkGA1UEBhMC
REUxDzANBgNVBAgMBkhlc3NlbjEUMBIGA1UECgwLcHJpdmFjeWlkZWExDjAMBgNV
BAMMBUNBMDAxggkA+8jrrIPNEgcwEwYDVR0lBAwwCgYIKwYBBQUHAwEwDQYJKoZI
hvcNAQEFBQADggEBALWY9u8Ue3J6xUEvb1LisDd49Fj964S59ABtr9yarpeoyftd
3SLRI2JdHzNKA2nnt2x9tNLsZGATu3Oji4LzA2B6K9JHYJcFP7+byipC5uXZbrEp
Ecfn0+9AmAzKnFRb7+d0NuwemrYGP17axpwJHCn003HH1SMuK+ofdykV5gMx94OZ
jL+TXw92QbKjok4gRtrMvDVcGM/crMgp3DSMkRLWMRehEqqEPDkLBVsJTRp3FEph
RkkoRXhyGfTG3EUpTOPGnATGcWoSwUg+kbWTgr8yroOKVAA/snbaXhinp8dRDy1x
42z+p/xS0y9/UbNEEuggPBOX/OblGA74R3w4b54=
-----END CERTIFICATE-----
