Certificate:
    Data:
        Version: 3 (0x2)
        Serial Number: 268435668 (0x100000d4)
    Signature Algorithm: sha1WithRSAEncryption
        Issuer: C=DE, ST=Hessen, O=privacyidea, CN=CA001
        Validity
            Not Before: Apr 11 09:02:31 2016 GMT
            Not After : Apr 11 09:02:31 2017 GMT
        Subject: C=DE, ST=Hessen, O=privacyidea, CN=requester.localdomain
        Subject Public Key Info:
            Public Key Algorithm: rsaEncryption
                Public-Key: (2048 bit)
                Modulus:
                    00:cd:be:14:4f:fa:ce:01:3f:42:22:1b:1d:9c:af:
                    dd:92:d2:7f:db:6c:b7:3e:39:43:43:6b:13:03:f1:
                    05:f4:07:74:bc:76:69:28:0b:af:19:8e:d7:fc:e3:
                    cd:c6:58:f2:ca:7f:08:6d:53:fc:07:02:44:24:c6:
                    b4:34:4c:8c:04:fe:33:0e:40:e2:20:ba:02:73:5a:
                    f7:f5:4f:63:6e:cc:c6:b6:df:54:1d:37:39:7d:51:
                    36:26:5f:bd:dc:3f:a8:8b:6b:a2:ae:b6:9d:d6:21:
                    e7:df:41:b8:7a:28:2a:68:48:ca:a8:2d:ed:e1:e9:
                    46:5e:5a:72:6d:b4:84:38:87:91:fd:94:11:0b:28:
                    84:c6:c2:2f:2a:fb:01:f9:36:7a:09:75:d1:33:88:
                    3c:73:41:5b:c8:bf:94:89:70:a1:f0:c0:b9:2e:50:
                    53:1e:b1:17:64:69:f4:2d:81:e0:a9:0d:0e:32:e9:
                    ba:55:8a:85:f1:1b:6f:49:79:b4:7f:88:c3:0d:3e:
                    54:88:9b:3d:1f:38:8c:04:f3:ee:6a:63:2b:f5:c6:
                    db:b4:83:aa:c4:78:41:3a:7d:4b:e1:c8:3e:71:ca:
                    1b:61:59:ea:c6:c4:ca:32:5e:c9:e9:bf:12:29:e6:
                    c6:c3:63:fe:a0:55:da:7a:f1:60:98:4d:26:ed:fa:
                    70:2d
                Exponent: 65537 (0x10001)
        X509v3 extensions:
            X509v3 Key Usage: 
                Digital Signature, Key Encipherment
            X509v3 Basic Constraints: 
                CA:FALSE
            Netscape Cert Type: 
                SSL Server
            Netscape Comment: 
                OpenSSL Generated Server Certificate
            X509v3 Subject Key Identifier: 
                53:3F:ED:5D:09:07:B3:65:7B:AB:45:C9:24:5B:09:77:80:0A:96:ED
            X509v3 Authority Key Identifier: 
                keyid:F4:A7:C0:CC:91:46:AF:64:F3:91:F2:27:F8:C8:B2:6F:8A:87:32:73
                DirName:/C=DE/ST=Hessen/O=privacyidea/CN=CA001
                serial:FB:C8:EB:AC:83:CD:12:07

            X509v3 Extended Key Usage: 
                TLS Web Server Authentication
    Signature Algorithm: sha1WithRSAEncryption
         91:1c:2e:00:f3:a9:fd:20:79:6e:ed:a9:ed:0c:09:f4:fd:21:
         ec:23:79:05:c1:e5:86:c7:ec:97:8a:f8:8d:5b:b7:0b:d5:a9:
         92:e6:75:9b:55:b9:a2:7c:40:80:d9:81:bd:05:91:c8:a9:44:
         2e:23:b8:ec:50:ee:fe:50:5b:48:fe:ef:b3:d0:fc:cd:76:d9:
         73:55:5d:b5:84:ae:de:2b:7a:ad:b9:e1:e1:96:fe:17:ff:33:
         fb:11:86:81:e6:84:5c:b0:28:9f:e3:91:92:b5:0b:5f:6c:78:
         95:4d:36:84:a5:80:98:72:a8:ec:5a:91:5a:95:0d:b3:89:94:
         ca:5f:a6:4f:1b:c5:e6:44:3b:51:db:4a:b3:3e:8d:06:45:ec:
         09:7a:07:55:4a:de:5d:f3:1a:55:4b:22:9d:89:f4:49:dd:66:
         07:ab:d2:c8:04:8b:af:42:e4:1a:1d:52:57:d6:3a:09:73:11:
         6e:99:d7:6b:8e:a9:d6:ca:fa:64:09:c1:e2:91:0e:8d:69:85:
         81:37:2a:9d:35:cb:37:49:b5:95:c4:62:81:ee:54:7d:fd:03:
         aa:23:99:29:36:95:2c:71:85:1e:71:d8:e0:e0:8d:6d:9c:3d:
         38:5b:4f:05:b9:6a:5f:8b:05:d6:20:1e:43:47:13:2e:8b:88:
         50:7f:af:83
-----BEGIN CERTIFICATE-----
MIIEJjCCAw6gAwIBAgIEEAAA1DANBgkqhkiG9w0BAQUFADBEMQswCQYDVQQGEwJE
RTEPMA0GA1UECAwGSGVzc2VuMRQwEgYDVQQKDAtwcml2YWN5aWRlYTEOMAwGA1UE
AwwFQ0EwMDEwHhcNMTYwNDExMDkwMjMxWhcNMTcwNDExMDkwMjMxWjBUMQswCQYD
VQQGEwJERTEPMA0GA1UECAwGSGVzc2VuMRQwEgYDVQQKDAtwcml2YWN5aWRlYTEe
MBwGA1UEAwwVcmVxdWVzdGVyLmxvY2FsZG9tYWluMIIBIjANBgkqhkiG9w0BAQEF
AAOCAQ8AMIIBCgKCAQEAzb4UT/rOAT9CIhsdnK/dktJ/22y3PjlDQ2sTA/EF9Ad0
vHZpKAuvGY7X/OPNxljyyn8IbVP8BwJEJMa0NEyMBP4zDkDiILoCc1r39U9jbszG
tt9UHTc5fVE2Jl+93D+oi2uirrad1iHn30G4eigqaEjKqC3t4elGXlpybbSEOIeR
/ZQRCyiExsIvKvsB+TZ6CXXRM4g8c0FbyL+UiXCh8MC5LlBTHrEXZGn0LYHgqQ0O
Mum6VYqF8RtvSXm0f4jDDT5UiJs9HziMBPPuamMr9cbbtIOqxHhBOn1L4cg+ccob
YVnqxsTKMl7J6b8SKebGw2P+oFXaevFgmE0m7fpwLQIDAQABo4IBDjCCAQowCwYD
VR0PBAQDAgWgMAkGA1UdEwQCMAAwEQYJYIZIAYb4QgEBBAQDAgZAMDMGCWCGSAGG
+EIBDQQmFiRPcGVuU1NMIEdlbmVyYXRlZCBTZXJ2ZXIgQ2VydGlmaWNhdGUwHQYD
VR0OBBYEFFM/7V0JB7Nle6tFySRbCXeACpbtMHQGA1UdIwRtMGuAFPSnwMyRRq9k
85HyJ/jIsm+KhzJzoUikRjBEMQswCQYDVQQGEwJERTEPMA0GA1UECAwGSGVzc2Vu
MRQwEgYDVQQKDAtwcml2YWN5aWRlYTEOMAwGA1UEAwwFQ0EwMDGCCQD7yOusg80S
BzATBgNVHSUEDDAKBggrBgEFBQcDATANBgkqhkiG9w0BAQUFAAOCAQEAkRwuAPOp
/SB5bu2p7QwJ9P0h7CN5BcHlhsfsl4r4jVu3C9WpkuZ1m1W5onxAgNmBvQWRyKlE
LiO47FDu/lBbSP7vs9D8zXbZc1VdtYSu3it6rbnh4Zb+F/8z+xGGgeaEXLAon+OR
krULX2x4lU02hKWAmHKo7FqRWpUNs4mUyl+mTxvF5kQ7UdtKsz6NBkXsCXoHVUre
XfMaVUsinYn0Sd1mB6vSyASLr0LkGh1SV9Y6CXMRbpnXa46p1sr6ZAnB4pEOjWmF
gTcqnTXLN0m1lcRige5Uff0DqiOZKTaVLHGFHnHY4OCNbZw9OFtPBblqX4sF1iAe
Q0cTLouIUH+vgw==
-----END CERTIFICATE-----
