Certificate:
    Data:
        Version: 3 (0x2)
        Serial Number: 268435673 (0x100000d9)
    Signature Algorithm: sha1WithRSAEncryption
        Issuer: C=DE, ST=Hessen, O=privacyidea, CN=CA001
        Validity
            Not Before: Apr 11 10:04:20 2016 GMT
            Not After : Apr 11 10:04:20 2017 GMT
        Subject: C=DE, ST=Hessen, O=privacyidea, CN=requester.localdomain
        Subject Public Key Info:
            Public Key Algorithm: rsaEncryption
                Public-Key: (2048 bit)
                Modulus:
                    00:cd:be:14:4f:fa:ce:01:3f:42:22:1b:1d:9c:af:
                    dd:92:d2:7f:db:6c:b7:3e:39:43:43:6b:13:03:f1:
                    05:f4:07:74:bc:76:69:28:0b:af:19:8e:d7:fc:e3:
                    cd:c6:58:f2:ca:7f:08:6d:53:fc:07:02:44:24:c6:
                    b4:34:4c:8c:04:fe:33:0e:40:e2:20:ba:02:73:5a:
                    f7:f5:4f:63:6e:cc:c6:b6:df:54:1d:37:39:7d:51:
                    36:26:5f:bd:dc:3f:a8:8b:6b:a2:ae:b6:9d:d6:21:
                    e7:df:41:b8:7a:28:2a:68:48:ca:a8:2d:ed:e1:e9:
                    46:5e:5a:72:6d:b4:84:38:87:91:fd:94:11:0b:28:
                    84:c6:c2:2f:2a:fb:01:f9:36:7a:09:75:d1:33:88:
                    3c:73:41:5b:c8:bf:94:89:70:a1:f0:c0:b9:2e:50:
                    53:1e:b1:17:64:69:f4:2d:81:e0:a9:0d:0e:32:e9:
                    ba:55:8a:85:f1:1b:6f:49:79:b4:7f:88:c3:0d:3e:
                    54:88:9b:3d:1f:38:8c:04:f3:ee:6a:63:2b:f5:c6:
                    db:b4:83:aa:c4:78:41:3a:7d:4b:e1:c8:3e:71:ca:
                    1b:61:59:ea:c6:c4:ca:32:5e:c9:e9:bf:12:29:e6:
                    c6:c3:63:fe:a0:55:da:7a:f1:60:98:4d:26:ed:fa:
                    70:2d
                Exponent: 65537 (0x10001)
        X509v3 extensions:
            X509v3 Key Usage: 
                Digital Signature, Key Encipherment
            X509v3 Basic Constraints: 
                CA:FALSE
            Netscape Cert Type: 
                SSL Server
            Netscape Comment: 
                OpenSSL Generated Server Certificate
            X509v3 Subject Key Identifier: 
                53:3F:ED:5D:09:07:B3:65:7B:AB:45:C9:24:5B:09:77:80:0A:96:ED
            X509v3 Authority Key Identifier: 
                keyid:F4:A7:C0:CC:91:46:AF:64:F3:91:F2:27:F8:C8:B2:6F:8A:87:32:73
                DirName:/C=DE/ST=Hessen/O=privacyidea/CN=CA001
                serial:FB:C8:EB:AC:83:CD:12:07

            X509v3 Extended Key Usage: 
                TLS Web Server Authentication
    Signature Algorithm: sha1WithRSAEncryption
         be:b7:ae:e3:18:ad:3b:80:bc:d8:b2:3a:8c:77:49:df:22:33:
         68:02:d8:d1:d1:08:62:98:8a:d4:55:94:79:13:16:48:a6:f0:
         30:78:2f:ae:85:49:81:26:d3:4c:f8:28:3f:df:40:b7:cd:cc:
         5b:75:65:98:5c:cc:30:65:bd:bb:5f:83:6a:53:14:51:e7:67:
         a1:ba:53:f4:e9:a1:a1:26:bc:6e:be:7d:06:81:a1:85:66:a1:
         ea:7c:fc:bf:ab:a7:11:81:73:fa:dd:31:39:ca:11:47:e2:dc:
         0d:92:ab:c1:26:68:44:c0:76:03:29:d9:5d:19:b4:88:88:d1:
         de:e7:57:10:4b:50:3c:ca:ca:03:77:a8:49:fb:04:0a:6b:0b:
         5f:d8:4f:e8:11:af:66:07:94:e2:3f:85:ad:73:59:39:00:94:
         7f:13:c3:e1:bf:0f:d6:b3:36:b9:ce:37:03:b2:2a:8a:35:48:
         c8:6a:ea:45:9b:e5:0d:8b:fd:0e:38:d0:5e:b0:f1:01:6b:8b:
         e5:5b:5f:cf:40:f5:64:54:04:c1:35:8e:75:85:50:04:7b:f5:
         b0:24:59:c1:44:91:e0:32:fd:04:4e:a8:c4:2f:f6:85:00:4b:
         c6:6d:e9:1f:ee:a5:e2:ba:d0:0d:73:13:be:55:14:b9:ee:3a:
         5e:d1:32:5a
-----BEGIN CERTIFICATE-----
MIIEJjCCAw6gAwIBAgIEEAAA2TANBgkqhkiG9w0BAQUFADBEMQswCQYDVQQGEwJE
RTEPMA0GA1UECAwGSGVzc2VuMRQwEgYDVQQKDAtwcml2YWN5aWRlYTEOMAwGA1UE
AwwFQ0EwMDEwHhcNMTYwNDExMTAwNDIwWhcNMTcwNDExMTAwNDIwWjBUMQswCQYD
VQQGEwJERTEPMA0GA1UECAwGSGVzc2VuMRQwEgYDVQQKDAtwcml2YWN5aWRlYTEe
MBwGA1UEAwwVcmVxdWVzdGVyLmxvY2FsZG9tYWluMIIBIjANBgkqhkiG9w0BAQEF
AAOCAQ8AMIIBCgKCAQEAzb4UT/rOAT9CIhsdnK/dktJ/22y3PjlDQ2sTA/EF9Ad0
vHZpKAuvGY7X/OPNxljyyn8IbVP8BwJEJMa0NEyMBP4zDkDiILoCc1r39U9jbszG
tt9UHTc5fVE2Jl+93D+oi2uirrad1iHn30G4eigqaEjKqC3t4elGXlpybbSEOIeR
/ZQRCyiExsIvKvsB+TZ6CXXRM4g8c0FbyL+UiXCh8MC5LlBTHrEXZGn0LYHgqQ0O
Mum6VYqF8RtvSXm0f4jDDT5UiJs9HziMBPPuamMr9cbbtIOqxHhBOn1L4cg+ccob
YVnqxsTKMl7J6b8SKebGw2P+oFXaevFgmE0m7fpwLQIDAQABo4IBDjCCAQowCwYD
VR0PBAQDAgWgMAkGA1UdEwQCMAAwEQYJYIZIAYb4QgEBBAQDAgZAMDMGCWCGSAGG
+EIBDQQmFiRPcGVuU1NMIEdlbmVyYXRlZCBTZXJ2ZXIgQ2VydGlmaWNhdGUwHQYD
VR0OBBYEFFM/7V0JB7Nle6tFySRbCXeACpbtMHQGA1UdIwRtMGuAFPSnwMyRRq9k
85HyJ/jIsm+KhzJzoUikRjBEMQswCQYDVQQGEwJERTEPMA0GA1UECAwGSGVzc2Vu
MRQwEgYDVQQKDAtwcml2YWN5aWRlYTEOMAwGA1UEAwwFQ0EwMDGCCQD7yOusg80S
BzATBgNVHSUEDDAKBggrBgEFBQcDATANBgkqhkiG9w0BAQUFAAOCAQEAvreu4xit
O4C82LI6jHdJ3yIzaALY0dEIYpiK1FWUeRMWSKbwMHgvroVJgSbTTPgoP99At83M
W3VlmFzMMGW9u1+DalMUUednobpT9OmhoSa8br59BoGhhWah6nz8v6unEYFz+t0x
OcoRR+LcDZKrwSZoRMB2AynZXRm0iIjR3udXEEtQPMrKA3eoSfsECmsLX9hP6BGv
ZgeU4j+FrXNZOQCUfxPD4b8P1rM2uc43A7IqijVIyGrqRZvlDYv9DjjQXrDxAWuL
5Vtfz0D1ZFQEwTWOdYVQBHv1sCRZwUSR4DL9BE6oxC/2hQBLxm3pH+6l4rrQDXMT
vlUUue46XtEyWg==
-----END CERTIFICATE-----
