Certificate:
    Data:
        Version: 3 (0x2)
        Serial Number: 268435674 (0x100000da)
    Signature Algorithm: sha1WithRSAEncryption
        Issuer: C=DE, ST=Hessen, O=privacyidea, CN=CA001
        Validity
            Not Before: Apr 11 10:05:54 2016 GMT
            Not After : Apr 11 10:05:54 2017 GMT
        Subject: C=DE, ST=Hessen, O=privacyidea, CN=requester.localdomain
        Subject Public Key Info:
            Public Key Algorithm: rsaEncryption
                Public-Key: (2048 bit)
                Modulus:
                    00:cd:be:14:4f:fa:ce:01:3f:42:22:1b:1d:9c:af:
                    dd:92:d2:7f:db:6c:b7:3e:39:43:43:6b:13:03:f1:
                    05:f4:07:74:bc:76:69:28:0b:af:19:8e:d7:fc:e3:
                    cd:c6:58:f2:ca:7f:08:6d:53:fc:07:02:44:24:c6:
                    b4:34:4c:8c:04:fe:33:0e:40:e2:20:ba:02:73:5a:
                    f7:f5:4f:63:6e:cc:c6:b6:df:54:1d:37:39:7d:51:
                    36:26:5f:bd:dc:3f:a8:8b:6b:a2:ae:b6:9d:d6:21:
                    e7:df:41:b8:7a:28:2a:68:48:ca:a8:2d:ed:e1:e9:
                    46:5e:5a:72:6d:b4:84:38:87:91:fd:94:11:0b:28:
                    84:c6:c2:2f:2a:fb:01:f9:36:7a:09:75:d1:33:88:
                    3c:73:41:5b:c8:bf:94:89:70:a1:f0:c0:b9:2e:50:
                    53:1e:b1:17:64:69:f4:2d:81:e0:a9:0d:0e:32:e9:
                    ba:55:8a:85:f1:1b:6f:49:79:b4:7f:88:c3:0d:3e:
                    54:88:9b:3d:1f:38:8c:04:f3:ee:6a:63:2b:f5:c6:
                    db:b4:83:aa:c4:78:41:3a:7d:4b:e1:c8:3e:71:ca:
                    1b:61:59:ea:c6:c4:ca:32:5e:c9:e9:bf:12:29:e6:
                    c6:c3:63:fe:a0:55:da:7a:f1:60:98:4d:26:ed:fa:
                    70:2d
                Exponent: 65537 (0x10001)
        X509v3 extensions:
            X509v3 Key Usage: 
                Digital Signature, Key Encipherment
            X509v3 Basic Constraints: 
                CA:FALSE
            Netscape Cert Type: 
                SSL Server
            Netscape Comment: 
                OpenSSL Generated Server Certificate
            X509v3 Subject Key Identifier: 
                53:3F:ED:5D:09:07:B3:65:7B:AB:45:C9:24:5B:09:77:80:0A:96:ED
            X509v3 Authority Key Identifier: 
                keyid:F4:A7:C0:CC:91:46:AF:64:F3:91:F2:27:F8:C8:B2:6F:8A:87:32:73
                DirName:/C=DE/ST=Hessen/O=privacyidea/CN=CA001
                serial:FB:C8:EB:AC:83:CD:12:07

            X509v3 Extended Key Usage: 
                TLS Web Server Authentication
    Signature Algorithm: sha1WithRSAEncryption
         5e:5d:27:df:28:d6:f4:40:a7:75:53:23:83:37:5b:43:12:3c:
         0b:7c:0f:84:7d:68:fa:41:72:e2:22:0b:c4:c6:70:5e:c2:3e:
         92:82:29:bd:5a:8b:1b:b8:ef:32:54:da:1b:51:fe:87:2b:06:
         5f:0b:31:61:12:0c:b4:6b:32:32:3d:97:fd:4e:83:ef:db:be:
         d2:2c:ae:48:17:72:57:6a:4f:3c:fe:23:8f:06:2d:87:e2:19:
         9e:f2:20:7f:54:89:45:8d:42:8e:30:ad:f4:b3:f7:01:b3:41:
         6d:91:f4:f5:0b:32:20:0c:ea:eb:59:c1:f7:75:b8:88:58:ee:
         bc:a4:bb:e0:47:a0:6b:2c:90:7b:44:e6:67:0f:ec:17:d2:8c:
         b4:ec:5f:16:36:af:b0:5e:a6:2a:63:2f:2a:63:87:fd:07:a9:
         12:78:56:3d:e6:e8:29:3d:06:27:56:8a:fc:a5:55:39:94:f8:
         aa:cb:49:86:d8:98:c7:1d:42:e6:c4:67:3c:a1:6e:1b:d9:00:
         27:59:30:6c:b2:11:7f:99:4f:ed:ae:e2:00:66:49:25:be:1f:
         8b:dd:e7:b5:a5:9f:d1:53:95:4d:e7:08:ec:fd:3f:9c:6b:d3:
         82:3d:02:1f:05:55:52:b3:74:85:cb:a0:59:68:18:0e:48:6e:
         f9:8c:71:dc
-----BEGIN CERTIFICATE-----
MIIEJjCCAw6gAwIBAgIEEAAA2jANBgkqhkiG9w0BAQUFADBEMQswCQYDVQQGEwJE
RTEPMA0GA1UECAwGSGVzc2VuMRQwEgYDVQQKDAtwcml2YWN5aWRlYTEOMAwGA1UE
AwwFQ0EwMDEwHhcNMTYwNDExMTAwNTU0WhcNMTcwNDExMTAwNTU0WjBUMQswCQYD
VQQGEwJERTEPMA0GA1UECAwGSGVzc2VuMRQwEgYDVQQKDAtwcml2YWN5aWRlYTEe
MBwGA1UEAwwVcmVxdWVzdGVyLmxvY2FsZG9tYWluMIIBIjANBgkqhkiG9w0BAQEF
AAOCAQ8AMIIBCgKCAQEAzb4UT/rOAT9CIhsdnK/dktJ/22y3PjlDQ2sTA/EF9Ad0
vHZpKAuvGY7X/OPNxljyyn8IbVP8BwJEJMa0NEyMBP4zDkDiILoCc1r39U9jbszG
tt9UHTc5fVE2Jl+93D+oi2uirrad1iHn30G4eigqaEjKqC3t4elGXlpybbSEOIeR
/ZQRCyiExsIvKvsB+TZ6CXXRM4g8c0FbyL+UiXCh8MC5LlBTHrEXZGn0LYHgqQ0O
Mum6VYqF8RtvSXm0f4jDDT5UiJs9HziMBPPuamMr9cbbtIOqxHhBOn1L4cg+ccob
YVnqxsTKMl7J6b8SKebGw2P+oFXaevFgmE0m7fpwLQIDAQABo4IBDjCCAQowCwYD
VR0PBAQDAgWgMAkGA1UdEwQCMAAwEQYJYIZIAYb4QgEBBAQDAgZAMDMGCWCGSAGG
+EIBDQQmFiRPcGVuU1NMIEdlbmVyYXRlZCBTZXJ2ZXIgQ2VydGlmaWNhdGUwHQYD
VR0OBBYEFFM/7V0JB7Nle6tFySRbCXeACpbtMHQGA1UdIwRtMGuAFPSnwMyRRq9k
85HyJ/jIsm+KhzJzoUikRjBEMQswCQYDVQQGEwJERTEPMA0GA1UECAwGSGVzc2Vu
MRQwEgYDVQQKDAtwcml2YWN5aWRlYTEOMAwGA1UEAwwFQ0EwMDGCCQD7yOusg80S
BzATBgNVHSUEDDAKBggrBgEFBQcDATANBgkqhkiG9w0BAQUFAAOCAQEAXl0n3yjW
9ECndVMjgzdbQxI8C3wPhH1o+kFy4iILxMZwXsI+koIpvVqLG7jvMlTaG1H+hysG
XwsxYRIMtGsyMj2X/U6D79u+0iyuSBdyV2pPPP4jjwYth+IZnvIgf1SJRY1CjjCt
9LP3AbNBbZH09QsyIAzq61nB93W4iFjuvKS74EegayyQe0TmZw/sF9KMtOxfFjav
sF6mKmMvKmOH/QepEnhWPeboKT0GJ1aK/KVVOZT4qstJhtiYxx1C5sRnPKFuG9kA
J1kwbLIRf5lP7a7iAGZJJb4fi93ntaWf0VOVTecI7P0/nGvTgj0CHwVVUrN0hcug
WWgYDkhu+Yxx3A==
-----END CERTIFICATE-----
