Certificate:
    Data:
        Version: 3 (0x2)
        Serial Number: 268435680 (0x100000e0)
    Signature Algorithm: sha1WithRSAEncryption
        Issuer: C=DE, ST=Hessen, O=privacyidea, CN=CA001
        Validity
            Not Before: Sep 20 15:55:52 2015 GMT
            Not After : Sep 19 15:55:52 2016 GMT
        Subject: CN=Steve Test/emailAddress=steve@openssl.org
        Subject Public Key Info:
            Public Key Algorithm: rsaEncryption
                Public-Key: (2048 bit)
                Modulus:
                    00:d2:81:89:20:51:48:0f:73:f4:11:32:24:d5:1f:
                    1c:fd:5c:f5:b6:e6:c5:f0:52:81:dc:d2:af:66:4a:
                    7c:93:31:61:5c:af:d1:6d:06:70:03:60:7c:72:0c:
                    88:dd:49:cd:9e:02:6c:d2:5a:d7:53:0f:f3:da:be:
                    69:64:b5:0f:0c:00:e3:b3:50:47:a3:b3:9b:ba:13:
                    50:d6:58:5a:4b:ab:39:e0:11:ca:0a:27:67:03:78:
                    22:66:6d:92:1e:1b:5c:49:ae:e6:6b:d1:8e:3b:9d:
                    06:d3:c6:ac:4d:53:43:10:ab:e8:96:c1:87:82:97:
                    99:8f:20:d3:99:12:37:31:84:e1:8a:ff:29:03:5f:
                    22:90:3e:7f:9b:e0:20:c1:ad:dc:ae:4c:39:1a:31:
                    96:17:02:8c:b2:d9:b4:0d:20:12:9b:7d:86:54:fd:
                    33:fd:c1:2a:62:46:f8:60:96:cf:6e:01:6f:22:df:
                    13:47:e7:97:ec:05:72:23:a3:62:f8:fa:ef:ac:9c:
                    72:f0:37:cb:2f:37:cf:90:a8:27:51:86:c6:d7:78:
                    08:8f:7e:25:a2:15:70:a2:fb:1c:b6:15:5e:a0:97:
                    8b:81:4c:09:28:8a:27:3b:94:bc:71:db:5b:71:37:
                    9a:2b:16:e0:6f:b5:c9:f5:4b:4f:20:ba:65:cf:af:
                    ad:ad
                Exponent: 65537 (0x10001)
        X509v3 extensions:
            X509v3 Key Usage: 
                Digital Signature, Key Encipherment
            X509v3 Basic Constraints: 
                CA:FALSE
            Netscape Cert Type: 
                SSL Server
            Netscape Comment: 
                OpenSSL Generated Server Certificate
            X509v3 Subject Key Identifier: 
                E5:25:6D:3E:AF:0D:DD:3F:4C:F2:45:19:39:D5:14:DB:7E:9C:C0:AD
            X509v3 Authority Key Identifier: 
                keyid:F4:A7:C0:CC:91:46:AF:64:F3:91:F2:27:F8:C8:B2:6F:8A:87:32:73
                DirName:/C=DE/ST=Hessen/O=privacyidea/CN=CA001
                serial:FB:C8:EB:AC:83:CD:12:07

            X509v3 Extended Key Usage: 
                TLS Web Server Authentication
    Signature Algorithm: sha1WithRSAEncryption
         7b:0d:af:3a:1f:c4:9f:d1:f4:a3:4f:59:83:e0:e0:12:aa:53:
         6d:cd:8e:5c:7e:fe:43:17:13:39:a2:ec:96:c1:95:6f:84:bb:
         0f:0a:e6:db:af:61:08:3b:f7:f1:cd:37:1b:1e:0e:b7:fa:e2:
         92:5c:d7:f7:34:f3:b2:92:65:ae:a2:db:d7:b0:a5:06:9e:28:
         3e:1d:bd:41:9a:43:7d:ff:03:3a:d4:98:c2:56:fd:00:e3:cb:
         64:43:71:01:e7:70:83:b1:44:f7:7c:f9:77:12:06:5a:cd:fc:
         17:52:50:bf:79:d7:e8:f5:b4:48:60:c3:19:66:fb:ff:f5:75:
         18:18:2d:d3:74:81:c4:fd:4b:81:38:14:9e:88:1c:ad:97:a8:
         6c:4b:7e:a3:c3:c6:a6:26:01:6e:ae:c3:96:a7:74:ee:04:d5:
         27:5c:12:c7:00:02:b6:18:8f:29:5c:cb:3c:0c:76:11:7a:0d:
         61:c1:ae:13:0a:87:a0:25:b7:c5:68:37:e2:da:f4:7d:29:36:
         c7:8c:15:7e:fa:23:11:e5:a3:66:91:7d:ba:40:23:48:72:f2:
         9c:47:52:f0:82:e4:ac:f3:7a:98:1f:48:c2:44:50:ca:5d:53:
         c3:66:07:c0:c6:0b:03:cf:0a:ea:f0:93:a9:af:5e:6d:45:6e:
         42:6d:b2:f5
-----BEGIN CERTIFICATE-----
MIIECTCCAvGgAwIBAgIEEAAA4DANBgkqhkiG9w0BAQUFADBEMQswCQYDVQQGEwJE
RTEPMA0GA1UECAwGSGVzc2VuMRQwEgYDVQQKDAtwcml2YWN5aWRlYTEOMAwGA1UE
AwwFQ0EwMDEwHhcNMTUwOTIwMTU1NTUyWhcNMTYwOTE5MTU1NTUyWjA3MRMwEQYD
VQQDEwpTdGV2ZSBUZXN0MSAwHgYJKoZIhvcNAQkBFhFzdGV2ZUBvcGVuc3NsLm9y
ZzCCASIwDQYJKoZIhvcNAQEBBQADggEPADCCAQoCggEBANKBiSBRSA9z9BEyJNUf
HP1c9bbmxfBSgdzSr2ZKfJMxYVyv0W0GcANgfHIMiN1JzZ4CbNJa11MP89q+aWS1
DwwA47NQR6Ozm7oTUNZYWkurOeARygonZwN4ImZtkh4bXEmu5mvRjjudBtPGrE1T
QxCr6JbBh4KXmY8g05kSNzGE4Yr/KQNfIpA+f5vgIMGt3K5MORoxlhcCjLLZtA0g
Ept9hlT9M/3BKmJG+GCWz24BbyLfE0fnl+wFciOjYvj676yccvA3yy83z5CoJ1GG
xtd4CI9+JaIVcKL7HLYVXqCXi4FMCSiKJzuUvHHbW3E3misW4G+1yfVLTyC6Zc+v
ra0CAwEAAaOCAQ4wggEKMAsGA1UdDwQEAwIFoDAJBgNVHRMEAjAAMBEGCWCGSAGG
+EIBAQQEAwIGQDAzBglghkgBhvhCAQ0EJhYkT3BlblNTTCBHZW5lcmF0ZWQgU2Vy
dmVyIENlcnRpZmljYXRlMB0GA1UdDgQWBBTlJW0+rw3dP0zyRRk51RTbfpzArTB0
BgNVHSMEbTBrgBT0p8DMkUavZPOR8if4yLJviocyc6FIpEYwRDELMAkGA1UEBhMC
REUxDzANBgNVBAgMBkhlc3NlbjEUMBIGA1UECgwLcHJpdmFjeWlkZWExDjAMBgNV
BAMMBUNBMDAxggkA+8jrrIPNEgcwEwYDVR0lBAwwCgYIKwYBBQUHAwEwDQYJKoZI
hvcNAQEFBQADggEBAHsNrzofxJ/R9KNPWYPg4BKqU23Njlx+/kMXEzmi7JbBlW+E
uw8K5tuvYQg79/HNNxseDrf64pJc1/c087KSZa6i29ewpQaeKD4dvUGaQ33/AzrU
mMJW/QDjy2RDcQHncIOxRPd8+XcSBlrN/BdSUL951+j1tEhgwxlm+//1dRgYLdN0
gcT9S4E4FJ6IHK2XqGxLfqPDxqYmAW6uw5andO4E1SdcEscAArYYjylcyzwMdhF6
DWHBrhMKh6Alt8VoN+La9H0pNseMFX76IxHlo2aRfbpAI0hy8pxHUvCC5Kzzepgf
SMJEUMpdU8NmB8DGCwPPCurwk6mvXm1FbkJtsvU=
-----END CERTIFICATE-----
