Certificate:
    Data:
        Version: 3 (0x2)
        Serial Number: 268435655 (0x100000c7)
    Signature Algorithm: sha1WithRSAEncryption
        Issuer: C=DE, ST=Hessen, O=privacyidea, CN=CA001
        Validity
            Not Before: Apr 11 11:18:31 2016 GMT
            Not After : Apr 11 11:18:31 2017 GMT
        Subject: C=DE, ST=Hessen, O=privacyidea, CN=requester.localdomain
        Subject Public Key Info:
            Public Key Algorithm: rsaEncryption
                Public-Key: (2048 bit)
                Modulus:
                    00:cd:be:14:4f:fa:ce:01:3f:42:22:1b:1d:9c:af:
                    dd:92:d2:7f:db:6c:b7:3e:39:43:43:6b:13:03:f1:
                    05:f4:07:74:bc:76:69:28:0b:af:19:8e:d7:fc:e3:
                    cd:c6:58:f2:ca:7f:08:6d:53:fc:07:02:44:24:c6:
                    b4:34:4c:8c:04:fe:33:0e:40:e2:20:ba:02:73:5a:
                    f7:f5:4f:63:6e:cc:c6:b6:df:54:1d:37:39:7d:51:
                    36:26:5f:bd:dc:3f:a8:8b:6b:a2:ae:b6:9d:d6:21:
                    e7:df:41:b8:7a:28:2a:68:48:ca:a8:2d:ed:e1:e9:
                    46:5e:5a:72:6d:b4:84:38:87:91:fd:94:11:0b:28:
                    84:c6:c2:2f:2a:fb:01:f9:36:7a:09:75:d1:33:88:
                    3c:73:41:5b:c8:bf:94:89:70:a1:f0:c0:b9:2e:50:
                    53:1e:b1:17:64:69:f4:2d:81:e0:a9:0d:0e:32:e9:
                    ba:55:8a:85:f1:1b:6f:49:79:b4:7f:88:c3:0d:3e:
                    54:88:9b:3d:1f:38:8c:04:f3:ee:6a:63:2b:f5:c6:
                    db:b4:83:aa:c4:78:41:3a:7d:4b:e1:c8:3e:71:ca:
                    1b:61:59:ea:c6:c4:ca:32:5e:c9:e9:bf:12:29:e6:
                    c6:c3:63:fe:a0:55:da:7a:f1:60:98:4d:26:ed:fa:
                    70:2d
                Exponent: 65537 (0x10001)
        X509v3 extensions:
            X509v3 Key Usage: 
                Digital Signature, Key Encipherment
            X509v3 Basic Constraints: 
                CA:FALSE
            Netscape Cert Type: 
                SSL Server
            Netscape Comment: 
                OpenSSL Generated Server Certificate
            X509v3 Subject Key Identifier: 
                53:3F:ED:5D:09:07:B3:65:7B:AB:45:C9:24:5B:09:77:80:0A:96:ED
            X509v3 Authority Key Identifier: 
                keyid:F4:A7:C0:CC:91:46:AF:64:F3:91:F2:27:F8:C8:B2:6F:8A:87:32:73
                DirName:/C=DE/ST=Hessen/O=privacyidea/CN=CA001
                serial:FB:C8:EB:AC:83:CD:12:07

            X509v3 Extended Key Usage: 
                TLS Web Server Authentication
    Signature Algorithm: sha1WithRSAEncryption
         00:aa:26:c1:b0:0c:3f:cd:c1:62:88:3f:35:a0:68:4b:1f:54:
         5d:b3:c1:0d:61:e3:aa:34:5f:41:70:b8:e1:c8:08:46:4c:b4:
         b8:c0:f2:8d:22:7f:04:86:ea:0b:a2:77:a8:35:9c:f9:97:3a:
         e6:bb:e6:fa:9b:91:7b:c1:07:a8:2d:8c:a0:03:ee:e2:b5:7e:
         3d:16:bd:d0:13:13:4e:c4:2e:c1:28:e6:f2:b6:31:b6:c0:be:
         23:0f:8b:7b:62:c9:a0:6a:59:fe:34:4a:1d:46:30:d8:e6:52:
         53:7e:6c:52:b8:e3:a4:87:45:ad:99:cf:13:7d:ed:df:80:3c:
         7c:7e:fa:81:5b:8b:35:c4:a8:55:6b:3d:d8:7e:ee:a2:09:7c:
         5f:18:03:1e:d0:04:c1:f5:47:32:2d:f2:9a:e5:51:71:87:64:
         d3:86:b7:22:e5:b1:24:3a:e4:4a:bd:6a:e0:bd:a5:c1:6a:99:
         97:10:1e:41:69:56:3a:80:aa:28:a4:46:dd:a8:51:3f:63:9e:
         7a:bd:83:df:29:96:4d:cf:88:17:72:51:0c:a2:94:d8:96:65:
         0e:3d:20:57:8d:f7:ec:66:8d:40:7c:92:92:38:03:20:29:38:
         8e:f5:9f:68:f6:db:7f:e8:33:35:61:9f:62:f3:b0:93:a4:a8:
         b6:b7:39:2b
-----BEGIN CERTIFICATE-----
MIIEJjCCAw6gAwIBAgIEEAAAxzANBgkqhkiG9w0BAQUFADBEMQswCQYDVQQGEwJE
RTEPMA0GA1UECAwGSGVzc2VuMRQwEgYDVQQKDAtwcml2YWN5aWRlYTEOMAwGA1UE
AwwFQ0EwMDEwHhcNMTYwNDExMTExODMxWhcNMTcwNDExMTExODMxWjBUMQswCQYD
VQQGEwJERTEPMA0GA1UECAwGSGVzc2VuMRQwEgYDVQQKDAtwcml2YWN5aWRlYTEe
MBwGA1UEAwwVcmVxdWVzdGVyLmxvY2FsZG9tYWluMIIBIjANBgkqhkiG9w0BAQEF
AAOCAQ8AMIIBCgKCAQEAzb4UT/rOAT9CIhsdnK/dktJ/22y3PjlDQ2sTA/EF9Ad0
vHZpKAuvGY7X/OPNxljyyn8IbVP8BwJEJMa0NEyMBP4zDkDiILoCc1r39U9jbszG
tt9UHTc5fVE2Jl+93D+oi2uirrad1iHn30G4eigqaEjKqC3t4elGXlpybbSEOIeR
/ZQRCyiExsIvKvsB+TZ6CXXRM4g8c0FbyL+UiXCh8MC5LlBTHrEXZGn0LYHgqQ0O
Mum6VYqF8RtvSXm0f4jDDT5UiJs9HziMBPPuamMr9cbbtIOqxHhBOn1L4cg+ccob
YVnqxsTKMl7J6b8SKebGw2P+oFXaevFgmE0m7fpwLQIDAQABo4IBDjCCAQowCwYD
VR0PBAQDAgWgMAkGA1UdEwQCMAAwEQYJYIZIAYb4QgEBBAQDAgZAMDMGCWCGSAGG
+EIBDQQmFiRPcGVuU1NMIEdlbmVyYXRlZCBTZXJ2ZXIgQ2VydGlmaWNhdGUwHQYD
VR0OBBYEFFM/7V0JB7Nle6tFySRbCXeACpbtMHQGA1UdIwRtMGuAFPSnwMyRRq9k
85HyJ/jIsm+KhzJzoUikRjBEMQswCQYDVQQGEwJERTEPMA0GA1UECAwGSGVzc2Vu
MRQwEgYDVQQKDAtwcml2YWN5aWRlYTEOMAwGA1UEAwwFQ0EwMDGCCQD7yOusg80S
BzATBgNVHSUEDDAKBggrBgEFBQcDATANBgkqhkiG9w0BAQUFAAOCAQEAAKomwbAM
P83BYog/NaBoSx9UXbPBDWHjqjRfQXC44cgIRky0uMDyjSJ/BIbqC6J3qDWc+Zc6
5rvm+puRe8EHqC2MoAPu4rV+PRa90BMTTsQuwSjm8rYxtsC+Iw+Le2LJoGpZ/jRK
HUYw2OZSU35sUrjjpIdFrZnPE33t34A8fH76gVuLNcSoVWs92H7uogl8XxgDHtAE
wfVHMi3ymuVRcYdk04a3IuWxJDrkSr1q4L2lwWqZlxAeQWlWOoCqKKRG3ahRP2Oe
er2D3ymWTc+IF3JRDKKU2JZlDj0gV4337GaNQHySkjgDICk4jvWfaPbbf+gzNWGf
YvOwk6Sotrc5Kw==
-----END CERTIFICATE-----
