Certificate:
    Data:
        Version: 3 (0x2)
        Serial Number: 268435678 (0x100000de)
    Signature Algorithm: sha1WithRSAEncryption
        Issuer: C=DE, ST=Hessen, O=privacyidea, CN=CA001
        Validity
            Not Before: Apr 11 10:16:17 2016 GMT
            Not After : Apr 11 10:16:17 2017 GMT
        Subject: CN=selfservice,CN=user,O=realm1/emailAddress=meine
        Subject Public Key Info:
            Public Key Algorithm: rsaEncryption
                Public-Key: (2048 bit)
                Modulus:
                    00:cf:3c:d4:33:0e:12:c4:e6:da:cd:b6:56:a1:1c:
                    26:bb:26:1c:8a:4a:73:a8:58:8a:b6:1e:b3:8b:99:
                    d2:1d:07:c2:92:89:79:c0:69:d8:c8:df:28:61:98:
                    1e:b3:fe:ae:2b:bd:78:a9:f7:6e:47:dc:a3:a0:16:
                    8c:85:02:c1:4e:92:fd:72:6e:f0:c8:03:29:9b:b8:
                    00:6e:c0:83:95:c8:34:20:36:9c:b3:e5:e4:e6:76:
                    73:a3:1a:ad:40:96:e0:53:54:00:ec:76:79:9a:c6:
                    0d:7e:b6:bd:29:ec:83:f3:cb:89:a4:cb:6c:00:ba:
                    0c:c5:78:0f:ff:69:b8:94:f4:04:70:43:3f:d8:9e:
                    d7:a7:fb:5d:ce:75:8e:da:e7:c4:07:b1:9d:de:6f:
                    88:4b:b6:4d:9a:cf:f9:bc:fa:9f:cd:32:6d:f6:3a:
                    0b:0d:23:42:78:ec:97:42:bf:0e:4d:60:56:e1:d3:
                    02:f2:19:cb:84:57:90:e5:70:a1:a2:83:35:86:e2:
                    da:86:9f:f9:8a:c4:79:b3:52:28:da:cb:bb:34:ca:
                    d3:da:91:4a:cf:8d:76:a2:b2:6b:9b:f9:96:fd:09:
                    2a:da:11:23:4d:f0:cb:d6:b2:b1:0e:12:6c:9a:19:
                    65:98:87:ca:e4:ee:24:ce:44:ac:90:8f:9d:1b:c5:
                    2a:9d
                Exponent: 65537 (0x10001)
        X509v3 extensions:
            X509v3 Key Usage: 
                Digital Signature, Key Encipherment
            X509v3 Basic Constraints: 
                CA:FALSE
            Netscape Cert Type: 
                SSL Server
            Netscape Comment: 
                OpenSSL Generated Server Certificate
            X509v3 Subject Key Identifier: 
                4D:07:90:AD:FF:1D:0D:E7:1A:DD:D6:2E:FA:BA:34:CB:AA:1F:24:C6
            X509v3 Authority Key Identifier: 
                keyid:F4:A7:C0:CC:91:46:AF:64:F3:91:F2:27:F8:C8:B2:6F:8A:87:32:73
                DirName:/C=DE/ST=Hessen/O=privacyidea/CN=CA001
                serial:FB:C8:EB:AC:83:CD:12:07

            X509v3 Extended Key Usage: 
                TLS Web Server Authentication
    Signature Algorithm: sha1WithRSAEncryption
         76:bf:c5:2a:9a:70:9e:bf:09:79:94:8c:41:f2:a7:b1:3a:72:
         7d:c7:1c:48:8c:19:77:ff:b7:ea:c6:b0:58:55:ff:25:0b:c1:
         f1:bf:5a:da:3b:b5:bd:0b:cb:df:90:04:eb:16:63:c7:20:40:
         32:74:53:8d:03:40:21:6e:da:fd:33:3c:76:ad:b5:10:38:5c:
         b0:1a:44:e9:93:27:28:81:6b:40:ca:a4:92:b6:e3:50:58:33:
         6b:d2:06:73:a4:a2:a1:ba:d8:f9:a4:8e:10:67:31:47:d9:5f:
         74:06:18:98:da:ec:04:c1:5a:a5:58:1f:51:11:a3:73:46:42:
         ba:96:23:ca:c9:12:3a:13:8c:89:8f:b4:1e:d5:8b:d9:3b:28:
         f1:39:8f:ee:39:33:0b:b5:0c:df:f4:57:8c:f2:d6:e3:de:1b:
         03:f7:8c:26:45:f3:69:31:96:3e:64:28:22:8f:55:8f:23:65:
         b0:51:e1:5c:59:6a:07:5a:17:cb:f0:a1:89:26:18:ce:98:0e:
         a7:b1:44:b1:7b:b8:af:ee:b4:38:16:6a:ab:24:4e:52:f1:30:
         99:15:a5:5f:28:0d:b4:3c:20:b5:fc:b6:7c:20:52:88:35:00:
         4b:3b:cf:55:ff:c1:ac:c0:15:c2:f6:6a:e1:df:18:f8:f1:6e:
         9c:3c:b2:66
-----BEGIN CERTIFICATE-----
MIIEDzCCAvegAwIBAgIEEAAA3jANBgkqhkiG9w0BAQUFADBEMQswCQYDVQQGEwJE
RTEPMA0GA1UECAwGSGVzc2VuMRQwEgYDVQQKDAtwcml2YWN5aWRlYTEOMAwGA1UE
AwwFQ0EwMDEwHhcNMTYwNDExMTAxNjE3WhcNMTcwNDExMTAxNjE3WjA9MSUwIwYD
VQQDExxzZWxmc2VydmljZSxDTj11c2VyLE89cmVhbG0xMRQwEgYJKoZIhvcNAQkB
FgVtZWluZTCCASIwDQYJKoZIhvcNAQEBBQADggEPADCCAQoCggEBAM881DMOEsTm
2s22VqEcJrsmHIpKc6hYirYes4uZ0h0HwpKJecBp2MjfKGGYHrP+riu9eKn3bkfc
o6AWjIUCwU6S/XJu8MgDKZu4AG7Ag5XINCA2nLPl5OZ2c6MarUCW4FNUAOx2eZrG
DX62vSnsg/PLiaTLbAC6DMV4D/9puJT0BHBDP9ie16f7Xc51jtrnxAexnd5viEu2
TZrP+bz6n80ybfY6Cw0jQnjsl0K/Dk1gVuHTAvIZy4RXkOVwoaKDNYbi2oaf+YrE
ebNSKNrLuzTK09qRSs+NdqKya5v5lv0JKtoRI03wy9aysQ4SbJoZZZiHyuTuJM5E
rJCPnRvFKp0CAwEAAaOCAQ4wggEKMAsGA1UdDwQEAwIFoDAJBgNVHRMEAjAAMBEG
CWCGSAGG+EIBAQQEAwIGQDAzBglghkgBhvhCAQ0EJhYkT3BlblNTTCBHZW5lcmF0
ZWQgU2VydmVyIENlcnRpZmljYXRlMB0GA1UdDgQWBBRNB5Ct/x0N5xrd1i76ujTL
qh8kxjB0BgNVHSMEbTBrgBT0p8DMkUavZPOR8if4yLJviocyc6FIpEYwRDELMAkG
A1UEBhMCREUxDzANBgNVBAgMBkhlc3NlbjEUMBIGA1UECgwLcHJpdmFjeWlkZWEx
DjAMBgNVBAMMBUNBMDAxggkA+8jrrIPNEgcwEwYDVR0lBAwwCgYIKwYBBQUHAwEw
DQYJKoZIhvcNAQEFBQADggEBAHa/xSqacJ6/CXmUjEHyp7E6cn3HHEiMGXf/t+rG
sFhV/yULwfG/Wto7tb0Ly9+QBOsWY8cgQDJ0U40DQCFu2v0zPHattRA4XLAaROmT
JyiBa0DKpJK241BYM2vSBnOkoqG62PmkjhBnMUfZX3QGGJja7ATBWqVYH1ERo3NG
QrqWI8rJEjoTjImPtB7Vi9k7KPE5j+45Mwu1DN/0V4zy1uPeGwP3jCZF82kxlj5k
KCKPVY8jZbBR4VxZagdaF8vwoYkmGM6YDqexRLF7uK/utDgWaqskTlLxMJkVpV8o
DbQ8ILX8tnwgUog1AEs7z1X/wazAFcL2auHfGPjxbpw8smY=
-----END CERTIFICATE-----
