Certificate:
    Data:
        Version: 3 (0x2)
        Serial Number: 268435660 (0x100000cc)
    Signature Algorithm: sha1WithRSAEncryption
        Issuer: C=DE, ST=Hessen, O=privacyidea, CN=CA001
        Validity
            Not Before: Apr 11 08:28:49 2016 GMT
            Not After : Apr 11 08:28:49 2017 GMT
        Subject: C=DE, ST=Hessen, O=privacyidea, CN=requester.localdomain
        Subject Public Key Info:
            Public Key Algorithm: rsaEncryption
                Public-Key: (2048 bit)
                Modulus:
                    00:cd:be:14:4f:fa:ce:01:3f:42:22:1b:1d:9c:af:
                    dd:92:d2:7f:db:6c:b7:3e:39:43:43:6b:13:03:f1:
                    05:f4:07:74:bc:76:69:28:0b:af:19:8e:d7:fc:e3:
                    cd:c6:58:f2:ca:7f:08:6d:53:fc:07:02:44:24:c6:
                    b4:34:4c:8c:04:fe:33:0e:40:e2:20:ba:02:73:5a:
                    f7:f5:4f:63:6e:cc:c6:b6:df:54:1d:37:39:7d:51:
                    36:26:5f:bd:dc:3f:a8:8b:6b:a2:ae:b6:9d:d6:21:
                    e7:df:41:b8:7a:28:2a:68:48:ca:a8:2d:ed:e1:e9:
                    46:5e:5a:72:6d:b4:84:38:87:91:fd:94:11:0b:28:
                    84:c6:c2:2f:2a:fb:01:f9:36:7a:09:75:d1:33:88:
                    3c:73:41:5b:c8:bf:94:89:70:a1:f0:c0:b9:2e:50:
                    53:1e:b1:17:64:69:f4:2d:81:e0:a9:0d:0e:32:e9:
                    ba:55:8a:85:f1:1b:6f:49:79:b4:7f:88:c3:0d:3e:
                    54:88:9b:3d:1f:38:8c:04:f3:ee:6a:63:2b:f5:c6:
                    db:b4:83:aa:c4:78:41:3a:7d:4b:e1:c8:3e:71:ca:
                    1b:61:59:ea:c6:c4:ca:32:5e:c9:e9:bf:12:29:e6:
                    c6:c3:63:fe:a0:55:da:7a:f1:60:98:4d:26:ed:fa:
                    70:2d
                Exponent: 65537 (0x10001)
        X509v3 extensions:
            X509v3 Key Usage: 
                Digital Signature, Key Encipherment
            X509v3 Basic Constraints: 
                CA:FALSE
            Netscape Cert Type: 
                SSL Server
            Netscape Comment: 
                OpenSSL Generated Server Certificate
            X509v3 Subject Key Identifier: 
                53:3F:ED:5D:09:07:B3:65:7B:AB:45:C9:24:5B:09:77:80:0A:96:ED
            X509v3 Authority Key Identifier: 
                keyid:F4:A7:C0:CC:91:46:AF:64:F3:91:F2:27:F8:C8:B2:6F:8A:87:32:73
                DirName:/C=DE/ST=Hessen/O=privacyidea/CN=CA001
                serial:FB:C8:EB:AC:83:CD:12:07

            X509v3 Extended Key Usage: 
                TLS Web Server Authentication
    Signature Algorithm: sha1WithRSAEncryption
         ab:8e:a8:ea:c5:ba:7c:d9:ac:12:5a:30:c0:75:92:5b:59:12:
         fc:f7:fa:ab:f2:25:ac:a9:ee:39:61:56:1f:38:ea:b8:b0:9a:
         dd:a7:f1:68:32:94:64:b0:a9:d3:60:49:52:f5:50:05:95:8b:
         c0:5b:4c:e9:7c:04:c0:07:23:35:b6:8a:c3:b0:6b:69:de:f7:
         21:d2:cb:18:ba:66:5c:87:6a:9e:03:ae:23:9c:ba:40:6a:09:
         0b:f6:64:43:c3:c5:fe:7c:26:a1:be:d1:09:48:45:4a:61:fc:
         94:4d:ae:49:f0:f5:8b:65:22:4e:54:75:6a:15:1b:0f:05:10:
         74:3a:c4:ba:de:d1:f9:97:01:1d:5d:07:6e:33:b7:f4:42:7a:
         5b:68:2d:e9:3d:09:7d:ab:e0:23:e9:67:2e:90:2d:ee:bf:76:
         ee:75:35:c2:39:1e:20:44:b1:bf:9c:f2:3f:e5:7b:5f:b3:8e:
         cd:7e:d2:ae:8a:79:f9:35:b9:99:f0:a9:68:05:07:fd:f9:65:
         b2:d0:a6:48:5a:f9:50:51:a3:02:e0:2b:1f:cb:0f:8f:96:7c:
         ec:d3:ac:1a:f2:d5:08:52:91:e3:f3:aa:46:b9:2d:58:a5:fc:
         99:3b:cb:7b:d0:7b:b8:dc:54:fc:e7:09:06:8c:82:db:39:41:
         ee:5f:d6:bb
-----BEGIN CERTIFICATE-----
MIIEJjCCAw6gAwIBAgIEEAAAzDANBgkqhkiG9w0BAQUFADBEMQswCQYDVQQGEwJE
RTEPMA0GA1UECAwGSGVzc2VuMRQwEgYDVQQKDAtwcml2YWN5aWRlYTEOMAwGA1UE
AwwFQ0EwMDEwHhcNMTYwNDExMDgyODQ5WhcNMTcwNDExMDgyODQ5WjBUMQswCQYD
VQQGEwJERTEPMA0GA1UECAwGSGVzc2VuMRQwEgYDVQQKDAtwcml2YWN5aWRlYTEe
MBwGA1UEAwwVcmVxdWVzdGVyLmxvY2FsZG9tYWluMIIBIjANBgkqhkiG9w0BAQEF
AAOCAQ8AMIIBCgKCAQEAzb4UT/rOAT9CIhsdnK/dktJ/22y3PjlDQ2sTA/EF9Ad0
vHZpKAuvGY7X/OPNxljyyn8IbVP8BwJEJMa0NEyMBP4zDkDiILoCc1r39U9jbszG
tt9UHTc5fVE2Jl+93D+oi2uirrad1iHn30G4eigqaEjKqC3t4elGXlpybbSEOIeR
/ZQRCyiExsIvKvsB+TZ6CXXRM4g8c0FbyL+UiXCh8MC5LlBTHrEXZGn0LYHgqQ0O
Mum6VYqF8RtvSXm0f4jDDT5UiJs9HziMBPPuamMr9cbbtIOqxHhBOn1L4cg+ccob
YVnqxsTKMl7J6b8SKebGw2P+oFXaevFgmE0m7fpwLQIDAQABo4IBDjCCAQowCwYD
VR0PBAQDAgWgMAkGA1UdEwQCMAAwEQYJYIZIAYb4QgEBBAQDAgZAMDMGCWCGSAGG
+EIBDQQmFiRPcGVuU1NMIEdlbmVyYXRlZCBTZXJ2ZXIgQ2VydGlmaWNhdGUwHQYD
VR0OBBYEFFM/7V0JB7Nle6tFySRbCXeACpbtMHQGA1UdIwRtMGuAFPSnwMyRRq9k
85HyJ/jIsm+KhzJzoUikRjBEMQswCQYDVQQGEwJERTEPMA0GA1UECAwGSGVzc2Vu
MRQwEgYDVQQKDAtwcml2YWN5aWRlYTEOMAwGA1UEAwwFQ0EwMDGCCQD7yOusg80S
BzATBgNVHSUEDDAKBggrBgEFBQcDATANBgkqhkiG9w0BAQUFAAOCAQEAq46o6sW6
fNmsElowwHWSW1kS/Pf6q/IlrKnuOWFWHzjquLCa3afxaDKUZLCp02BJUvVQBZWL
wFtM6XwEwAcjNbaKw7Brad73IdLLGLpmXIdqngOuI5y6QGoJC/ZkQ8PF/nwmob7R
CUhFSmH8lE2uSfD1i2UiTlR1ahUbDwUQdDrEut7R+ZcBHV0HbjO39EJ6W2gt6T0J
favgI+lnLpAt7r927nU1wjkeIESxv5zyP+V7X7OOzX7Srop5+TW5mfCpaAUH/fll
stCmSFr5UFGjAuArH8sPj5Z87NOsGvLVCFKR4/OqRrktWKX8mTvLe9B7uNxU/OcJ
BoyC2zlB7l/Wuw==
-----END CERTIFICATE-----
