Certificate:
    Data:
        Version: 3 (0x2)
        Serial Number: 268435675 (0x100000db)
    Signature Algorithm: sha1WithRSAEncryption
        Issuer: C=DE, ST=Hessen, O=privacyidea, CN=CA001
        Validity
            Not Before: Apr 11 10:05:55 2016 GMT
            Not After : Apr 11 10:05:55 2017 GMT
        Subject: C=DE, ST=Hessen, O=privacyidea, CN=usercert
        Subject Public Key Info:
            Public Key Algorithm: rsaEncryption
                Public-Key: (2048 bit)
                Modulus:
                    00:dc:2f:d1:5f:29:97:d4:7c:c3:53:c8:30:bd:4b:
                    67:70:2c:24:6b:b8:5e:eb:21:7a:48:12:56:7c:81:
                    5c:48:75:b6:68:eb:f6:f2:98:4e:50:51:d1:7f:6c:
                    73:f3:0a:a7:ae:be:48:5e:e5:d6:e1:d9:2a:7c:32:
                    6e:4e:fd:08:f6:5a:54:49:23:73:c3:b9:07:18:d1:
                    ef:b3:ac:f8:8a:dc:94:96:a4:90:3a:8e:74:df:e6:
                    0d:37:1b:bd:5b:b7:25:1a:56:39:da:6f:91:aa:5e:
                    1c:74:f3:f9:7c:14:01:83:12:65:76:c7:bb:fe:36:
                    5b:95:e9:72:65:83:ed:3e:98:30:71:fa:87:dd:a3:
                    36:5a:30:03:2e:26:e0:61:d1:bf:02:3f:b6:06:1f:
                    4a:89:28:1c:5c:a2:ff:4e:be:94:e6:8c:e0:da:82:
                    f1:9d:29:32:48:30:73:b4:04:f6:42:1e:be:f7:e2:
                    32:32:27:3c:9d:89:2f:70:3e:85:9a:6f:5c:c5:09:
                    c0:8c:32:2f:72:22:c9:d2:95:1f:b6:ac:72:60:72:
                    b7:82:4d:6b:ce:5b:e3:00:d0:d2:2f:58:c6:e0:10:
                    e5:51:ca:4d:3b:2e:e6:7e:ab:84:d6:56:f1:93:35:
                    a0:93:64:26:81:75:2f:91:b5:16:06:38:0b:db:cc:
                    2d:07
                Exponent: 65537 (0x10001)
        X509v3 extensions:
            X509v3 Key Usage: 
                Digital Signature, Key Encipherment
            X509v3 Basic Constraints: 
                CA:FALSE
            Netscape Cert Type: 
                SSL Server
            Netscape Comment: 
                OpenSSL Generated Server Certificate
            X509v3 Subject Key Identifier: 
                FC:14:D1:F0:4B:8D:00:90:F2:F5:B8:71:9E:4E:97:C3:92:54:AD:0B
            X509v3 Authority Key Identifier: 
                keyid:F4:A7:C0:CC:91:46:AF:64:F3:91:F2:27:F8:C8:B2:6F:8A:87:32:73
                DirName:/C=DE/ST=Hessen/O=privacyidea/CN=CA001
                serial:FB:C8:EB:AC:83:CD:12:07

            X509v3 Extended Key Usage: 
                TLS Web Server Authentication
    Signature Algorithm: sha1WithRSAEncryption
         73:ff:41:e9:71:9f:bb:e5:bc:17:f6:23:d1:2f:44:6c:5a:76:
         02:aa:b1:11:f2:f3:45:f8:a4:99:2e:57:71:66:5b:3a:cf:66:
         64:ad:93:59:f1:7d:72:d8:e6:d9:70:9a:42:1e:80:34:3d:4b:
         90:36:b7:ad:57:30:ec:06:c4:af:50:4f:c0:48:b9:e2:6e:2f:
         e7:7f:51:4c:0a:68:6b:d3:e5:f9:b2:8e:6f:5a:98:a0:63:e1:
         c4:a5:9a:49:cd:b8:ca:be:8e:9e:67:b8:28:7e:2b:52:0a:3a:
         0e:fd:2c:c2:fb:57:3a:50:cc:f5:d6:04:ec:56:7c:71:d5:86:
         19:56:24:ce:04:01:31:80:77:1a:e2:79:13:9e:83:2a:f0:9b:
         8b:54:a9:3d:f2:a1:8c:94:e6:14:1a:db:e9:4d:72:54:07:64:
         5a:f0:a7:48:de:ed:61:09:e3:67:af:90:a6:2f:84:f2:b8:1f:
         05:6c:fa:6e:66:62:85:12:d2:f1:d4:35:e7:07:2e:20:4d:8a:
         ed:70:28:a1:a5:58:4c:32:a6:57:ca:d4:c4:db:ed:e3:04:d8:
         b5:09:43:d1:83:7d:32:37:fa:dd:a9:f7:93:4f:45:28:4e:f9:
         3b:f7:aa:6a:6e:d4:e9:e5:a2:99:d4:0e:a1:99:5d:c1:6a:40:
         b8:1c:90:d0
-----BEGIN CERTIFICATE-----
MIIEGTCCAwGgAwIBAgIEEAAA2zANBgkqhkiG9w0BAQUFADBEMQswCQYDVQQGEwJE
RTEPMA0GA1UECAwGSGVzc2VuMRQwEgYDVQQKDAtwcml2YWN5aWRlYTEOMAwGA1UE
AwwFQ0EwMDEwHhcNMTYwNDExMTAwNTU1WhcNMTcwNDExMTAwNTU1WjBHMQswCQYD
VQQGEwJERTEPMA0GA1UECAwGSGVzc2VuMRQwEgYDVQQKDAtwcml2YWN5aWRlYTER
MA8GA1UEAwwIdXNlcmNlcnQwggEiMA0GCSqGSIb3DQEBAQUAA4IBDwAwggEKAoIB
AQDcL9FfKZfUfMNTyDC9S2dwLCRruF7rIXpIElZ8gVxIdbZo6/bymE5QUdF/bHPz
Cqeuvkhe5dbh2Sp8Mm5O/Qj2WlRJI3PDuQcY0e+zrPiK3JSWpJA6jnTf5g03G71b
tyUaVjnab5GqXhx08/l8FAGDEmV2x7v+NluV6XJlg+0+mDBx+ofdozZaMAMuJuBh
0b8CP7YGH0qJKBxcov9OvpTmjODagvGdKTJIMHO0BPZCHr734jIyJzydiS9wPoWa
b1zFCcCMMi9yIsnSlR+2rHJgcreCTWvOW+MA0NIvWMbgEOVRyk07LuZ+q4TWVvGT
NaCTZCaBdS+RtRYGOAvbzC0HAgMBAAGjggEOMIIBCjALBgNVHQ8EBAMCBaAwCQYD
VR0TBAIwADARBglghkgBhvhCAQEEBAMCBkAwMwYJYIZIAYb4QgENBCYWJE9wZW5T
U0wgR2VuZXJhdGVkIFNlcnZlciBDZXJ0aWZpY2F0ZTAdBgNVHQ4EFgQU/BTR8EuN
AJDy9bhxnk6Xw5JUrQswdAYDVR0jBG0wa4AU9KfAzJFGr2TzkfIn+Miyb4qHMnOh
SKRGMEQxCzAJBgNVBAYTAkRFMQ8wDQYDVQQIDAZIZXNzZW4xFDASBgNVBAoMC3By
aXZhY3lpZGVhMQ4wDAYDVQQDDAVDQTAwMYIJAPvI66yDzRIHMBMGA1UdJQQMMAoG
CCsGAQUFBwMBMA0GCSqGSIb3DQEBBQUAA4IBAQBz/0HpcZ+75bwX9iPRL0RsWnYC
qrER8vNF+KSZLldxZls6z2ZkrZNZ8X1y2ObZcJpCHoA0PUuQNretVzDsBsSvUE/A
SLnibi/nf1FMCmhr0+X5so5vWpigY+HEpZpJzbjKvo6eZ7gofitSCjoO/SzC+1c6
UMz11gTsVnxx1YYZViTOBAExgHca4nkTnoMq8JuLVKk98qGMlOYUGtvpTXJUB2Ra
8KdI3u1hCeNnr5CmL4TyuB8FbPpuZmKFEtLx1DXnBy4gTYrtcCihpVhMMqZXytTE
2+3jBNi1CUPRg30yN/rdqfeTT0UoTvk796pqbtTp5aKZ1A6hmV3BakC4HJDQ
-----END CERTIFICATE-----
