Certificate:
    Data:
        Version: 3 (0x2)
        Serial Number: 268435687 (0x100000e7)
    Signature Algorithm: sha1WithRSAEncryption
        Issuer: C=DE, ST=Hessen, O=privacyidea, CN=CA001
        Validity
            Not Before: Sep 20 16:45:39 2015 GMT
            Not After : Sep 19 16:45:39 2016 GMT
        Subject: C=DE, ST=Hessen, O=privacyidea, CN=requester.localdomain
        Subject Public Key Info:
            Public Key Algorithm: rsaEncryption
                Public-Key: (2048 bit)
                Modulus:
                    00:cd:be:14:4f:fa:ce:01:3f:42:22:1b:1d:9c:af:
                    dd:92:d2:7f:db:6c:b7:3e:39:43:43:6b:13:03:f1:
                    05:f4:07:74:bc:76:69:28:0b:af:19:8e:d7:fc:e3:
                    cd:c6:58:f2:ca:7f:08:6d:53:fc:07:02:44:24:c6:
                    b4:34:4c:8c:04:fe:33:0e:40:e2:20:ba:02:73:5a:
                    f7:f5:4f:63:6e:cc:c6:b6:df:54:1d:37:39:7d:51:
                    36:26:5f:bd:dc:3f:a8:8b:6b:a2:ae:b6:9d:d6:21:
                    e7:df:41:b8:7a:28:2a:68:48:ca:a8:2d:ed:e1:e9:
                    46:5e:5a:72:6d:b4:84:38:87:91:fd:94:11:0b:28:
                    84:c6:c2:2f:2a:fb:01:f9:36:7a:09:75:d1:33:88:
                    3c:73:41:5b:c8:bf:94:89:70:a1:f0:c0:b9:2e:50:
                    53:1e:b1:17:64:69:f4:2d:81:e0:a9:0d:0e:32:e9:
                    ba:55:8a:85:f1:1b:6f:49:79:b4:7f:88:c3:0d:3e:
                    54:88:9b:3d:1f:38:8c:04:f3:ee:6a:63:2b:f5:c6:
                    db:b4:83:aa:c4:78:41:3a:7d:4b:e1:c8:3e:71:ca:
                    1b:61:59:ea:c6:c4:ca:32:5e:c9:e9:bf:12:29:e6:
                    c6:c3:63:fe:a0:55:da:7a:f1:60:98:4d:26:ed:fa:
                    70:2d
                Exponent: 65537 (0x10001)
        X509v3 extensions:
            X509v3 Key Usage: 
                Digital Signature, Key Encipherment
            X509v3 Basic Constraints: 
                CA:FALSE
            Netscape Cert Type: 
                SSL Server
            Netscape Comment: 
                OpenSSL Generated Server Certificate
            X509v3 Subject Key Identifier: 
                53:3F:ED:5D:09:07:B3:65:7B:AB:45:C9:24:5B:09:77:80:0A:96:ED
            X509v3 Authority Key Identifier: 
                keyid:F4:A7:C0:CC:91:46:AF:64:F3:91:F2:27:F8:C8:B2:6F:8A:87:32:73
                DirName:/C=DE/ST=Hessen/O=privacyidea/CN=CA001
                serial:FB:C8:EB:AC:83:CD:12:07

            X509v3 Extended Key Usage: 
                TLS Web Server Authentication
    Signature Algorithm: sha1WithRSAEncryption
         4b:fa:b3:28:4c:96:af:34:03:4b:13:7b:de:a6:d3:e8:a1:25:
         a2:60:96:cd:ea:e9:81:65:9b:dc:c3:08:a2:c9:15:77:9d:b5:
         18:18:d1:ec:a5:f4:61:33:d9:71:fb:24:a9:ad:55:c8:43:f2:
         6f:f4:ed:ac:c6:53:7c:b5:b9:0f:83:d5:c9:67:0c:85:79:1d:
         a0:7b:4e:0d:fe:4c:92:77:4d:ff:78:84:c3:f0:7f:15:2d:b8:
         67:f3:27:53:3c:8a:4d:d5:8e:99:08:f1:18:6b:29:9e:8c:e4:
         c1:4b:fe:11:36:e7:c3:b6:5e:54:97:74:90:21:27:c3:96:3a:
         20:46:b0:d0:bb:fa:98:af:3a:83:79:31:8c:92:53:28:b0:61:
         6e:a0:2a:a0:09:e0:1a:b9:69:4b:58:98:35:a7:6f:90:f3:e1:
         89:50:46:92:cc:0d:39:1e:79:13:14:5d:9d:7f:d3:e9:fe:18:
         22:77:bc:1f:25:be:6e:d1:3f:a1:5b:5a:d4:20:6f:18:a2:1f:
         5e:25:00:f0:1e:45:3a:56:27:91:7f:08:a4:dd:2f:c9:a1:49:
         24:4d:e3:fb:22:d6:e9:e7:53:8e:87:c3:07:63:ca:80:10:78:
         3f:7c:4f:e4:ef:4d:75:24:7d:1f:3a:1b:01:0b:cb:80:dd:27:
         e5:fd:68:56
-----BEGIN CERTIFICATE-----
MIIEJjCCAw6gAwIBAgIEEAAA5zANBgkqhkiG9w0BAQUFADBEMQswCQYDVQQGEwJE
RTEPMA0GA1UECAwGSGVzc2VuMRQwEgYDVQQKDAtwcml2YWN5aWRlYTEOMAwGA1UE
AwwFQ0EwMDEwHhcNMTUwOTIwMTY0NTM5WhcNMTYwOTE5MTY0NTM5WjBUMQswCQYD
VQQGEwJERTEPMA0GA1UECAwGSGVzc2VuMRQwEgYDVQQKDAtwcml2YWN5aWRlYTEe
MBwGA1UEAwwVcmVxdWVzdGVyLmxvY2FsZG9tYWluMIIBIjANBgkqhkiG9w0BAQEF
AAOCAQ8AMIIBCgKCAQEAzb4UT/rOAT9CIhsdnK/dktJ/22y3PjlDQ2sTA/EF9Ad0
vHZpKAuvGY7X/OPNxljyyn8IbVP8BwJEJMa0NEyMBP4zDkDiILoCc1r39U9jbszG
tt9UHTc5fVE2Jl+93D+oi2uirrad1iHn30G4eigqaEjKqC3t4elGXlpybbSEOIeR
/ZQRCyiExsIvKvsB+TZ6CXXRM4g8c0FbyL+UiXCh8MC5LlBTHrEXZGn0LYHgqQ0O
Mum6VYqF8RtvSXm0f4jDDT5UiJs9HziMBPPuamMr9cbbtIOqxHhBOn1L4cg+ccob
YVnqxsTKMl7J6b8SKebGw2P+oFXaevFgmE0m7fpwLQIDAQABo4IBDjCCAQowCwYD
VR0PBAQDAgWgMAkGA1UdEwQCMAAwEQYJYIZIAYb4QgEBBAQDAgZAMDMGCWCGSAGG
+EIBDQQmFiRPcGVuU1NMIEdlbmVyYXRlZCBTZXJ2ZXIgQ2VydGlmaWNhdGUwHQYD
VR0OBBYEFFM/7V0JB7Nle6tFySRbCXeACpbtMHQGA1UdIwRtMGuAFPSnwMyRRq9k
85HyJ/jIsm+KhzJzoUikRjBEMQswCQYDVQQGEwJERTEPMA0GA1UECAwGSGVzc2Vu
MRQwEgYDVQQKDAtwcml2YWN5aWRlYTEOMAwGA1UEAwwFQ0EwMDGCCQD7yOusg80S
BzATBgNVHSUEDDAKBggrBgEFBQcDATANBgkqhkiG9w0BAQUFAAOCAQEAS/qzKEyW
rzQDSxN73qbT6KElomCWzerpgWWb3MMIoskVd521GBjR7KX0YTPZcfskqa1VyEPy
b/TtrMZTfLW5D4PVyWcMhXkdoHtODf5MkndN/3iEw/B/FS24Z/MnUzyKTdWOmQjx
GGspnozkwUv+ETbnw7ZeVJd0kCEnw5Y6IEaw0Lv6mK86g3kxjJJTKLBhbqAqoAng
GrlpS1iYNadvkPPhiVBGkswNOR55ExRdnX/T6f4YIne8HyW+btE/oVta1CBvGKIf
XiUA8B5FOlYnkX8IpN0vyaFJJE3j+yLW6edTjofDB2PKgBB4P3xP5O9NdSR9Hzob
AQvLgN0n5f1oVg==
-----END CERTIFICATE-----
