Certificate:
    Data:
        Version: 3 (0x2)
        Serial Number: 268435653 (0x100000c5)
    Signature Algorithm: sha1WithRSAEncryption
        Issuer: C=DE, ST=Hessen, O=privacyidea, CN=CA001
        Validity
            Not Before: Apr 11 11:15:57 2016 GMT
            Not After : Apr 11 11:15:57 2017 GMT
        Subject: C=DE, ST=Hessen, O=privacyidea, CN=usercert
        Subject Public Key Info:
            Public Key Algorithm: rsaEncryption
                Public-Key: (2048 bit)
                Modulus:
                    00:dc:2f:d1:5f:29:97:d4:7c:c3:53:c8:30:bd:4b:
                    67:70:2c:24:6b:b8:5e:eb:21:7a:48:12:56:7c:81:
                    5c:48:75:b6:68:eb:f6:f2:98:4e:50:51:d1:7f:6c:
                    73:f3:0a:a7:ae:be:48:5e:e5:d6:e1:d9:2a:7c:32:
                    6e:4e:fd:08:f6:5a:54:49:23:73:c3:b9:07:18:d1:
                    ef:b3:ac:f8:8a:dc:94:96:a4:90:3a:8e:74:df:e6:
                    0d:37:1b:bd:5b:b7:25:1a:56:39:da:6f:91:aa:5e:
                    1c:74:f3:f9:7c:14:01:83:12:65:76:c7:bb:fe:36:
                    5b:95:e9:72:65:83:ed:3e:98:30:71:fa:87:dd:a3:
                    36:5a:30:03:2e:26:e0:61:d1:bf:02:3f:b6:06:1f:
                    4a:89:28:1c:5c:a2:ff:4e:be:94:e6:8c:e0:da:82:
                    f1:9d:29:32:48:30:73:b4:04:f6:42:1e:be:f7:e2:
                    32:32:27:3c:9d:89:2f:70:3e:85:9a:6f:5c:c5:09:
                    c0:8c:32:2f:72:22:c9:d2:95:1f:b6:ac:72:60:72:
                    b7:82:4d:6b:ce:5b:e3:00:d0:d2:2f:58:c6:e0:10:
                    e5:51:ca:4d:3b:2e:e6:7e:ab:84:d6:56:f1:93:35:
                    a0:93:64:26:81:75:2f:91:b5:16:06:38:0b:db:cc:
                    2d:07
                Exponent: 65537 (0x10001)
        X509v3 extensions:
            X509v3 Key Usage: 
                Digital Signature, Key Encipherment
            X509v3 Basic Constraints: 
                CA:FALSE
            Netscape Cert Type: 
                SSL Server
            Netscape Comment: 
                OpenSSL Generated Server Certificate
            X509v3 Subject Key Identifier: 
                FC:14:D1:F0:4B:8D:00:90:F2:F5:B8:71:9E:4E:97:C3:92:54:AD:0B
            X509v3 Authority Key Identifier: 
                keyid:F4:A7:C0:CC:91:46:AF:64:F3:91:F2:27:F8:C8:B2:6F:8A:87:32:73
                DirName:/C=DE/ST=Hessen/O=privacyidea/CN=CA001
                serial:FB:C8:EB:AC:83:CD:12:07

            X509v3 Extended Key Usage: 
                TLS Web Server Authentication
    Signature Algorithm: sha1WithRSAEncryption
         88:aa:46:c0:75:37:0a:4b:39:a1:83:f5:34:2d:52:11:6c:26:
         43:0a:31:40:d9:c5:96:eb:dc:ff:16:7a:79:d8:ca:a9:f5:38:
         51:1b:fb:62:20:f6:f8:e5:9f:29:e2:c7:ac:47:fa:f0:96:ba:
         3b:ad:69:0e:16:75:27:30:bc:04:a0:29:c9:89:b8:bc:88:40:
         67:d6:57:d1:a2:a6:44:ea:6b:25:35:47:52:a3:7c:0d:e5:98:
         f3:6a:c7:a0:52:27:a1:e9:39:61:dd:ac:f2:af:90:1d:47:79:
         14:ad:6e:13:f9:e1:74:ff:98:dd:6d:ba:4b:44:8c:c8:90:01:
         b4:76:79:43:5a:46:03:ed:94:c1:56:96:ac:53:ba:3f:9c:94:
         ba:de:d2:31:d5:a5:c7:72:cf:11:15:f1:ba:dc:00:3b:a4:d2:
         8e:bd:a5:38:3e:07:bc:70:20:2a:67:9c:e0:69:c9:fa:cf:bb:
         7f:4e:c0:70:1a:64:84:63:01:71:46:3c:17:e8:3a:d6:17:61:
         50:b9:0d:fe:9d:0e:20:d9:65:6a:bb:9d:d3:93:19:ea:e0:f4:
         d7:95:21:77:38:cd:f3:25:ee:9c:7f:59:f2:e2:d4:2f:4c:f0:
         e2:93:cc:e2:eb:2b:3f:52:cc:cd:cf:1c:ff:7a:5c:d2:c5:63:
         ae:6b:77:e3
-----BEGIN CERTIFICATE-----
MIIEGTCCAwGgAwIBAgIEEAAAxTANBgkqhkiG9w0BAQUFADBEMQswCQYDVQQGEwJE
RTEPMA0GA1UECAwGSGVzc2VuMRQwEgYDVQQKDAtwcml2YWN5aWRlYTEOMAwGA1UE
AwwFQ0EwMDEwHhcNMTYwNDExMTExNTU3WhcNMTcwNDExMTExNTU3WjBHMQswCQYD
VQQGEwJERTEPMA0GA1UECAwGSGVzc2VuMRQwEgYDVQQKDAtwcml2YWN5aWRlYTER
MA8GA1UEAwwIdXNlcmNlcnQwggEiMA0GCSqGSIb3DQEBAQUAA4IBDwAwggEKAoIB
AQDcL9FfKZfUfMNTyDC9S2dwLCRruF7rIXpIElZ8gVxIdbZo6/bymE5QUdF/bHPz
Cqeuvkhe5dbh2Sp8Mm5O/Qj2WlRJI3PDuQcY0e+zrPiK3JSWpJA6jnTf5g03G71b
tyUaVjnab5GqXhx08/l8FAGDEmV2x7v+NluV6XJlg+0+mDBx+ofdozZaMAMuJuBh
0b8CP7YGH0qJKBxcov9OvpTmjODagvGdKTJIMHO0BPZCHr734jIyJzydiS9wPoWa
b1zFCcCMMi9yIsnSlR+2rHJgcreCTWvOW+MA0NIvWMbgEOVRyk07LuZ+q4TWVvGT
NaCTZCaBdS+RtRYGOAvbzC0HAgMBAAGjggEOMIIBCjALBgNVHQ8EBAMCBaAwCQYD
VR0TBAIwADARBglghkgBhvhCAQEEBAMCBkAwMwYJYIZIAYb4QgENBCYWJE9wZW5T
U0wgR2VuZXJhdGVkIFNlcnZlciBDZXJ0aWZpY2F0ZTAdBgNVHQ4EFgQU/BTR8EuN
AJDy9bhxnk6Xw5JUrQswdAYDVR0jBG0wa4AU9KfAzJFGr2TzkfIn+Miyb4qHMnOh
SKRGMEQxCzAJBgNVBAYTAkRFMQ8wDQYDVQQIDAZIZXNzZW4xFDASBgNVBAoMC3By
aXZhY3lpZGVhMQ4wDAYDVQQDDAVDQTAwMYIJAPvI66yDzRIHMBMGA1UdJQQMMAoG
CCsGAQUFBwMBMA0GCSqGSIb3DQEBBQUAA4IBAQCIqkbAdTcKSzmhg/U0LVIRbCZD
CjFA2cWW69z/Fnp52Mqp9ThRG/tiIPb45Z8p4sesR/rwlro7rWkOFnUnMLwEoCnJ
ibi8iEBn1lfRoqZE6mslNUdSo3wN5ZjzasegUieh6Tlh3azyr5AdR3kUrW4T+eF0
/5jdbbpLRIzIkAG0dnlDWkYD7ZTBVpasU7o/nJS63tIx1aXHcs8RFfG63AA7pNKO
vaU4Pge8cCAqZ5zgacn6z7t/TsBwGmSEYwFxRjwX6DrWF2FQuQ3+nQ4g2WVqu53T
kxnq4PTXlSF3OM3zJe6cf1ny4tQvTPDik8zi6ys/UszNzxz/elzSxWOua3fj
-----END CERTIFICATE-----
