Certificate:
    Data:
        Version: 3 (0x2)
        Serial Number: 268435670 (0x100000d6)
    Signature Algorithm: sha1WithRSAEncryption
        Issuer: C=DE, ST=Hessen, O=privacyidea, CN=CA001
        Validity
            Not Before: Apr 11 09:02:32 2016 GMT
            Not After : Apr 11 09:02:32 2017 GMT
        Subject: CN=Steve Test/emailAddress=steve@openssl.org
        Subject Public Key Info:
            Public Key Algorithm: rsaEncryption
                Public-Key: (2048 bit)
                Modulus:
                    00:d2:81:89:20:51:48:0f:73:f4:11:32:24:d5:1f:
                    1c:fd:5c:f5:b6:e6:c5:f0:52:81:dc:d2:af:66:4a:
                    7c:93:31:61:5c:af:d1:6d:06:70:03:60:7c:72:0c:
                    88:dd:49:cd:9e:02:6c:d2:5a:d7:53:0f:f3:da:be:
                    69:64:b5:0f:0c:00:e3:b3:50:47:a3:b3:9b:ba:13:
                    50:d6:58:5a:4b:ab:39:e0:11:ca:0a:27:67:03:78:
                    22:66:6d:92:1e:1b:5c:49:ae:e6:6b:d1:8e:3b:9d:
                    06:d3:c6:ac:4d:53:43:10:ab:e8:96:c1:87:82:97:
                    99:8f:20:d3:99:12:37:31:84:e1:8a:ff:29:03:5f:
                    22:90:3e:7f:9b:e0:20:c1:ad:dc:ae:4c:39:1a:31:
                    96:17:02:8c:b2:d9:b4:0d:20:12:9b:7d:86:54:fd:
                    33:fd:c1:2a:62:46:f8:60:96:cf:6e:01:6f:22:df:
                    13:47:e7:97:ec:05:72:23:a3:62:f8:fa:ef:ac:9c:
                    72:f0:37:cb:2f:37:cf:90:a8:27:51:86:c6:d7:78:
                    08:8f:7e:25:a2:15:70:a2:fb:1c:b6:15:5e:a0:97:
                    8b:81:4c:09:28:8a:27:3b:94:bc:71:db:5b:71:37:
                    9a:2b:16:e0:6f:b5:c9:f5:4b:4f:20:ba:65:cf:af:
                    ad:ad
                Exponent: 65537 (0x10001)
        X509v3 extensions:
            X509v3 Key Usage: 
                Digital Signature, Key Encipherment
            X509v3 Basic Constraints: 
                CA:FALSE
            Netscape Cert Type: 
                SSL Server
            Netscape Comment: 
                OpenSSL Generated Server Certificate
            X509v3 Subject Key Identifier: 
                E5:25:6D:3E:AF:0D:DD:3F:4C:F2:45:19:39:D5:14:DB:7E:9C:C0:AD
            X509v3 Authority Key Identifier: 
                keyid:F4:A7:C0:CC:91:46:AF:64:F3:91:F2:27:F8:C8:B2:6F:8A:87:32:73
                DirName:/C=DE/ST=Hessen/O=privacyidea/CN=CA001
                serial:FB:C8:EB:AC:83:CD:12:07

            X509v3 Extended Key Usage: 
                TLS Web Server Authentication
    Signature Algorithm: sha1WithRSAEncryption
         43:51:94:c3:e3:97:14:34:11:2e:0e:9e:0f:56:05:f6:e4:8a:
         5d:59:b9:14:1a:a5:eb:cd:b3:b8:f3:40:f1:67:ed:96:69:6b:
         b7:7d:29:d2:ac:91:34:45:9c:00:7e:fb:4f:1e:5a:54:98:45:
         70:54:5b:01:09:94:48:5c:db:a3:0c:04:bd:66:6d:3d:7b:1b:
         72:40:2d:8f:8a:f4:ce:2d:51:df:39:6e:2b:0e:fe:05:8c:97:
         a2:fe:da:cd:f6:f3:ed:d2:55:d8:08:13:77:e1:91:a9:99:18:
         3e:db:3e:e4:dc:93:4f:6d:39:52:02:32:a1:db:17:f7:cb:2e:
         05:9b:80:58:98:19:f3:d4:00:e4:44:b7:a4:c6:a5:27:ae:b2:
         2c:01:e7:bd:a2:9e:ab:4a:f1:59:01:53:a7:f6:37:cc:1e:69:
         ac:51:b8:bb:87:7b:0a:ee:fe:14:99:c1:2f:36:17:6b:32:78:
         c8:16:fd:e9:e9:67:2c:6a:b3:5d:c5:de:d6:9f:7d:b2:b9:b3:
         55:13:4e:08:16:5b:6b:c7:f7:65:5f:92:7d:60:3b:4e:18:47:
         b6:0c:a6:c6:2a:a6:7d:eb:cf:4d:dd:93:9b:ef:f9:b5:1b:b5:
         01:b1:d5:67:36:a4:fb:e0:0c:a0:9e:09:2f:df:7c:f6:6b:bd:
         78:c6:4b:90
-----BEGIN CERTIFICATE-----
MIIECTCCAvGgAwIBAgIEEAAA1jANBgkqhkiG9w0BAQUFADBEMQswCQYDVQQGEwJE
RTEPMA0GA1UECAwGSGVzc2VuMRQwEgYDVQQKDAtwcml2YWN5aWRlYTEOMAwGA1UE
AwwFQ0EwMDEwHhcNMTYwNDExMDkwMjMyWhcNMTcwNDExMDkwMjMyWjA3MRMwEQYD
VQQDEwpTdGV2ZSBUZXN0MSAwHgYJKoZIhvcNAQkBFhFzdGV2ZUBvcGVuc3NsLm9y
ZzCCASIwDQYJKoZIhvcNAQEBBQADggEPADCCAQoCggEBANKBiSBRSA9z9BEyJNUf
HP1c9bbmxfBSgdzSr2ZKfJMxYVyv0W0GcANgfHIMiN1JzZ4CbNJa11MP89q+aWS1
DwwA47NQR6Ozm7oTUNZYWkurOeARygonZwN4ImZtkh4bXEmu5mvRjjudBtPGrE1T
QxCr6JbBh4KXmY8g05kSNzGE4Yr/KQNfIpA+f5vgIMGt3K5MORoxlhcCjLLZtA0g
Ept9hlT9M/3BKmJG+GCWz24BbyLfE0fnl+wFciOjYvj676yccvA3yy83z5CoJ1GG
xtd4CI9+JaIVcKL7HLYVXqCXi4FMCSiKJzuUvHHbW3E3misW4G+1yfVLTyC6Zc+v
ra0CAwEAAaOCAQ4wggEKMAsGA1UdDwQEAwIFoDAJBgNVHRMEAjAAMBEGCWCGSAGG
+EIBAQQEAwIGQDAzBglghkgBhvhCAQ0EJhYkT3BlblNTTCBHZW5lcmF0ZWQgU2Vy
dmVyIENlcnRpZmljYXRlMB0GA1UdDgQWBBTlJW0+rw3dP0zyRRk51RTbfpzArTB0
BgNVHSMEbTBrgBT0p8DMkUavZPOR8if4yLJviocyc6FIpEYwRDELMAkGA1UEBhMC
REUxDzANBgNVBAgMBkhlc3NlbjEUMBIGA1UECgwLcHJpdmFjeWlkZWExDjAMBgNV
BAMMBUNBMDAxggkA+8jrrIPNEgcwEwYDVR0lBAwwCgYIKwYBBQUHAwEwDQYJKoZI
hvcNAQEFBQADggEBAENRlMPjlxQ0ES4Ong9WBfbkil1ZuRQapevNs7jzQPFn7ZZp
a7d9KdKskTRFnAB++08eWlSYRXBUWwEJlEhc26MMBL1mbT17G3JALY+K9M4tUd85
bisO/gWMl6L+2s328+3SVdgIE3fhkamZGD7bPuTck09tOVICMqHbF/fLLgWbgFiY
GfPUAOREt6TGpSeusiwB572inqtK8VkBU6f2N8weaaxRuLuHewru/hSZwS82F2sy
eMgW/enpZyxqs13F3taffbK5s1UTTggWW2vH92Vfkn1gO04YR7YMpsYqpn3rz03d
k5vv+bUbtQGx1Wc2pPvgDKCeCS/ffPZrvXjGS5A=
-----END CERTIFICATE-----
