Certificate:
    Data:
        Version: 3 (0x2)
        Serial Number: 268435672 (0x100000d8)
    Signature Algorithm: sha1WithRSAEncryption
        Issuer: C=DE, ST=Hessen, O=privacyidea, CN=CA001
        Validity
            Not Before: Apr 11 09:12:53 2016 GMT
            Not After : Apr 11 09:12:53 2017 GMT
        Subject: CN=selfservice,CN=user,O=realm1/emailAddress=meine
        Subject Public Key Info:
            Public Key Algorithm: rsaEncryption
                Public-Key: (2048 bit)
                Modulus:
                    00:cf:3c:d4:33:0e:12:c4:e6:da:cd:b6:56:a1:1c:
                    26:bb:26:1c:8a:4a:73:a8:58:8a:b6:1e:b3:8b:99:
                    d2:1d:07:c2:92:89:79:c0:69:d8:c8:df:28:61:98:
                    1e:b3:fe:ae:2b:bd:78:a9:f7:6e:47:dc:a3:a0:16:
                    8c:85:02:c1:4e:92:fd:72:6e:f0:c8:03:29:9b:b8:
                    00:6e:c0:83:95:c8:34:20:36:9c:b3:e5:e4:e6:76:
                    73:a3:1a:ad:40:96:e0:53:54:00:ec:76:79:9a:c6:
                    0d:7e:b6:bd:29:ec:83:f3:cb:89:a4:cb:6c:00:ba:
                    0c:c5:78:0f:ff:69:b8:94:f4:04:70:43:3f:d8:9e:
                    d7:a7:fb:5d:ce:75:8e:da:e7:c4:07:b1:9d:de:6f:
                    88:4b:b6:4d:9a:cf:f9:bc:fa:9f:cd:32:6d:f6:3a:
                    0b:0d:23:42:78:ec:97:42:bf:0e:4d:60:56:e1:d3:
                    02:f2:19:cb:84:57:90:e5:70:a1:a2:83:35:86:e2:
                    da:86:9f:f9:8a:c4:79:b3:52:28:da:cb:bb:34:ca:
                    d3:da:91:4a:cf:8d:76:a2:b2:6b:9b:f9:96:fd:09:
                    2a:da:11:23:4d:f0:cb:d6:b2:b1:0e:12:6c:9a:19:
                    65:98:87:ca:e4:ee:24:ce:44:ac:90:8f:9d:1b:c5:
                    2a:9d
                Exponent: 65537 (0x10001)
        X509v3 extensions:
            X509v3 Key Usage: 
                Digital Signature, Key Encipherment
            X509v3 Basic Constraints: 
                CA:FALSE
            Netscape Cert Type: 
                SSL Server
            Netscape Comment: 
                OpenSSL Generated Server Certificate
            X509v3 Subject Key Identifier: 
                4D:07:90:AD:FF:1D:0D:E7:1A:DD:D6:2E:FA:BA:34:CB:AA:1F:24:C6
            X509v3 Authority Key Identifier: 
                keyid:F4:A7:C0:CC:91:46:AF:64:F3:91:F2:27:F8:C8:B2:6F:8A:87:32:73
                DirName:/C=DE/ST=Hessen/O=privacyidea/CN=CA001
                serial:FB:C8:EB:AC:83:CD:12:07

            X509v3 Extended Key Usage: 
                TLS Web Server Authentication
    Signature Algorithm: sha1WithRSAEncryption
         7b:b9:11:20:f2:62:5a:ff:22:7f:4d:47:ac:b2:af:53:22:4a:
         f3:47:39:c8:d7:97:9f:ab:e4:39:2e:e2:3c:f1:a0:8b:d0:a1:
         78:22:88:b1:90:79:ab:55:3c:24:62:ed:7b:a1:f6:c2:9b:59:
         87:f2:f0:be:4d:0a:89:29:8b:8a:e9:f4:70:10:b4:60:56:85:
         e3:c8:a7:b2:1b:f5:97:6a:44:92:2e:2a:92:f1:b1:05:3b:37:
         ef:0c:a1:21:d2:51:84:67:d8:b4:aa:9b:82:86:40:83:67:c2:
         0a:de:20:55:bb:ea:6c:ff:b4:f1:7e:ab:a1:9d:4d:fe:4c:43:
         a7:69:2f:b5:a2:08:e3:74:02:35:34:77:66:44:8a:40:d7:53:
         ff:35:fc:63:f5:1a:d5:9e:75:61:1d:85:ee:7e:bc:98:f6:b5:
         b6:c4:c6:65:6f:8d:43:5a:e0:25:2b:59:f0:49:b4:a0:a0:3d:
         75:a6:5e:43:7b:d8:d6:b1:ce:09:f4:28:2d:84:94:9b:8b:a9:
         4d:c3:8b:20:7d:72:05:3a:a1:6e:b9:94:84:d5:87:3a:99:8f:
         ae:12:88:93:20:4c:f6:5f:3f:1f:9e:dd:fe:03:0e:b6:7f:b7:
         bd:12:48:48:a7:23:ca:04:4b:b0:9f:43:90:62:40:1a:db:2e:
         0a:e7:f2:14
-----BEGIN CERTIFICATE-----
MIIEDzCCAvegAwIBAgIEEAAA2DANBgkqhkiG9w0BAQUFADBEMQswCQYDVQQGEwJE
RTEPMA0GA1UECAwGSGVzc2VuMRQwEgYDVQQKDAtwcml2YWN5aWRlYTEOMAwGA1UE
AwwFQ0EwMDEwHhcNMTYwNDExMDkxMjUzWhcNMTcwNDExMDkxMjUzWjA9MSUwIwYD
VQQDExxzZWxmc2VydmljZSxDTj11c2VyLE89cmVhbG0xMRQwEgYJKoZIhvcNAQkB
FgVtZWluZTCCASIwDQYJKoZIhvcNAQEBBQADggEPADCCAQoCggEBAM881DMOEsTm
2s22VqEcJrsmHIpKc6hYirYes4uZ0h0HwpKJecBp2MjfKGGYHrP+riu9eKn3bkfc
o6AWjIUCwU6S/XJu8MgDKZu4AG7Ag5XINCA2nLPl5OZ2c6MarUCW4FNUAOx2eZrG
DX62vSnsg/PLiaTLbAC6DMV4D/9puJT0BHBDP9ie16f7Xc51jtrnxAexnd5viEu2
TZrP+bz6n80ybfY6Cw0jQnjsl0K/Dk1gVuHTAvIZy4RXkOVwoaKDNYbi2oaf+YrE
ebNSKNrLuzTK09qRSs+NdqKya5v5lv0JKtoRI03wy9aysQ4SbJoZZZiHyuTuJM5E
rJCPnRvFKp0CAwEAAaOCAQ4wggEKMAsGA1UdDwQEAwIFoDAJBgNVHRMEAjAAMBEG
CWCGSAGG+EIBAQQEAwIGQDAzBglghkgBhvhCAQ0EJhYkT3BlblNTTCBHZW5lcmF0
ZWQgU2VydmVyIENlcnRpZmljYXRlMB0GA1UdDgQWBBRNB5Ct/x0N5xrd1i76ujTL
qh8kxjB0BgNVHSMEbTBrgBT0p8DMkUavZPOR8if4yLJviocyc6FIpEYwRDELMAkG
A1UEBhMCREUxDzANBgNVBAgMBkhlc3NlbjEUMBIGA1UECgwLcHJpdmFjeWlkZWEx
DjAMBgNVBAMMBUNBMDAxggkA+8jrrIPNEgcwEwYDVR0lBAwwCgYIKwYBBQUHAwEw
DQYJKoZIhvcNAQEFBQADggEBAHu5ESDyYlr/In9NR6yyr1MiSvNHOcjXl5+r5Dku
4jzxoIvQoXgiiLGQeatVPCRi7Xuh9sKbWYfy8L5NCokpi4rp9HAQtGBWhePIp7Ib
9ZdqRJIuKpLxsQU7N+8MoSHSUYRn2LSqm4KGQINnwgreIFW76mz/tPF+q6GdTf5M
Q6dpL7WiCON0AjU0d2ZEikDXU/81/GP1GtWedWEdhe5+vJj2tbbExmVvjUNa4CUr
WfBJtKCgPXWmXkN72Naxzgn0KC2ElJuLqU3DiyB9cgU6oW65lITVhzqZj64SiJMg
TPZfPx+e3f4DDrZ/t70SSEinI8oES7CfQ5BiQBrbLgrn8hQ=
-----END CERTIFICATE-----
