Certificate:
    Data:
        Version: 3 (0x2)
        Serial Number: 268435669 (0x100000d5)
    Signature Algorithm: sha1WithRSAEncryption
        Issuer: C=DE, ST=Hessen, O=privacyidea, CN=CA001
        Validity
            Not Before: Apr 11 09:02:32 2016 GMT
            Not After : Apr 11 09:02:32 2017 GMT
        Subject: C=DE, ST=Hessen, O=privacyidea, CN=usercert
        Subject Public Key Info:
            Public Key Algorithm: rsaEncryption
                Public-Key: (2048 bit)
                Modulus:
                    00:dc:2f:d1:5f:29:97:d4:7c:c3:53:c8:30:bd:4b:
                    67:70:2c:24:6b:b8:5e:eb:21:7a:48:12:56:7c:81:
                    5c:48:75:b6:68:eb:f6:f2:98:4e:50:51:d1:7f:6c:
                    73:f3:0a:a7:ae:be:48:5e:e5:d6:e1:d9:2a:7c:32:
                    6e:4e:fd:08:f6:5a:54:49:23:73:c3:b9:07:18:d1:
                    ef:b3:ac:f8:8a:dc:94:96:a4:90:3a:8e:74:df:e6:
                    0d:37:1b:bd:5b:b7:25:1a:56:39:da:6f:91:aa:5e:
                    1c:74:f3:f9:7c:14:01:83:12:65:76:c7:bb:fe:36:
                    5b:95:e9:72:65:83:ed:3e:98:30:71:fa:87:dd:a3:
                    36:5a:30:03:2e:26:e0:61:d1:bf:02:3f:b6:06:1f:
                    4a:89:28:1c:5c:a2:ff:4e:be:94:e6:8c:e0:da:82:
                    f1:9d:29:32:48:30:73:b4:04:f6:42:1e:be:f7:e2:
                    32:32:27:3c:9d:89:2f:70:3e:85:9a:6f:5c:c5:09:
                    c0:8c:32:2f:72:22:c9:d2:95:1f:b6:ac:72:60:72:
                    b7:82:4d:6b:ce:5b:e3:00:d0:d2:2f:58:c6:e0:10:
                    e5:51:ca:4d:3b:2e:e6:7e:ab:84:d6:56:f1:93:35:
                    a0:93:64:26:81:75:2f:91:b5:16:06:38:0b:db:cc:
                    2d:07
                Exponent: 65537 (0x10001)
        X509v3 extensions:
            X509v3 Key Usage: 
                Digital Signature, Key Encipherment
            X509v3 Basic Constraints: 
                CA:FALSE
            Netscape Cert Type: 
                SSL Server
            Netscape Comment: 
                OpenSSL Generated Server Certificate
            X509v3 Subject Key Identifier: 
                FC:14:D1:F0:4B:8D:00:90:F2:F5:B8:71:9E:4E:97:C3:92:54:AD:0B
            X509v3 Authority Key Identifier: 
                keyid:F4:A7:C0:CC:91:46:AF:64:F3:91:F2:27:F8:C8:B2:6F:8A:87:32:73
                DirName:/C=DE/ST=Hessen/O=privacyidea/CN=CA001
                serial:FB:C8:EB:AC:83:CD:12:07

            X509v3 Extended Key Usage: 
                TLS Web Server Authentication
    Signature Algorithm: sha1WithRSAEncryption
         55:d4:2c:f8:eb:8d:c6:14:92:21:e9:a3:1a:ff:6a:81:49:d7:
         8c:3e:cc:f6:ef:f2:45:4f:08:50:48:e3:a9:30:84:cf:8c:ec:
         e3:53:79:c0:96:e8:0b:30:4a:df:c3:5f:b7:e5:ef:c2:c2:54:
         07:4d:7a:38:c0:9d:1e:2d:03:29:38:8e:9f:d0:36:e9:18:b2:
         d2:f7:44:75:94:b2:87:7b:d4:eb:f0:f8:fc:d4:23:3f:6a:b5:
         e5:38:6a:9b:fa:e7:67:51:2f:fa:c3:91:65:d4:2a:5f:05:a5:
         a8:18:94:c3:d2:3c:ac:9a:47:1f:7c:fc:e2:3c:c2:43:99:72:
         d8:69:18:71:b9:75:6a:56:00:4d:d7:d2:3d:6b:5e:79:1d:dd:
         eb:b0:66:91:7d:d1:f7:84:e7:69:7b:95:14:9a:ff:ac:18:3d:
         5f:21:36:68:d4:dd:99:86:4b:64:78:8e:c5:44:61:ca:0d:59:
         b8:09:92:c4:4a:d0:e5:44:44:34:4e:ce:87:5b:2d:a1:5e:8d:
         b8:0f:34:b4:73:5d:75:70:f5:d5:eb:b0:43:a6:0f:47:11:96:
         c5:38:94:76:5d:2f:cb:ae:ef:ac:d7:90:84:eb:29:e7:e4:c4:
         e6:a2:c0:e3:1b:32:43:5b:91:e9:85:69:86:73:06:fe:98:3e:
         0b:45:d5:d3
-----BEGIN CERTIFICATE-----
MIIEGTCCAwGgAwIBAgIEEAAA1TANBgkqhkiG9w0BAQUFADBEMQswCQYDVQQGEwJE
RTEPMA0GA1UECAwGSGVzc2VuMRQwEgYDVQQKDAtwcml2YWN5aWRlYTEOMAwGA1UE
AwwFQ0EwMDEwHhcNMTYwNDExMDkwMjMyWhcNMTcwNDExMDkwMjMyWjBHMQswCQYD
VQQGEwJERTEPMA0GA1UECAwGSGVzc2VuMRQwEgYDVQQKDAtwcml2YWN5aWRlYTER
MA8GA1UEAwwIdXNlcmNlcnQwggEiMA0GCSqGSIb3DQEBAQUAA4IBDwAwggEKAoIB
AQDcL9FfKZfUfMNTyDC9S2dwLCRruF7rIXpIElZ8gVxIdbZo6/bymE5QUdF/bHPz
Cqeuvkhe5dbh2Sp8Mm5O/Qj2WlRJI3PDuQcY0e+zrPiK3JSWpJA6jnTf5g03G71b
tyUaVjnab5GqXhx08/l8FAGDEmV2x7v+NluV6XJlg+0+mDBx+ofdozZaMAMuJuBh
0b8CP7YGH0qJKBxcov9OvpTmjODagvGdKTJIMHO0BPZCHr734jIyJzydiS9wPoWa
b1zFCcCMMi9yIsnSlR+2rHJgcreCTWvOW+MA0NIvWMbgEOVRyk07LuZ+q4TWVvGT
NaCTZCaBdS+RtRYGOAvbzC0HAgMBAAGjggEOMIIBCjALBgNVHQ8EBAMCBaAwCQYD
VR0TBAIwADARBglghkgBhvhCAQEEBAMCBkAwMwYJYIZIAYb4QgENBCYWJE9wZW5T
U0wgR2VuZXJhdGVkIFNlcnZlciBDZXJ0aWZpY2F0ZTAdBgNVHQ4EFgQU/BTR8EuN
AJDy9bhxnk6Xw5JUrQswdAYDVR0jBG0wa4AU9KfAzJFGr2TzkfIn+Miyb4qHMnOh
SKRGMEQxCzAJBgNVBAYTAkRFMQ8wDQYDVQQIDAZIZXNzZW4xFDASBgNVBAoMC3By
aXZhY3lpZGVhMQ4wDAYDVQQDDAVDQTAwMYIJAPvI66yDzRIHMBMGA1UdJQQMMAoG
CCsGAQUFBwMBMA0GCSqGSIb3DQEBBQUAA4IBAQBV1Cz4643GFJIh6aMa/2qBSdeM
Psz27/JFTwhQSOOpMITPjOzjU3nAlugLMErfw1+35e/CwlQHTXo4wJ0eLQMpOI6f
0DbpGLLS90R1lLKHe9Tr8Pj81CM/arXlOGqb+udnUS/6w5Fl1CpfBaWoGJTD0jys
mkcffPziPMJDmXLYaRhxuXVqVgBN19I9a155Hd3rsGaRfdH3hOdpe5UUmv+sGD1f
ITZo1N2ZhktkeI7FRGHKDVm4CZLEStDlREQ0Ts6HWy2hXo24DzS0c111cPXV67BD
pg9HEZbFOJR2XS/Lru+s15CE6ynn5MTmosDjGzJDW5HphWmGcwb+mD4LRdXT
-----END CERTIFICATE-----
