Certificate:
    Data:
        Version: 3 (0x2)
        Serial Number: 268435663 (0x100000cf)
    Signature Algorithm: sha1WithRSAEncryption
        Issuer: C=DE, ST=Hessen, O=privacyidea, CN=CA001
        Validity
            Not Before: Apr 11 08:45:52 2016 GMT
            Not After : Apr 11 08:45:52 2017 GMT
        Subject: C=DE, ST=Hessen, O=privacyidea, CN=usercert
        Subject Public Key Info:
            Public Key Algorithm: rsaEncryption
                Public-Key: (2048 bit)
                Modulus:
                    00:dc:2f:d1:5f:29:97:d4:7c:c3:53:c8:30:bd:4b:
                    67:70:2c:24:6b:b8:5e:eb:21:7a:48:12:56:7c:81:
                    5c:48:75:b6:68:eb:f6:f2:98:4e:50:51:d1:7f:6c:
                    73:f3:0a:a7:ae:be:48:5e:e5:d6:e1:d9:2a:7c:32:
                    6e:4e:fd:08:f6:5a:54:49:23:73:c3:b9:07:18:d1:
                    ef:b3:ac:f8:8a:dc:94:96:a4:90:3a:8e:74:df:e6:
                    0d:37:1b:bd:5b:b7:25:1a:56:39:da:6f:91:aa:5e:
                    1c:74:f3:f9:7c:14:01:83:12:65:76:c7:bb:fe:36:
                    5b:95:e9:72:65:83:ed:3e:98:30:71:fa:87:dd:a3:
                    36:5a:30:03:2e:26:e0:61:d1:bf:02:3f:b6:06:1f:
                    4a:89:28:1c:5c:a2:ff:4e:be:94:e6:8c:e0:da:82:
                    f1:9d:29:32:48:30:73:b4:04:f6:42:1e:be:f7:e2:
                    32:32:27:3c:9d:89:2f:70:3e:85:9a:6f:5c:c5:09:
                    c0:8c:32:2f:72:22:c9:d2:95:1f:b6:ac:72:60:72:
                    b7:82:4d:6b:ce:5b:e3:00:d0:d2:2f:58:c6:e0:10:
                    e5:51:ca:4d:3b:2e:e6:7e:ab:84:d6:56:f1:93:35:
                    a0:93:64:26:81:75:2f:91:b5:16:06:38:0b:db:cc:
                    2d:07
                Exponent: 65537 (0x10001)
        X509v3 extensions:
            X509v3 Key Usage: 
                Digital Signature, Key Encipherment
            X509v3 Basic Constraints: 
                CA:FALSE
            Netscape Cert Type: 
                SSL Server
            Netscape Comment: 
                OpenSSL Generated Server Certificate
            X509v3 Subject Key Identifier: 
                FC:14:D1:F0:4B:8D:00:90:F2:F5:B8:71:9E:4E:97:C3:92:54:AD:0B
            X509v3 Authority Key Identifier: 
                keyid:F4:A7:C0:CC:91:46:AF:64:F3:91:F2:27:F8:C8:B2:6F:8A:87:32:73
                DirName:/C=DE/ST=Hessen/O=privacyidea/CN=CA001
                serial:FB:C8:EB:AC:83:CD:12:07

            X509v3 Extended Key Usage: 
                TLS Web Server Authentication
    Signature Algorithm: sha1WithRSAEncryption
         68:38:a1:b3:2f:05:59:31:81:af:ad:dd:37:4e:b0:12:dd:f2:
         62:c4:f6:4b:46:37:b1:2f:c9:ea:37:fb:61:29:5b:eb:e0:84:
         2a:e7:16:6f:9d:f7:e3:0f:1c:76:a2:d7:47:ed:e9:f2:ba:d7:
         dc:2f:34:84:95:9e:2f:eb:8e:85:d5:3c:47:18:f2:5d:f3:b5:
         df:da:1a:46:b2:42:94:36:49:2c:48:9d:f7:e7:e4:4b:af:a6:
         44:3f:e5:1e:93:60:9d:6e:39:72:cf:76:03:4d:32:cd:c5:cd:
         68:ea:9f:a2:ce:13:0d:1b:ba:0c:ad:82:ff:41:df:69:22:6f:
         60:e9:50:30:1c:4e:c7:d5:b1:ee:ac:7b:ff:7e:2c:6b:db:16:
         78:21:cb:eb:e6:49:ff:5f:c9:8d:16:15:3a:15:c1:5e:a9:5b:
         a2:75:35:4c:0b:42:e7:6b:23:74:5c:ce:69:d3:2c:23:89:02:
         09:22:4c:37:b9:32:1a:fa:22:61:a7:64:bd:5e:ab:7a:a6:14:
         00:a6:d8:43:d9:03:2d:73:ee:f9:9c:3e:d5:1d:49:e9:2a:6c:
         f4:68:ff:43:b3:84:34:dc:c5:12:14:49:0a:d3:62:22:72:f6:
         21:7b:83:ad:9f:47:d7:7b:8d:bd:ca:ea:9f:b8:b6:bc:1c:13:
         15:82:da:f1
-----BEGIN CERTIFICATE-----
MIIEGTCCAwGgAwIBAgIEEAAAzzANBgkqhkiG9w0BAQUFADBEMQswCQYDVQQGEwJE
RTEPMA0GA1UECAwGSGVzc2VuMRQwEgYDVQQKDAtwcml2YWN5aWRlYTEOMAwGA1UE
AwwFQ0EwMDEwHhcNMTYwNDExMDg0NTUyWhcNMTcwNDExMDg0NTUyWjBHMQswCQYD
VQQGEwJERTEPMA0GA1UECAwGSGVzc2VuMRQwEgYDVQQKDAtwcml2YWN5aWRlYTER
MA8GA1UEAwwIdXNlcmNlcnQwggEiMA0GCSqGSIb3DQEBAQUAA4IBDwAwggEKAoIB
AQDcL9FfKZfUfMNTyDC9S2dwLCRruF7rIXpIElZ8gVxIdbZo6/bymE5QUdF/bHPz
Cqeuvkhe5dbh2Sp8Mm5O/Qj2WlRJI3PDuQcY0e+zrPiK3JSWpJA6jnTf5g03G71b
tyUaVjnab5GqXhx08/l8FAGDEmV2x7v+NluV6XJlg+0+mDBx+ofdozZaMAMuJuBh
0b8CP7YGH0qJKBxcov9OvpTmjODagvGdKTJIMHO0BPZCHr734jIyJzydiS9wPoWa
b1zFCcCMMi9yIsnSlR+2rHJgcreCTWvOW+MA0NIvWMbgEOVRyk07LuZ+q4TWVvGT
NaCTZCaBdS+RtRYGOAvbzC0HAgMBAAGjggEOMIIBCjALBgNVHQ8EBAMCBaAwCQYD
VR0TBAIwADARBglghkgBhvhCAQEEBAMCBkAwMwYJYIZIAYb4QgENBCYWJE9wZW5T
U0wgR2VuZXJhdGVkIFNlcnZlciBDZXJ0aWZpY2F0ZTAdBgNVHQ4EFgQU/BTR8EuN
AJDy9bhxnk6Xw5JUrQswdAYDVR0jBG0wa4AU9KfAzJFGr2TzkfIn+Miyb4qHMnOh
SKRGMEQxCzAJBgNVBAYTAkRFMQ8wDQYDVQQIDAZIZXNzZW4xFDASBgNVBAoMC3By
aXZhY3lpZGVhMQ4wDAYDVQQDDAVDQTAwMYIJAPvI66yDzRIHMBMGA1UdJQQMMAoG
CCsGAQUFBwMBMA0GCSqGSIb3DQEBBQUAA4IBAQBoOKGzLwVZMYGvrd03TrAS3fJi
xPZLRjexL8nqN/thKVvr4IQq5xZvnffjDxx2otdH7enyutfcLzSElZ4v646F1TxH
GPJd87Xf2hpGskKUNkksSJ335+RLr6ZEP+Uek2Cdbjlyz3YDTTLNxc1o6p+izhMN
G7oMrYL/Qd9pIm9g6VAwHE7H1bHurHv/fixr2xZ4Icvr5kn/X8mNFhU6FcFeqVui
dTVMC0LnayN0XM5p0ywjiQIJIkw3uTIa+iJhp2S9Xqt6phQApthD2QMtc+75nD7V
HUnpKmz0aP9Ds4Q03MUSFEkK02IicvYhe4Otn0fXe429yuqfuLa8HBMVgtrx
-----END CERTIFICATE-----
