Certificate:
    Data:
        Version: 3 (0x2)
        Serial Number: 268435695 (0x100000ef)
    Signature Algorithm: sha1WithRSAEncryption
        Issuer: C=DE, ST=Hessen, O=privacyidea, CN=CA001
        Validity
            Not Before: Sep 20 17:18:16 2015 GMT
            Not After : Sep 19 17:18:16 2016 GMT
        Subject: C=DE, ST=Hessen, O=privacyidea, CN=requester.localdomain
        Subject Public Key Info:
            Public Key Algorithm: rsaEncryption
                Public-Key: (2048 bit)
                Modulus:
                    00:cd:be:14:4f:fa:ce:01:3f:42:22:1b:1d:9c:af:
                    dd:92:d2:7f:db:6c:b7:3e:39:43:43:6b:13:03:f1:
                    05:f4:07:74:bc:76:69:28:0b:af:19:8e:d7:fc:e3:
                    cd:c6:58:f2:ca:7f:08:6d:53:fc:07:02:44:24:c6:
                    b4:34:4c:8c:04:fe:33:0e:40:e2:20:ba:02:73:5a:
                    f7:f5:4f:63:6e:cc:c6:b6:df:54:1d:37:39:7d:51:
                    36:26:5f:bd:dc:3f:a8:8b:6b:a2:ae:b6:9d:d6:21:
                    e7:df:41:b8:7a:28:2a:68:48:ca:a8:2d:ed:e1:e9:
                    46:5e:5a:72:6d:b4:84:38:87:91:fd:94:11:0b:28:
                    84:c6:c2:2f:2a:fb:01:f9:36:7a:09:75:d1:33:88:
                    3c:73:41:5b:c8:bf:94:89:70:a1:f0:c0:b9:2e:50:
                    53:1e:b1:17:64:69:f4:2d:81:e0:a9:0d:0e:32:e9:
                    ba:55:8a:85:f1:1b:6f:49:79:b4:7f:88:c3:0d:3e:
                    54:88:9b:3d:1f:38:8c:04:f3:ee:6a:63:2b:f5:c6:
                    db:b4:83:aa:c4:78:41:3a:7d:4b:e1:c8:3e:71:ca:
                    1b:61:59:ea:c6:c4:ca:32:5e:c9:e9:bf:12:29:e6:
                    c6:c3:63:fe:a0:55:da:7a:f1:60:98:4d:26:ed:fa:
                    70:2d
                Exponent: 65537 (0x10001)
        X509v3 extensions:
            X509v3 Key Usage: 
                Digital Signature, Key Encipherment
            X509v3 Basic Constraints: 
                CA:FALSE
            Netscape Cert Type: 
                SSL Server
            Netscape Comment: 
                OpenSSL Generated Server Certificate
            X509v3 Subject Key Identifier: 
                53:3F:ED:5D:09:07:B3:65:7B:AB:45:C9:24:5B:09:77:80:0A:96:ED
            X509v3 Authority Key Identifier: 
                keyid:F4:A7:C0:CC:91:46:AF:64:F3:91:F2:27:F8:C8:B2:6F:8A:87:32:73
                DirName:/C=DE/ST=Hessen/O=privacyidea/CN=CA001
                serial:FB:C8:EB:AC:83:CD:12:07

            X509v3 Extended Key Usage: 
                TLS Web Server Authentication
    Signature Algorithm: sha1WithRSAEncryption
         b8:67:ff:15:bc:f6:eb:80:a7:3a:1e:a9:b6:96:8a:25:f5:99:
         7f:4c:12:49:c8:ca:4b:c9:a6:57:0e:17:ac:f8:ce:b9:4d:6c:
         d1:f2:1a:61:ea:ec:03:43:6c:2a:70:95:91:85:17:e7:e2:06:
         c3:ad:fa:f1:50:5c:67:05:52:4f:cb:7b:48:9d:c2:54:15:25:
         00:9d:5f:63:15:35:5b:66:47:34:4c:a6:c2:96:fa:c6:b3:59:
         a2:15:c6:12:b9:bf:92:31:4d:5e:a0:a8:bf:4a:ec:0a:fe:04:
         b6:15:fb:a1:b6:54:4f:ed:94:a9:3c:7d:38:d7:4d:9a:9c:8c:
         72:53:27:0f:e7:df:11:98:03:ff:93:86:03:4a:c6:04:ed:f1:
         b6:69:c7:95:c6:52:5d:0a:5d:75:05:1b:b6:d9:84:99:8c:03:
         f2:42:e3:09:a7:7b:d8:b0:bb:92:44:7d:6d:c1:9f:f9:5d:01:
         5e:40:9b:09:0d:63:b2:07:3b:6e:b8:d8:35:d7:37:03:c2:4d:
         1f:ce:84:90:99:6b:ba:64:83:70:6b:85:9e:20:92:8f:f6:cb:
         d8:8a:88:df:19:fc:2e:b6:98:69:fb:61:be:1e:43:02:e6:15:
         5e:91:bc:f0:bf:81:3a:ad:9c:17:e6:18:c8:c5:a2:00:3f:01:
         e6:8b:30:f8
-----BEGIN CERTIFICATE-----
MIIEJjCCAw6gAwIBAgIEEAAA7zANBgkqhkiG9w0BAQUFADBEMQswCQYDVQQGEwJE
RTEPMA0GA1UECAwGSGVzc2VuMRQwEgYDVQQKDAtwcml2YWN5aWRlYTEOMAwGA1UE
AwwFQ0EwMDEwHhcNMTUwOTIwMTcxODE2WhcNMTYwOTE5MTcxODE2WjBUMQswCQYD
VQQGEwJERTEPMA0GA1UECAwGSGVzc2VuMRQwEgYDVQQKDAtwcml2YWN5aWRlYTEe
MBwGA1UEAwwVcmVxdWVzdGVyLmxvY2FsZG9tYWluMIIBIjANBgkqhkiG9w0BAQEF
AAOCAQ8AMIIBCgKCAQEAzb4UT/rOAT9CIhsdnK/dktJ/22y3PjlDQ2sTA/EF9Ad0
vHZpKAuvGY7X/OPNxljyyn8IbVP8BwJEJMa0NEyMBP4zDkDiILoCc1r39U9jbszG
tt9UHTc5fVE2Jl+93D+oi2uirrad1iHn30G4eigqaEjKqC3t4elGXlpybbSEOIeR
/ZQRCyiExsIvKvsB+TZ6CXXRM4g8c0FbyL+UiXCh8MC5LlBTHrEXZGn0LYHgqQ0O
Mum6VYqF8RtvSXm0f4jDDT5UiJs9HziMBPPuamMr9cbbtIOqxHhBOn1L4cg+ccob
YVnqxsTKMl7J6b8SKebGw2P+oFXaevFgmE0m7fpwLQIDAQABo4IBDjCCAQowCwYD
VR0PBAQDAgWgMAkGA1UdEwQCMAAwEQYJYIZIAYb4QgEBBAQDAgZAMDMGCWCGSAGG
+EIBDQQmFiRPcGVuU1NMIEdlbmVyYXRlZCBTZXJ2ZXIgQ2VydGlmaWNhdGUwHQYD
VR0OBBYEFFM/7V0JB7Nle6tFySRbCXeACpbtMHQGA1UdIwRtMGuAFPSnwMyRRq9k
85HyJ/jIsm+KhzJzoUikRjBEMQswCQYDVQQGEwJERTEPMA0GA1UECAwGSGVzc2Vu
MRQwEgYDVQQKDAtwcml2YWN5aWRlYTEOMAwGA1UEAwwFQ0EwMDGCCQD7yOusg80S
BzATBgNVHSUEDDAKBggrBgEFBQcDATANBgkqhkiG9w0BAQUFAAOCAQEAuGf/Fbz2
64CnOh6ptpaKJfWZf0wSScjKS8mmVw4XrPjOuU1s0fIaYersA0NsKnCVkYUX5+IG
w6368VBcZwVST8t7SJ3CVBUlAJ1fYxU1W2ZHNEymwpb6xrNZohXGErm/kjFNXqCo
v0rsCv4EthX7obZUT+2UqTx9ONdNmpyMclMnD+ffEZgD/5OGA0rGBO3xtmnHlcZS
XQpddQUbttmEmYwD8kLjCad72LC7kkR9bcGf+V0BXkCbCQ1jsgc7brjYNdc3A8JN
H86EkJlrumSDcGuFniCSj/bL2IqI3xn8LraYafthvh5DAuYVXpG88L+BOq2cF+YY
yMWiAD8B5osw+A==
-----END CERTIFICATE-----
