Certificate:
    Data:
        Version: 3 (0x2)
        Serial Number: 268435662 (0x100000ce)
    Signature Algorithm: sha1WithRSAEncryption
        Issuer: C=DE, ST=Hessen, O=privacyidea, CN=CA001
        Validity
            Not Before: Apr 11 08:45:52 2016 GMT
            Not After : Apr 11 08:45:52 2017 GMT
        Subject: C=DE, ST=Hessen, O=privacyidea, CN=requester.localdomain
        Subject Public Key Info:
            Public Key Algorithm: rsaEncryption
                Public-Key: (2048 bit)
                Modulus:
                    00:cd:be:14:4f:fa:ce:01:3f:42:22:1b:1d:9c:af:
                    dd:92:d2:7f:db:6c:b7:3e:39:43:43:6b:13:03:f1:
                    05:f4:07:74:bc:76:69:28:0b:af:19:8e:d7:fc:e3:
                    cd:c6:58:f2:ca:7f:08:6d:53:fc:07:02:44:24:c6:
                    b4:34:4c:8c:04:fe:33:0e:40:e2:20:ba:02:73:5a:
                    f7:f5:4f:63:6e:cc:c6:b6:df:54:1d:37:39:7d:51:
                    36:26:5f:bd:dc:3f:a8:8b:6b:a2:ae:b6:9d:d6:21:
                    e7:df:41:b8:7a:28:2a:68:48:ca:a8:2d:ed:e1:e9:
                    46:5e:5a:72:6d:b4:84:38:87:91:fd:94:11:0b:28:
                    84:c6:c2:2f:2a:fb:01:f9:36:7a:09:75:d1:33:88:
                    3c:73:41:5b:c8:bf:94:89:70:a1:f0:c0:b9:2e:50:
                    53:1e:b1:17:64:69:f4:2d:81:e0:a9:0d:0e:32:e9:
                    ba:55:8a:85:f1:1b:6f:49:79:b4:7f:88:c3:0d:3e:
                    54:88:9b:3d:1f:38:8c:04:f3:ee:6a:63:2b:f5:c6:
                    db:b4:83:aa:c4:78:41:3a:7d:4b:e1:c8:3e:71:ca:
                    1b:61:59:ea:c6:c4:ca:32:5e:c9:e9:bf:12:29:e6:
                    c6:c3:63:fe:a0:55:da:7a:f1:60:98:4d:26:ed:fa:
                    70:2d
                Exponent: 65537 (0x10001)
        X509v3 extensions:
            X509v3 Key Usage: 
                Digital Signature, Key Encipherment
            X509v3 Basic Constraints: 
                CA:FALSE
            Netscape Cert Type: 
                SSL Server
            Netscape Comment: 
                OpenSSL Generated Server Certificate
            X509v3 Subject Key Identifier: 
                53:3F:ED:5D:09:07:B3:65:7B:AB:45:C9:24:5B:09:77:80:0A:96:ED
            X509v3 Authority Key Identifier: 
                keyid:F4:A7:C0:CC:91:46:AF:64:F3:91:F2:27:F8:C8:B2:6F:8A:87:32:73
                DirName:/C=DE/ST=Hessen/O=privacyidea/CN=CA001
                serial:FB:C8:EB:AC:83:CD:12:07

            X509v3 Extended Key Usage: 
                TLS Web Server Authentication
    Signature Algorithm: sha1WithRSAEncryption
         2e:4f:0e:82:89:89:84:cd:ba:c6:be:a8:f6:97:de:a5:f0:72:
         c2:cd:14:b4:ba:6b:3b:7f:27:65:84:3e:0b:ff:e0:f8:fc:49:
         ef:01:b4:e3:2d:76:01:3d:aa:08:a2:c1:2c:5f:e3:b4:0e:68:
         93:4c:12:18:39:f0:12:28:c0:fd:29:4f:d1:d9:87:b4:33:6c:
         9f:c6:cd:f2:54:27:40:dd:10:4d:b1:e1:14:67:ff:a6:8d:c3:
         43:c0:5c:8e:9a:3f:42:cd:f1:9d:f3:8d:e6:74:8c:1a:36:68:
         b3:73:83:c7:d8:79:1a:95:84:cb:23:03:41:7a:78:ee:90:43:
         5e:77:7a:20:a3:da:54:d9:c5:70:9c:e4:05:e1:2a:30:f4:e9:
         cc:de:9e:cd:26:c5:91:47:3e:31:ae:f2:ca:2f:79:bd:a0:be:
         7e:79:f4:37:e7:b2:fd:87:e8:03:36:d6:be:d9:22:2a:2a:45:
         da:9d:30:77:ca:e8:96:2b:f9:59:73:c1:e0:49:1b:09:be:d9:
         38:e1:1c:e0:3f:2b:24:92:af:15:0b:ff:cc:ab:a0:f9:c6:a4:
         18:1c:27:83:eb:df:86:8b:52:be:b2:d8:99:d7:ed:6e:55:34:
         db:69:57:fa:f6:6e:b8:8f:ec:45:ce:52:9a:1a:52:0b:3e:3f:
         a9:b9:1f:f7
-----BEGIN CERTIFICATE-----
MIIEJjCCAw6gAwIBAgIEEAAAzjANBgkqhkiG9w0BAQUFADBEMQswCQYDVQQGEwJE
RTEPMA0GA1UECAwGSGVzc2VuMRQwEgYDVQQKDAtwcml2YWN5aWRlYTEOMAwGA1UE
AwwFQ0EwMDEwHhcNMTYwNDExMDg0NTUyWhcNMTcwNDExMDg0NTUyWjBUMQswCQYD
VQQGEwJERTEPMA0GA1UECAwGSGVzc2VuMRQwEgYDVQQKDAtwcml2YWN5aWRlYTEe
MBwGA1UEAwwVcmVxdWVzdGVyLmxvY2FsZG9tYWluMIIBIjANBgkqhkiG9w0BAQEF
AAOCAQ8AMIIBCgKCAQEAzb4UT/rOAT9CIhsdnK/dktJ/22y3PjlDQ2sTA/EF9Ad0
vHZpKAuvGY7X/OPNxljyyn8IbVP8BwJEJMa0NEyMBP4zDkDiILoCc1r39U9jbszG
tt9UHTc5fVE2Jl+93D+oi2uirrad1iHn30G4eigqaEjKqC3t4elGXlpybbSEOIeR
/ZQRCyiExsIvKvsB+TZ6CXXRM4g8c0FbyL+UiXCh8MC5LlBTHrEXZGn0LYHgqQ0O
Mum6VYqF8RtvSXm0f4jDDT5UiJs9HziMBPPuamMr9cbbtIOqxHhBOn1L4cg+ccob
YVnqxsTKMl7J6b8SKebGw2P+oFXaevFgmE0m7fpwLQIDAQABo4IBDjCCAQowCwYD
VR0PBAQDAgWgMAkGA1UdEwQCMAAwEQYJYIZIAYb4QgEBBAQDAgZAMDMGCWCGSAGG
+EIBDQQmFiRPcGVuU1NMIEdlbmVyYXRlZCBTZXJ2ZXIgQ2VydGlmaWNhdGUwHQYD
VR0OBBYEFFM/7V0JB7Nle6tFySRbCXeACpbtMHQGA1UdIwRtMGuAFPSnwMyRRq9k
85HyJ/jIsm+KhzJzoUikRjBEMQswCQYDVQQGEwJERTEPMA0GA1UECAwGSGVzc2Vu
MRQwEgYDVQQKDAtwcml2YWN5aWRlYTEOMAwGA1UEAwwFQ0EwMDGCCQD7yOusg80S
BzATBgNVHSUEDDAKBggrBgEFBQcDATANBgkqhkiG9w0BAQUFAAOCAQEALk8OgomJ
hM26xr6o9pfepfByws0UtLprO38nZYQ+C//g+PxJ7wG04y12AT2qCKLBLF/jtA5o
k0wSGDnwEijA/SlP0dmHtDNsn8bN8lQnQN0QTbHhFGf/po3DQ8Bcjpo/Qs3xnfON
5nSMGjZos3ODx9h5GpWEyyMDQXp47pBDXnd6IKPaVNnFcJzkBeEqMPTpzN6ezSbF
kUc+Ma7yyi95vaC+fnn0N+ey/YfoAzbWvtkiKipF2p0wd8roliv5WXPB4EkbCb7Z
OOEc4D8rJJKvFQv/zKug+cakGBwng+vfhotSvrLYmdftblU022lX+vZuuI/sRc5S
mhpSCz4/qbkf9w==
-----END CERTIFICATE-----
