Certificate:
    Data:
        Version: 3 (0x2)
        Serial Number: 268435656 (0x100000c8)
    Signature Algorithm: sha1WithRSAEncryption
        Issuer: C=DE, ST=Hessen, O=privacyidea, CN=CA001
        Validity
            Not Before: Apr 11 10:32:40 2016 GMT
            Not After : Apr 11 10:32:40 2017 GMT
        Subject: CN=selfservice,CN=user,O=realm1/emailAddress=meine
        Subject Public Key Info:
            Public Key Algorithm: rsaEncryption
                Public-Key: (2048 bit)
                Modulus:
                    00:cf:3c:d4:33:0e:12:c4:e6:da:cd:b6:56:a1:1c:
                    26:bb:26:1c:8a:4a:73:a8:58:8a:b6:1e:b3:8b:99:
                    d2:1d:07:c2:92:89:79:c0:69:d8:c8:df:28:61:98:
                    1e:b3:fe:ae:2b:bd:78:a9:f7:6e:47:dc:a3:a0:16:
                    8c:85:02:c1:4e:92:fd:72:6e:f0:c8:03:29:9b:b8:
                    00:6e:c0:83:95:c8:34:20:36:9c:b3:e5:e4:e6:76:
                    73:a3:1a:ad:40:96:e0:53:54:00:ec:76:79:9a:c6:
                    0d:7e:b6:bd:29:ec:83:f3:cb:89:a4:cb:6c:00:ba:
                    0c:c5:78:0f:ff:69:b8:94:f4:04:70:43:3f:d8:9e:
                    d7:a7:fb:5d:ce:75:8e:da:e7:c4:07:b1:9d:de:6f:
                    88:4b:b6:4d:9a:cf:f9:bc:fa:9f:cd:32:6d:f6:3a:
                    0b:0d:23:42:78:ec:97:42:bf:0e:4d:60:56:e1:d3:
                    02:f2:19:cb:84:57:90:e5:70:a1:a2:83:35:86:e2:
                    da:86:9f:f9:8a:c4:79:b3:52:28:da:cb:bb:34:ca:
                    d3:da:91:4a:cf:8d:76:a2:b2:6b:9b:f9:96:fd:09:
                    2a:da:11:23:4d:f0:cb:d6:b2:b1:0e:12:6c:9a:19:
                    65:98:87:ca:e4:ee:24:ce:44:ac:90:8f:9d:1b:c5:
                    2a:9d
                Exponent: 65537 (0x10001)
        X509v3 extensions:
            X509v3 Key Usage: 
                Digital Signature, Key Encipherment
            X509v3 Basic Constraints: 
                CA:FALSE
            Netscape Cert Type: 
                SSL Server
            Netscape Comment: 
                OpenSSL Generated Server Certificate
            X509v3 Subject Key Identifier: 
                4D:07:90:AD:FF:1D:0D:E7:1A:DD:D6:2E:FA:BA:34:CB:AA:1F:24:C6
            X509v3 Authority Key Identifier: 
                keyid:F4:A7:C0:CC:91:46:AF:64:F3:91:F2:27:F8:C8:B2:6F:8A:87:32:73
                DirName:/C=DE/ST=Hessen/O=privacyidea/CN=CA001
                serial:FB:C8:EB:AC:83:CD:12:07

            X509v3 Extended Key Usage: 
                TLS Web Server Authentication
    Signature Algorithm: sha1WithRSAEncryption
         83:7c:53:22:d5:5c:fa:58:3c:e1:39:80:04:8d:13:74:65:c8:
         b8:8d:8d:96:51:e0:2d:cd:41:30:f4:0f:58:e9:31:74:84:49:
         87:7a:63:b9:6f:0b:cd:8d:22:f8:47:1a:70:b9:c5:7f:3a:86:
         b6:2d:b9:05:2e:9e:2c:2c:81:da:12:19:81:54:c6:c6:e8:a1:
         68:6d:33:69:20:1a:50:f1:81:c0:89:45:64:69:4c:c4:4f:9b:
         8c:cf:7c:e0:a5:fc:ba:07:5b:e5:dd:cf:61:c7:38:69:eb:0a:
         1a:6e:56:a9:1a:08:90:b4:27:af:4b:9f:19:30:8c:45:09:b1:
         db:e3:de:1d:82:ff:78:a4:6a:81:e1:99:f5:2e:e2:5f:ee:3b:
         b5:fc:54:de:e9:a0:7e:9b:36:70:b7:d8:96:82:0f:f1:af:c1:
         03:14:78:2c:6d:1c:48:b5:c8:42:35:41:b3:4d:a1:77:d1:af:
         dc:35:07:01:9a:05:22:32:62:6f:d4:98:28:26:d2:92:0b:e4:
         18:1e:5b:81:ac:fd:81:73:74:86:0e:85:71:50:7e:e5:be:dc:
         b4:5b:19:06:ea:14:17:a1:a3:e4:63:50:81:49:5b:56:66:d5:
         8b:4c:82:83:09:2e:51:64:3b:bf:6c:3c:7f:d3:2a:0e:5d:40:
         2c:98:93:51
-----BEGIN CERTIFICATE-----
MIIEDzCCAvegAwIBAgIEEAAAyDANBgkqhkiG9w0BAQUFADBEMQswCQYDVQQGEwJE
RTEPMA0GA1UECAwGSGVzc2VuMRQwEgYDVQQKDAtwcml2YWN5aWRlYTEOMAwGA1UE
AwwFQ0EwMDEwHhcNMTYwNDExMTAzMjQwWhcNMTcwNDExMTAzMjQwWjA9MSUwIwYD
VQQDExxzZWxmc2VydmljZSxDTj11c2VyLE89cmVhbG0xMRQwEgYJKoZIhvcNAQkB
FgVtZWluZTCCASIwDQYJKoZIhvcNAQEBBQADggEPADCCAQoCggEBAM881DMOEsTm
2s22VqEcJrsmHIpKc6hYirYes4uZ0h0HwpKJecBp2MjfKGGYHrP+riu9eKn3bkfc
o6AWjIUCwU6S/XJu8MgDKZu4AG7Ag5XINCA2nLPl5OZ2c6MarUCW4FNUAOx2eZrG
DX62vSnsg/PLiaTLbAC6DMV4D/9puJT0BHBDP9ie16f7Xc51jtrnxAexnd5viEu2
TZrP+bz6n80ybfY6Cw0jQnjsl0K/Dk1gVuHTAvIZy4RXkOVwoaKDNYbi2oaf+YrE
ebNSKNrLuzTK09qRSs+NdqKya5v5lv0JKtoRI03wy9aysQ4SbJoZZZiHyuTuJM5E
rJCPnRvFKp0CAwEAAaOCAQ4wggEKMAsGA1UdDwQEAwIFoDAJBgNVHRMEAjAAMBEG
CWCGSAGG+EIBAQQEAwIGQDAzBglghkgBhvhCAQ0EJhYkT3BlblNTTCBHZW5lcmF0
ZWQgU2VydmVyIENlcnRpZmljYXRlMB0GA1UdDgQWBBRNB5Ct/x0N5xrd1i76ujTL
qh8kxjB0BgNVHSMEbTBrgBT0p8DMkUavZPOR8if4yLJviocyc6FIpEYwRDELMAkG
A1UEBhMCREUxDzANBgNVBAgMBkhlc3NlbjEUMBIGA1UECgwLcHJpdmFjeWlkZWEx
DjAMBgNVBAMMBUNBMDAxggkA+8jrrIPNEgcwEwYDVR0lBAwwCgYIKwYBBQUHAwEw
DQYJKoZIhvcNAQEFBQADggEBAIN8UyLVXPpYPOE5gASNE3RlyLiNjZZR4C3NQTD0
D1jpMXSESYd6Y7lvC82NIvhHGnC5xX86hrYtuQUuniwsgdoSGYFUxsbooWhtM2kg
GlDxgcCJRWRpTMRPm4zPfOCl/LoHW+Xdz2HHOGnrChpuVqkaCJC0J69LnxkwjEUJ
sdvj3h2C/3ikaoHhmfUu4l/uO7X8VN7poH6bNnC32JaCD/GvwQMUeCxtHEi1yEI1
QbNNoXfRr9w1BwGaBSIyYm/UmCgm0pIL5BgeW4Gs/YFzdIYOhXFQfuW+3LRbGQbq
FBeho+RjUIFJW1Zm1YtMgoMJLlFkO79sPH/TKg5dQCyYk1E=
-----END CERTIFICATE-----
