Certificate:
    Data:
        Version: 3 (0x2)
        Serial Number: 268435677 (0x100000dd)
    Signature Algorithm: sha1WithRSAEncryption
        Issuer: C=DE, ST=Hessen, O=privacyidea, CN=CA001
        Validity
            Not Before: Apr 11 10:08:27 2016 GMT
            Not After : Apr 11 10:08:27 2017 GMT
        Subject: C=DE, ST=Hessen, O=privacyidea, CN=requester.localdomain
        Subject Public Key Info:
            Public Key Algorithm: rsaEncryption
                Public-Key: (2048 bit)
                Modulus:
                    00:cd:be:14:4f:fa:ce:01:3f:42:22:1b:1d:9c:af:
                    dd:92:d2:7f:db:6c:b7:3e:39:43:43:6b:13:03:f1:
                    05:f4:07:74:bc:76:69:28:0b:af:19:8e:d7:fc:e3:
                    cd:c6:58:f2:ca:7f:08:6d:53:fc:07:02:44:24:c6:
                    b4:34:4c:8c:04:fe:33:0e:40:e2:20:ba:02:73:5a:
                    f7:f5:4f:63:6e:cc:c6:b6:df:54:1d:37:39:7d:51:
                    36:26:5f:bd:dc:3f:a8:8b:6b:a2:ae:b6:9d:d6:21:
                    e7:df:41:b8:7a:28:2a:68:48:ca:a8:2d:ed:e1:e9:
                    46:5e:5a:72:6d:b4:84:38:87:91:fd:94:11:0b:28:
                    84:c6:c2:2f:2a:fb:01:f9:36:7a:09:75:d1:33:88:
                    3c:73:41:5b:c8:bf:94:89:70:a1:f0:c0:b9:2e:50:
                    53:1e:b1:17:64:69:f4:2d:81:e0:a9:0d:0e:32:e9:
                    ba:55:8a:85:f1:1b:6f:49:79:b4:7f:88:c3:0d:3e:
                    54:88:9b:3d:1f:38:8c:04:f3:ee:6a:63:2b:f5:c6:
                    db:b4:83:aa:c4:78:41:3a:7d:4b:e1:c8:3e:71:ca:
                    1b:61:59:ea:c6:c4:ca:32:5e:c9:e9:bf:12:29:e6:
                    c6:c3:63:fe:a0:55:da:7a:f1:60:98:4d:26:ed:fa:
                    70:2d
                Exponent: 65537 (0x10001)
        X509v3 extensions:
            X509v3 Key Usage: 
                Digital Signature, Key Encipherment
            X509v3 Basic Constraints: 
                CA:FALSE
            Netscape Cert Type: 
                SSL Server
            Netscape Comment: 
                OpenSSL Generated Server Certificate
            X509v3 Subject Key Identifier: 
                53:3F:ED:5D:09:07:B3:65:7B:AB:45:C9:24:5B:09:77:80:0A:96:ED
            X509v3 Authority Key Identifier: 
                keyid:F4:A7:C0:CC:91:46:AF:64:F3:91:F2:27:F8:C8:B2:6F:8A:87:32:73
                DirName:/C=DE/ST=Hessen/O=privacyidea/CN=CA001
                serial:FB:C8:EB:AC:83:CD:12:07

            X509v3 Extended Key Usage: 
                TLS Web Server Authentication
    Signature Algorithm: sha1WithRSAEncryption
         25:7d:39:c6:24:70:61:94:f9:a1:fc:23:f7:16:89:1f:f9:5e:
         b2:09:ce:f1:d5:dd:8c:4b:70:9f:70:81:2a:f0:b6:df:6a:53:
         3e:81:c8:fc:ef:f1:a0:f2:d9:ad:7a:b2:d5:06:b1:0c:12:6a:
         33:9d:2e:8c:71:43:46:d0:44:6c:3e:f2:5d:8c:a3:ab:db:17:
         99:44:b6:58:e3:c5:51:19:48:60:c5:e1:9a:8b:4b:5f:fa:d2:
         8b:cf:6c:b0:72:38:f6:52:c2:5a:f0:5a:f6:81:b1:b8:0b:c5:
         95:24:f1:27:69:eb:29:7d:27:4e:f0:c6:34:85:ec:bd:0e:c0:
         cc:91:08:e7:73:95:9f:88:0c:d6:90:35:ff:05:0a:f3:21:85:
         fd:75:07:39:98:88:79:4f:71:ef:31:03:2d:fe:86:29:71:a7:
         7b:ac:6c:e9:88:49:91:e6:cb:06:ae:8b:50:21:3a:7b:c2:32:
         04:f5:a8:62:07:4c:3d:4d:87:d9:1e:1f:1e:a1:90:43:ca:54:
         86:18:a5:43:7e:d2:dd:7d:9c:14:3c:49:03:7d:6e:be:08:f7:
         eb:60:2b:fe:de:11:0f:4e:0c:59:01:11:f6:1e:69:6e:7b:a8:
         1a:36:d0:4e:94:10:0f:05:4c:bf:7c:5b:3d:4a:54:72:ec:5b:
         2a:08:5f:f7
-----BEGIN CERTIFICATE-----
MIIEJjCCAw6gAwIBAgIEEAAA3TANBgkqhkiG9w0BAQUFADBEMQswCQYDVQQGEwJE
RTEPMA0GA1UECAwGSGVzc2VuMRQwEgYDVQQKDAtwcml2YWN5aWRlYTEOMAwGA1UE
AwwFQ0EwMDEwHhcNMTYwNDExMTAwODI3WhcNMTcwNDExMTAwODI3WjBUMQswCQYD
VQQGEwJERTEPMA0GA1UECAwGSGVzc2VuMRQwEgYDVQQKDAtwcml2YWN5aWRlYTEe
MBwGA1UEAwwVcmVxdWVzdGVyLmxvY2FsZG9tYWluMIIBIjANBgkqhkiG9w0BAQEF
AAOCAQ8AMIIBCgKCAQEAzb4UT/rOAT9CIhsdnK/dktJ/22y3PjlDQ2sTA/EF9Ad0
vHZpKAuvGY7X/OPNxljyyn8IbVP8BwJEJMa0NEyMBP4zDkDiILoCc1r39U9jbszG
tt9UHTc5fVE2Jl+93D+oi2uirrad1iHn30G4eigqaEjKqC3t4elGXlpybbSEOIeR
/ZQRCyiExsIvKvsB+TZ6CXXRM4g8c0FbyL+UiXCh8MC5LlBTHrEXZGn0LYHgqQ0O
Mum6VYqF8RtvSXm0f4jDDT5UiJs9HziMBPPuamMr9cbbtIOqxHhBOn1L4cg+ccob
YVnqxsTKMl7J6b8SKebGw2P+oFXaevFgmE0m7fpwLQIDAQABo4IBDjCCAQowCwYD
VR0PBAQDAgWgMAkGA1UdEwQCMAAwEQYJYIZIAYb4QgEBBAQDAgZAMDMGCWCGSAGG
+EIBDQQmFiRPcGVuU1NMIEdlbmVyYXRlZCBTZXJ2ZXIgQ2VydGlmaWNhdGUwHQYD
VR0OBBYEFFM/7V0JB7Nle6tFySRbCXeACpbtMHQGA1UdIwRtMGuAFPSnwMyRRq9k
85HyJ/jIsm+KhzJzoUikRjBEMQswCQYDVQQGEwJERTEPMA0GA1UECAwGSGVzc2Vu
MRQwEgYDVQQKDAtwcml2YWN5aWRlYTEOMAwGA1UEAwwFQ0EwMDGCCQD7yOusg80S
BzATBgNVHSUEDDAKBggrBgEFBQcDATANBgkqhkiG9w0BAQUFAAOCAQEAJX05xiRw
YZT5ofwj9xaJH/lesgnO8dXdjEtwn3CBKvC232pTPoHI/O/xoPLZrXqy1QaxDBJq
M50ujHFDRtBEbD7yXYyjq9sXmUS2WOPFURlIYMXhmotLX/rSi89ssHI49lLCWvBa
9oGxuAvFlSTxJ2nrKX0nTvDGNIXsvQ7AzJEI53OVn4gM1pA1/wUK8yGF/XUHOZiI
eU9x7zEDLf6GKXGne6xs6YhJkebLBq6LUCE6e8IyBPWoYgdMPU2H2R4fHqGQQ8pU
hhilQ37S3X2cFDxJA31uvgj362Ar/t4RD04MWQER9h5pbnuoGjbQTpQQDwVMv3xb
PUpUcuxbKghf9w==
-----END CERTIFICATE-----
