Certificate:
    Data:
        Version: 3 (0x2)
        Serial Number: 268435658 (0x100000ca)
    Signature Algorithm: sha1WithRSAEncryption
        Issuer: C=DE, ST=Hessen, O=privacyidea, CN=CA001
        Validity
            Not Before: Apr 11 08:26:21 2016 GMT
            Not After : Apr 11 08:26:21 2017 GMT
        Subject: C=DE, ST=Hessen, O=privacyidea, CN=usercert
        Subject Public Key Info:
            Public Key Algorithm: rsaEncryption
                Public-Key: (2048 bit)
                Modulus:
                    00:dc:2f:d1:5f:29:97:d4:7c:c3:53:c8:30:bd:4b:
                    67:70:2c:24:6b:b8:5e:eb:21:7a:48:12:56:7c:81:
                    5c:48:75:b6:68:eb:f6:f2:98:4e:50:51:d1:7f:6c:
                    73:f3:0a:a7:ae:be:48:5e:e5:d6:e1:d9:2a:7c:32:
                    6e:4e:fd:08:f6:5a:54:49:23:73:c3:b9:07:18:d1:
                    ef:b3:ac:f8:8a:dc:94:96:a4:90:3a:8e:74:df:e6:
                    0d:37:1b:bd:5b:b7:25:1a:56:39:da:6f:91:aa:5e:
                    1c:74:f3:f9:7c:14:01:83:12:65:76:c7:bb:fe:36:
                    5b:95:e9:72:65:83:ed:3e:98:30:71:fa:87:dd:a3:
                    36:5a:30:03:2e:26:e0:61:d1:bf:02:3f:b6:06:1f:
                    4a:89:28:1c:5c:a2:ff:4e:be:94:e6:8c:e0:da:82:
                    f1:9d:29:32:48:30:73:b4:04:f6:42:1e:be:f7:e2:
                    32:32:27:3c:9d:89:2f:70:3e:85:9a:6f:5c:c5:09:
                    c0:8c:32:2f:72:22:c9:d2:95:1f:b6:ac:72:60:72:
                    b7:82:4d:6b:ce:5b:e3:00:d0:d2:2f:58:c6:e0:10:
                    e5:51:ca:4d:3b:2e:e6:7e:ab:84:d6:56:f1:93:35:
                    a0:93:64:26:81:75:2f:91:b5:16:06:38:0b:db:cc:
                    2d:07
                Exponent: 65537 (0x10001)
        X509v3 extensions:
            X509v3 Key Usage: 
                Digital Signature, Key Encipherment
            X509v3 Basic Constraints: 
                CA:FALSE
            Netscape Cert Type: 
                SSL Server
            Netscape Comment: 
                OpenSSL Generated Server Certificate
            X509v3 Subject Key Identifier: 
                FC:14:D1:F0:4B:8D:00:90:F2:F5:B8:71:9E:4E:97:C3:92:54:AD:0B
            X509v3 Authority Key Identifier: 
                keyid:F4:A7:C0:CC:91:46:AF:64:F3:91:F2:27:F8:C8:B2:6F:8A:87:32:73
                DirName:/C=DE/ST=Hessen/O=privacyidea/CN=CA001
                serial:FB:C8:EB:AC:83:CD:12:07

            X509v3 Extended Key Usage: 
                TLS Web Server Authentication
    Signature Algorithm: sha1WithRSAEncryption
         94:83:53:bc:33:c3:2f:20:d5:bc:ba:ee:fc:62:c3:c2:89:3b:
         61:23:95:17:70:d5:f3:d9:63:c4:8b:41:c2:85:85:47:ba:55:
         2e:b0:3f:a7:23:27:e6:77:6b:5f:bc:eb:09:8e:76:13:63:3e:
         38:e1:bf:f5:19:29:a5:99:09:39:fa:9e:fe:68:4b:d4:99:09:
         29:b1:58:90:cd:7e:0e:b3:e7:d1:b2:95:50:45:32:c5:af:95:
         c3:e8:ac:d3:82:64:07:56:e7:1d:75:ee:7d:94:19:e5:05:1f:
         50:b3:5d:9a:34:7b:6a:c1:a3:09:17:3d:5f:94:8a:b1:9b:d2:
         53:93:57:3e:34:b0:0b:b7:d8:e1:66:8f:89:33:e3:3f:73:9e:
         03:2c:8c:d7:15:ac:02:da:91:16:a2:97:84:c2:53:69:a4:4e:
         cf:52:35:82:0a:6b:fe:c1:3c:21:5f:4c:f0:d0:55:2f:cb:04:
         51:d8:f6:3d:4f:d0:d6:9b:4b:de:a6:d3:a6:56:05:8b:b7:a2:
         a0:a7:70:08:27:a5:78:58:4c:3c:50:fa:d4:34:e5:52:55:26:
         96:06:00:4d:1e:0d:58:3a:73:00:a4:f8:55:15:79:94:bd:2b:
         b3:67:0b:df:0f:ba:f7:50:d0:85:d8:22:9d:af:c7:8d:0d:02:
         a0:71:88:4f
-----BEGIN CERTIFICATE-----
MIIEGTCCAwGgAwIBAgIEEAAAyjANBgkqhkiG9w0BAQUFADBEMQswCQYDVQQGEwJE
RTEPMA0GA1UECAwGSGVzc2VuMRQwEgYDVQQKDAtwcml2YWN5aWRlYTEOMAwGA1UE
AwwFQ0EwMDEwHhcNMTYwNDExMDgyNjIxWhcNMTcwNDExMDgyNjIxWjBHMQswCQYD
VQQGEwJERTEPMA0GA1UECAwGSGVzc2VuMRQwEgYDVQQKDAtwcml2YWN5aWRlYTER
MA8GA1UEAwwIdXNlcmNlcnQwggEiMA0GCSqGSIb3DQEBAQUAA4IBDwAwggEKAoIB
AQDcL9FfKZfUfMNTyDC9S2dwLCRruF7rIXpIElZ8gVxIdbZo6/bymE5QUdF/bHPz
Cqeuvkhe5dbh2Sp8Mm5O/Qj2WlRJI3PDuQcY0e+zrPiK3JSWpJA6jnTf5g03G71b
tyUaVjnab5GqXhx08/l8FAGDEmV2x7v+NluV6XJlg+0+mDBx+ofdozZaMAMuJuBh
0b8CP7YGH0qJKBxcov9OvpTmjODagvGdKTJIMHO0BPZCHr734jIyJzydiS9wPoWa
b1zFCcCMMi9yIsnSlR+2rHJgcreCTWvOW+MA0NIvWMbgEOVRyk07LuZ+q4TWVvGT
NaCTZCaBdS+RtRYGOAvbzC0HAgMBAAGjggEOMIIBCjALBgNVHQ8EBAMCBaAwCQYD
VR0TBAIwADARBglghkgBhvhCAQEEBAMCBkAwMwYJYIZIAYb4QgENBCYWJE9wZW5T
U0wgR2VuZXJhdGVkIFNlcnZlciBDZXJ0aWZpY2F0ZTAdBgNVHQ4EFgQU/BTR8EuN
AJDy9bhxnk6Xw5JUrQswdAYDVR0jBG0wa4AU9KfAzJFGr2TzkfIn+Miyb4qHMnOh
SKRGMEQxCzAJBgNVBAYTAkRFMQ8wDQYDVQQIDAZIZXNzZW4xFDASBgNVBAoMC3By
aXZhY3lpZGVhMQ4wDAYDVQQDDAVDQTAwMYIJAPvI66yDzRIHMBMGA1UdJQQMMAoG
CCsGAQUFBwMBMA0GCSqGSIb3DQEBBQUAA4IBAQCUg1O8M8MvINW8uu78YsPCiTth
I5UXcNXz2WPEi0HChYVHulUusD+nIyfmd2tfvOsJjnYTYz444b/1GSmlmQk5+p7+
aEvUmQkpsViQzX4Os+fRspVQRTLFr5XD6KzTgmQHVucdde59lBnlBR9Qs12aNHtq
waMJFz1flIqxm9JTk1c+NLALt9jhZo+JM+M/c54DLIzXFawC2pEWopeEwlNppE7P
UjWCCmv+wTwhX0zw0FUvywRR2PY9T9DWm0veptOmVgWLt6Kgp3AIJ6V4WEw8UPrU
NOVSVSaWBgBNHg1YOnMApPhVFXmUvSuzZwvfD7r3UNCF2CKdr8eNDQKgcYhP
-----END CERTIFICATE-----
