Certificate:
    Data:
        Version: 3 (0x2)
        Serial Number: 268435690 (0x100000ea)
    Signature Algorithm: sha1WithRSAEncryption
        Issuer: C=DE, ST=Hessen, O=privacyidea, CN=CA001
        Validity
            Not Before: Sep 20 16:58:13 2015 GMT
            Not After : Sep 19 16:58:13 2016 GMT
        Subject: C=DE, ST=Hessen, O=privacyidea, CN=requester.localdomain
        Subject Public Key Info:
            Public Key Algorithm: rsaEncryption
                Public-Key: (2048 bit)
                Modulus:
                    00:cd:be:14:4f:fa:ce:01:3f:42:22:1b:1d:9c:af:
                    dd:92:d2:7f:db:6c:b7:3e:39:43:43:6b:13:03:f1:
                    05:f4:07:74:bc:76:69:28:0b:af:19:8e:d7:fc:e3:
                    cd:c6:58:f2:ca:7f:08:6d:53:fc:07:02:44:24:c6:
                    b4:34:4c:8c:04:fe:33:0e:40:e2:20:ba:02:73:5a:
                    f7:f5:4f:63:6e:cc:c6:b6:df:54:1d:37:39:7d:51:
                    36:26:5f:bd:dc:3f:a8:8b:6b:a2:ae:b6:9d:d6:21:
                    e7:df:41:b8:7a:28:2a:68:48:ca:a8:2d:ed:e1:e9:
                    46:5e:5a:72:6d:b4:84:38:87:91:fd:94:11:0b:28:
                    84:c6:c2:2f:2a:fb:01:f9:36:7a:09:75:d1:33:88:
                    3c:73:41:5b:c8:bf:94:89:70:a1:f0:c0:b9:2e:50:
                    53:1e:b1:17:64:69:f4:2d:81:e0:a9:0d:0e:32:e9:
                    ba:55:8a:85:f1:1b:6f:49:79:b4:7f:88:c3:0d:3e:
                    54:88:9b:3d:1f:38:8c:04:f3:ee:6a:63:2b:f5:c6:
                    db:b4:83:aa:c4:78:41:3a:7d:4b:e1:c8:3e:71:ca:
                    1b:61:59:ea:c6:c4:ca:32:5e:c9:e9:bf:12:29:e6:
                    c6:c3:63:fe:a0:55:da:7a:f1:60:98:4d:26:ed:fa:
                    70:2d
                Exponent: 65537 (0x10001)
        X509v3 extensions:
            X509v3 Key Usage: 
                Digital Signature, Key Encipherment
            X509v3 Basic Constraints: 
                CA:FALSE
            Netscape Cert Type: 
                SSL Server
            Netscape Comment: 
                OpenSSL Generated Server Certificate
            X509v3 Subject Key Identifier: 
                53:3F:ED:5D:09:07:B3:65:7B:AB:45:C9:24:5B:09:77:80:0A:96:ED
            X509v3 Authority Key Identifier: 
                keyid:F4:A7:C0:CC:91:46:AF:64:F3:91:F2:27:F8:C8:B2:6F:8A:87:32:73
                DirName:/C=DE/ST=Hessen/O=privacyidea/CN=CA001
                serial:FB:C8:EB:AC:83:CD:12:07

            X509v3 Extended Key Usage: 
                TLS Web Server Authentication
    Signature Algorithm: sha1WithRSAEncryption
         59:dc:ae:fa:73:61:d5:a9:9f:c6:85:38:1b:d4:ad:f3:31:0d:
         c7:91:8a:39:96:32:91:09:8c:56:92:7e:9d:2c:67:f9:ed:98:
         a0:25:d8:30:f8:b5:e4:46:d5:6f:e9:3d:e2:aa:e2:75:b8:a9:
         7e:60:68:cf:cc:3c:7d:42:d5:07:7d:8b:21:32:43:ab:17:91:
         d6:ea:aa:19:f1:16:d2:ba:ca:20:b8:e0:01:18:c0:24:ee:72:
         61:eb:bd:93:a8:c5:5e:cb:07:e8:2f:f4:f6:fb:d0:13:f5:ce:
         52:fc:83:10:a3:f6:bd:4b:80:8a:d5:bb:1b:df:42:b6:fe:e5:
         7c:e1:8c:7c:52:07:be:6b:10:5e:d1:b1:c2:23:5d:39:3f:c8:
         c5:05:1b:c7:61:45:b9:04:26:9f:c6:af:4a:30:b4:9f:1b:84:
         16:5c:b4:a9:e4:e1:48:e4:d2:55:e9:5b:27:fa:59:3b:0f:03:
         d3:f7:bb:e8:3d:85:6e:ae:e3:8c:6c:9a:d8:f3:d9:e9:1d:f7:
         e8:5e:92:7b:b0:a0:1b:92:77:9a:99:76:92:52:f7:95:ce:cb:
         93:19:38:57:2f:95:5a:88:47:00:2b:db:cb:d0:6c:bd:3a:c3:
         4c:14:c2:f5:01:76:d6:d7:b3:e2:f1:76:b7:64:ac:21:67:09:
         86:c0:20:59
-----BEGIN CERTIFICATE-----
MIIEJjCCAw6gAwIBAgIEEAAA6jANBgkqhkiG9w0BAQUFADBEMQswCQYDVQQGEwJE
RTEPMA0GA1UECAwGSGVzc2VuMRQwEgYDVQQKDAtwcml2YWN5aWRlYTEOMAwGA1UE
AwwFQ0EwMDEwHhcNMTUwOTIwMTY1ODEzWhcNMTYwOTE5MTY1ODEzWjBUMQswCQYD
VQQGEwJERTEPMA0GA1UECAwGSGVzc2VuMRQwEgYDVQQKDAtwcml2YWN5aWRlYTEe
MBwGA1UEAwwVcmVxdWVzdGVyLmxvY2FsZG9tYWluMIIBIjANBgkqhkiG9w0BAQEF
AAOCAQ8AMIIBCgKCAQEAzb4UT/rOAT9CIhsdnK/dktJ/22y3PjlDQ2sTA/EF9Ad0
vHZpKAuvGY7X/OPNxljyyn8IbVP8BwJEJMa0NEyMBP4zDkDiILoCc1r39U9jbszG
tt9UHTc5fVE2Jl+93D+oi2uirrad1iHn30G4eigqaEjKqC3t4elGXlpybbSEOIeR
/ZQRCyiExsIvKvsB+TZ6CXXRM4g8c0FbyL+UiXCh8MC5LlBTHrEXZGn0LYHgqQ0O
Mum6VYqF8RtvSXm0f4jDDT5UiJs9HziMBPPuamMr9cbbtIOqxHhBOn1L4cg+ccob
YVnqxsTKMl7J6b8SKebGw2P+oFXaevFgmE0m7fpwLQIDAQABo4IBDjCCAQowCwYD
VR0PBAQDAgWgMAkGA1UdEwQCMAAwEQYJYIZIAYb4QgEBBAQDAgZAMDMGCWCGSAGG
+EIBDQQmFiRPcGVuU1NMIEdlbmVyYXRlZCBTZXJ2ZXIgQ2VydGlmaWNhdGUwHQYD
VR0OBBYEFFM/7V0JB7Nle6tFySRbCXeACpbtMHQGA1UdIwRtMGuAFPSnwMyRRq9k
85HyJ/jIsm+KhzJzoUikRjBEMQswCQYDVQQGEwJERTEPMA0GA1UECAwGSGVzc2Vu
MRQwEgYDVQQKDAtwcml2YWN5aWRlYTEOMAwGA1UEAwwFQ0EwMDGCCQD7yOusg80S
BzATBgNVHSUEDDAKBggrBgEFBQcDATANBgkqhkiG9w0BAQUFAAOCAQEAWdyu+nNh
1amfxoU4G9St8zENx5GKOZYykQmMVpJ+nSxn+e2YoCXYMPi15EbVb+k94qridbip
fmBoz8w8fULVB32LITJDqxeR1uqqGfEW0rrKILjgARjAJO5yYeu9k6jFXssH6C/0
9vvQE/XOUvyDEKP2vUuAitW7G99Ctv7lfOGMfFIHvmsQXtGxwiNdOT/IxQUbx2FF
uQQmn8avSjC0nxuEFly0qeThSOTSVelbJ/pZOw8D0/e76D2Fbq7jjGya2PPZ6R33
6F6Se7CgG5J3mpl2klL3lc7Lkxk4Vy+VWohHACvby9BsvTrDTBTC9QF21tez4vF2
t2SsIWcJhsAgWQ==
-----END CERTIFICATE-----
