Certificate:
    Data:
        Version: 3 (0x2)
        Serial Number: 268435666 (0x100000d2)
    Signature Algorithm: sha1WithRSAEncryption
        Issuer: C=DE, ST=Hessen, O=privacyidea, CN=CA001
        Validity
            Not Before: Apr 11 08:56:14 2016 GMT
            Not After : Apr 11 08:56:14 2017 GMT
        Subject: CN=selfservice,CN=user,O=realm1/emailAddress=meine
        Subject Public Key Info:
            Public Key Algorithm: rsaEncryption
                Public-Key: (2048 bit)
                Modulus:
                    00:cf:3c:d4:33:0e:12:c4:e6:da:cd:b6:56:a1:1c:
                    26:bb:26:1c:8a:4a:73:a8:58:8a:b6:1e:b3:8b:99:
                    d2:1d:07:c2:92:89:79:c0:69:d8:c8:df:28:61:98:
                    1e:b3:fe:ae:2b:bd:78:a9:f7:6e:47:dc:a3:a0:16:
                    8c:85:02:c1:4e:92:fd:72:6e:f0:c8:03:29:9b:b8:
                    00:6e:c0:83:95:c8:34:20:36:9c:b3:e5:e4:e6:76:
                    73:a3:1a:ad:40:96:e0:53:54:00:ec:76:79:9a:c6:
                    0d:7e:b6:bd:29:ec:83:f3:cb:89:a4:cb:6c:00:ba:
                    0c:c5:78:0f:ff:69:b8:94:f4:04:70:43:3f:d8:9e:
                    d7:a7:fb:5d:ce:75:8e:da:e7:c4:07:b1:9d:de:6f:
                    88:4b:b6:4d:9a:cf:f9:bc:fa:9f:cd:32:6d:f6:3a:
                    0b:0d:23:42:78:ec:97:42:bf:0e:4d:60:56:e1:d3:
                    02:f2:19:cb:84:57:90:e5:70:a1:a2:83:35:86:e2:
                    da:86:9f:f9:8a:c4:79:b3:52:28:da:cb:bb:34:ca:
                    d3:da:91:4a:cf:8d:76:a2:b2:6b:9b:f9:96:fd:09:
                    2a:da:11:23:4d:f0:cb:d6:b2:b1:0e:12:6c:9a:19:
                    65:98:87:ca:e4:ee:24:ce:44:ac:90:8f:9d:1b:c5:
                    2a:9d
                Exponent: 65537 (0x10001)
        X509v3 extensions:
            X509v3 Key Usage: 
                Digital Signature, Key Encipherment
            X509v3 Basic Constraints: 
                CA:FALSE
            Netscape Cert Type: 
                SSL Server
            Netscape Comment: 
                OpenSSL Generated Server Certificate
            X509v3 Subject Key Identifier: 
                4D:07:90:AD:FF:1D:0D:E7:1A:DD:D6:2E:FA:BA:34:CB:AA:1F:24:C6
            X509v3 Authority Key Identifier: 
                keyid:F4:A7:C0:CC:91:46:AF:64:F3:91:F2:27:F8:C8:B2:6F:8A:87:32:73
                DirName:/C=DE/ST=Hessen/O=privacyidea/CN=CA001
                serial:FB:C8:EB:AC:83:CD:12:07

            X509v3 Extended Key Usage: 
                TLS Web Server Authentication
    Signature Algorithm: sha1WithRSAEncryption
         28:a1:e6:a1:33:ec:1a:7c:5d:c2:5e:54:91:eb:1d:2f:3d:41:
         d9:7b:7d:51:51:75:66:cf:dc:88:40:ca:d6:29:d3:97:da:c4:
         c0:55:ba:dc:ff:3e:f7:d8:45:3e:0b:a4:c5:49:ed:a8:2a:73:
         d7:85:2b:27:1d:c6:bd:bf:7b:cb:51:f4:dd:fd:6e:59:dd:39:
         cd:bb:ca:2c:50:71:3e:cc:b9:52:c2:3d:a3:7b:b4:29:eb:b7:
         07:b1:e9:e1:7f:06:d7:7a:03:4b:85:a4:3f:0f:1f:64:53:3d:
         68:2e:03:07:1d:b2:f2:44:a1:c1:f4:bf:11:d7:1a:d4:db:bd:
         9f:34:5b:5a:a3:74:d9:93:8f:88:73:7b:38:6f:62:19:d0:e3:
         9a:9c:06:40:88:43:4a:5f:72:9d:c9:dc:5c:af:2e:ec:10:ac:
         44:23:1e:6d:05:78:d6:a9:4b:97:ba:50:64:89:35:67:5c:60:
         cf:da:10:76:77:df:e8:e0:cd:d4:33:0d:e4:0b:2b:74:c0:b6:
         ef:a9:62:c5:55:f6:97:0f:1e:16:45:7a:91:8a:8b:0a:e8:7b:
         1e:6d:cd:b2:66:3a:a4:59:46:8e:e7:d5:84:8b:71:44:24:60:
         6c:52:6c:3e:61:c0:c9:ca:ca:7a:6b:ac:0d:b7:c1:b3:c6:11:
         7a:32:a1:4b
-----BEGIN CERTIFICATE-----
MIIEDzCCAvegAwIBAgIEEAAA0jANBgkqhkiG9w0BAQUFADBEMQswCQYDVQQGEwJE
RTEPMA0GA1UECAwGSGVzc2VuMRQwEgYDVQQKDAtwcml2YWN5aWRlYTEOMAwGA1UE
AwwFQ0EwMDEwHhcNMTYwNDExMDg1NjE0WhcNMTcwNDExMDg1NjE0WjA9MSUwIwYD
VQQDExxzZWxmc2VydmljZSxDTj11c2VyLE89cmVhbG0xMRQwEgYJKoZIhvcNAQkB
FgVtZWluZTCCASIwDQYJKoZIhvcNAQEBBQADggEPADCCAQoCggEBAM881DMOEsTm
2s22VqEcJrsmHIpKc6hYirYes4uZ0h0HwpKJecBp2MjfKGGYHrP+riu9eKn3bkfc
o6AWjIUCwU6S/XJu8MgDKZu4AG7Ag5XINCA2nLPl5OZ2c6MarUCW4FNUAOx2eZrG
DX62vSnsg/PLiaTLbAC6DMV4D/9puJT0BHBDP9ie16f7Xc51jtrnxAexnd5viEu2
TZrP+bz6n80ybfY6Cw0jQnjsl0K/Dk1gVuHTAvIZy4RXkOVwoaKDNYbi2oaf+YrE
ebNSKNrLuzTK09qRSs+NdqKya5v5lv0JKtoRI03wy9aysQ4SbJoZZZiHyuTuJM5E
rJCPnRvFKp0CAwEAAaOCAQ4wggEKMAsGA1UdDwQEAwIFoDAJBgNVHRMEAjAAMBEG
CWCGSAGG+EIBAQQEAwIGQDAzBglghkgBhvhCAQ0EJhYkT3BlblNTTCBHZW5lcmF0
ZWQgU2VydmVyIENlcnRpZmljYXRlMB0GA1UdDgQWBBRNB5Ct/x0N5xrd1i76ujTL
qh8kxjB0BgNVHSMEbTBrgBT0p8DMkUavZPOR8if4yLJviocyc6FIpEYwRDELMAkG
A1UEBhMCREUxDzANBgNVBAgMBkhlc3NlbjEUMBIGA1UECgwLcHJpdmFjeWlkZWEx
DjAMBgNVBAMMBUNBMDAxggkA+8jrrIPNEgcwEwYDVR0lBAwwCgYIKwYBBQUHAwEw
DQYJKoZIhvcNAQEFBQADggEBACih5qEz7Bp8XcJeVJHrHS89Qdl7fVFRdWbP3IhA
ytYp05faxMBVutz/PvfYRT4LpMVJ7agqc9eFKycdxr2/e8tR9N39blndOc27yixQ
cT7MuVLCPaN7tCnrtwex6eF/Btd6A0uFpD8PH2RTPWguAwcdsvJEocH0vxHXGtTb
vZ80W1qjdNmTj4hzezhvYhnQ45qcBkCIQ0pfcp3J3FyvLuwQrEQjHm0FeNapS5e6
UGSJNWdcYM/aEHZ33+jgzdQzDeQLK3TAtu+pYsVV9pcPHhZFepGKiwroex5tzbJm
OqRZRo7n1YSLcUQkYGxSbD5hwMnKynprrA23wbPGEXoyoUs=
-----END CERTIFICATE-----
