Certificate:
    Data:
        Version: 3 (0x2)
        Serial Number: 268435697 (0x100000f1)
    Signature Algorithm: sha1WithRSAEncryption
        Issuer: C=DE, ST=Hessen, O=privacyidea, CN=CA001
        Validity
            Not Before: Sep 20 17:18:16 2015 GMT
            Not After : Sep 19 17:18:16 2016 GMT
        Subject: CN=Steve Test/emailAddress=steve@openssl.org
        Subject Public Key Info:
            Public Key Algorithm: rsaEncryption
                Public-Key: (2048 bit)
                Modulus:
                    00:d2:81:89:20:51:48:0f:73:f4:11:32:24:d5:1f:
                    1c:fd:5c:f5:b6:e6:c5:f0:52:81:dc:d2:af:66:4a:
                    7c:93:31:61:5c:af:d1:6d:06:70:03:60:7c:72:0c:
                    88:dd:49:cd:9e:02:6c:d2:5a:d7:53:0f:f3:da:be:
                    69:64:b5:0f:0c:00:e3:b3:50:47:a3:b3:9b:ba:13:
                    50:d6:58:5a:4b:ab:39:e0:11:ca:0a:27:67:03:78:
                    22:66:6d:92:1e:1b:5c:49:ae:e6:6b:d1:8e:3b:9d:
                    06:d3:c6:ac:4d:53:43:10:ab:e8:96:c1:87:82:97:
                    99:8f:20:d3:99:12:37:31:84:e1:8a:ff:29:03:5f:
                    22:90:3e:7f:9b:e0:20:c1:ad:dc:ae:4c:39:1a:31:
                    96:17:02:8c:b2:d9:b4:0d:20:12:9b:7d:86:54:fd:
                    33:fd:c1:2a:62:46:f8:60:96:cf:6e:01:6f:22:df:
                    13:47:e7:97:ec:05:72:23:a3:62:f8:fa:ef:ac:9c:
                    72:f0:37:cb:2f:37:cf:90:a8:27:51:86:c6:d7:78:
                    08:8f:7e:25:a2:15:70:a2:fb:1c:b6:15:5e:a0:97:
                    8b:81:4c:09:28:8a:27:3b:94:bc:71:db:5b:71:37:
                    9a:2b:16:e0:6f:b5:c9:f5:4b:4f:20:ba:65:cf:af:
                    ad:ad
                Exponent: 65537 (0x10001)
        X509v3 extensions:
            X509v3 Key Usage: 
                Digital Signature, Key Encipherment
            X509v3 Basic Constraints: 
                CA:FALSE
            Netscape Cert Type: 
                SSL Server
            Netscape Comment: 
                OpenSSL Generated Server Certificate
            X509v3 Subject Key Identifier: 
                E5:25:6D:3E:AF:0D:DD:3F:4C:F2:45:19:39:D5:14:DB:7E:9C:C0:AD
            X509v3 Authority Key Identifier: 
                keyid:F4:A7:C0:CC:91:46:AF:64:F3:91:F2:27:F8:C8:B2:6F:8A:87:32:73
                DirName:/C=DE/ST=Hessen/O=privacyidea/CN=CA001
                serial:FB:C8:EB:AC:83:CD:12:07

            X509v3 Extended Key Usage: 
                TLS Web Server Authentication
    Signature Algorithm: sha1WithRSAEncryption
         65:f7:f6:34:5b:e0:e0:a2:fd:68:5f:40:b6:8f:4c:94:1a:06:
         6d:76:9b:88:dc:40:2f:3f:f3:1f:84:55:9a:ad:53:ef:7e:67:
         67:d4:0b:06:ae:5e:8d:10:a2:e6:87:82:03:8e:fe:33:d8:f5:
         d5:84:df:53:63:b9:ac:8d:84:fc:a9:68:83:44:0e:59:34:a0:
         1c:f1:71:ba:d5:17:62:d6:54:28:39:93:1c:cc:6f:93:e8:98:
         36:ab:d5:56:14:74:c8:2f:37:17:f1:a4:a6:b1:35:3e:dc:a7:
         22:ef:b4:ba:71:9a:63:2d:5b:f4:34:dd:33:46:6a:4c:c3:9a:
         f6:ac:25:37:e6:d6:7d:c9:b7:ef:73:f0:5c:f5:b8:ca:2c:12:
         b2:a8:60:e9:25:b5:c8:1b:90:1c:68:e3:44:a3:7c:a2:48:1f:
         17:af:1b:ca:3a:62:29:0b:58:a0:60:69:d5:d3:dd:fd:67:e7:
         be:fa:d5:70:f9:88:cb:f3:0b:58:5d:cc:ff:32:a8:87:bb:8b:
         12:f9:ab:36:78:37:aa:1f:e8:ff:bf:72:ed:08:9d:a6:1f:78:
         ea:5a:5e:fe:9e:c5:e3:8c:8f:ba:72:74:88:b0:de:dc:49:8e:
         c9:2f:91:41:86:e4:e9:b2:a2:05:6a:d1:41:79:16:05:19:c8:
         99:42:97:d4
-----BEGIN CERTIFICATE-----
MIIECTCCAvGgAwIBAgIEEAAA8TANBgkqhkiG9w0BAQUFADBEMQswCQYDVQQGEwJE
RTEPMA0GA1UECAwGSGVzc2VuMRQwEgYDVQQKDAtwcml2YWN5aWRlYTEOMAwGA1UE
AwwFQ0EwMDEwHhcNMTUwOTIwMTcxODE2WhcNMTYwOTE5MTcxODE2WjA3MRMwEQYD
VQQDEwpTdGV2ZSBUZXN0MSAwHgYJKoZIhvcNAQkBFhFzdGV2ZUBvcGVuc3NsLm9y
ZzCCASIwDQYJKoZIhvcNAQEBBQADggEPADCCAQoCggEBANKBiSBRSA9z9BEyJNUf
HP1c9bbmxfBSgdzSr2ZKfJMxYVyv0W0GcANgfHIMiN1JzZ4CbNJa11MP89q+aWS1
DwwA47NQR6Ozm7oTUNZYWkurOeARygonZwN4ImZtkh4bXEmu5mvRjjudBtPGrE1T
QxCr6JbBh4KXmY8g05kSNzGE4Yr/KQNfIpA+f5vgIMGt3K5MORoxlhcCjLLZtA0g
Ept9hlT9M/3BKmJG+GCWz24BbyLfE0fnl+wFciOjYvj676yccvA3yy83z5CoJ1GG
xtd4CI9+JaIVcKL7HLYVXqCXi4FMCSiKJzuUvHHbW3E3misW4G+1yfVLTyC6Zc+v
ra0CAwEAAaOCAQ4wggEKMAsGA1UdDwQEAwIFoDAJBgNVHRMEAjAAMBEGCWCGSAGG
+EIBAQQEAwIGQDAzBglghkgBhvhCAQ0EJhYkT3BlblNTTCBHZW5lcmF0ZWQgU2Vy
dmVyIENlcnRpZmljYXRlMB0GA1UdDgQWBBTlJW0+rw3dP0zyRRk51RTbfpzArTB0
BgNVHSMEbTBrgBT0p8DMkUavZPOR8if4yLJviocyc6FIpEYwRDELMAkGA1UEBhMC
REUxDzANBgNVBAgMBkhlc3NlbjEUMBIGA1UECgwLcHJpdmFjeWlkZWExDjAMBgNV
BAMMBUNBMDAxggkA+8jrrIPNEgcwEwYDVR0lBAwwCgYIKwYBBQUHAwEwDQYJKoZI
hvcNAQEFBQADggEBAGX39jRb4OCi/WhfQLaPTJQaBm12m4jcQC8/8x+EVZqtU+9+
Z2fUCwauXo0QouaHggOO/jPY9dWE31NjuayNhPypaINEDlk0oBzxcbrVF2LWVCg5
kxzMb5PomDar1VYUdMgvNxfxpKaxNT7cpyLvtLpxmmMtW/Q03TNGakzDmvasJTfm
1n3Jt+9z8Fz1uMosErKoYOkltcgbkBxo40SjfKJIHxevG8o6YikLWKBgadXT3f1n
57761XD5iMvzC1hdzP8yqIe7ixL5qzZ4N6of6P+/cu0InaYfeOpaXv6exeOMj7py
dIiw3txJjskvkUGG5OmyogVq0UF5FgUZyJlCl9Q=
-----END CERTIFICATE-----
