Certificate:
    Data:
        Version: 3 (0x2)
        Serial Number: 268435661 (0x100000cd)
    Signature Algorithm: sha1WithRSAEncryption
        Issuer: C=DE, ST=Hessen, O=privacyidea, CN=CA001
        Validity
            Not Before: Apr 11 08:44:20 2016 GMT
            Not After : Apr 11 08:44:20 2017 GMT
        Subject: C=DE, ST=Hessen, O=privacyidea, CN=requester.localdomain
        Subject Public Key Info:
            Public Key Algorithm: rsaEncryption
                Public-Key: (2048 bit)
                Modulus:
                    00:cd:be:14:4f:fa:ce:01:3f:42:22:1b:1d:9c:af:
                    dd:92:d2:7f:db:6c:b7:3e:39:43:43:6b:13:03:f1:
                    05:f4:07:74:bc:76:69:28:0b:af:19:8e:d7:fc:e3:
                    cd:c6:58:f2:ca:7f:08:6d:53:fc:07:02:44:24:c6:
                    b4:34:4c:8c:04:fe:33:0e:40:e2:20:ba:02:73:5a:
                    f7:f5:4f:63:6e:cc:c6:b6:df:54:1d:37:39:7d:51:
                    36:26:5f:bd:dc:3f:a8:8b:6b:a2:ae:b6:9d:d6:21:
                    e7:df:41:b8:7a:28:2a:68:48:ca:a8:2d:ed:e1:e9:
                    46:5e:5a:72:6d:b4:84:38:87:91:fd:94:11:0b:28:
                    84:c6:c2:2f:2a:fb:01:f9:36:7a:09:75:d1:33:88:
                    3c:73:41:5b:c8:bf:94:89:70:a1:f0:c0:b9:2e:50:
                    53:1e:b1:17:64:69:f4:2d:81:e0:a9:0d:0e:32:e9:
                    ba:55:8a:85:f1:1b:6f:49:79:b4:7f:88:c3:0d:3e:
                    54:88:9b:3d:1f:38:8c:04:f3:ee:6a:63:2b:f5:c6:
                    db:b4:83:aa:c4:78:41:3a:7d:4b:e1:c8:3e:71:ca:
                    1b:61:59:ea:c6:c4:ca:32:5e:c9:e9:bf:12:29:e6:
                    c6:c3:63:fe:a0:55:da:7a:f1:60:98:4d:26:ed:fa:
                    70:2d
                Exponent: 65537 (0x10001)
        X509v3 extensions:
            X509v3 Key Usage: 
                Digital Signature, Key Encipherment
            X509v3 Basic Constraints: 
                CA:FALSE
            Netscape Cert Type: 
                SSL Server
            Netscape Comment: 
                OpenSSL Generated Server Certificate
            X509v3 Subject Key Identifier: 
                53:3F:ED:5D:09:07:B3:65:7B:AB:45:C9:24:5B:09:77:80:0A:96:ED
            X509v3 Authority Key Identifier: 
                keyid:F4:A7:C0:CC:91:46:AF:64:F3:91:F2:27:F8:C8:B2:6F:8A:87:32:73
                DirName:/C=DE/ST=Hessen/O=privacyidea/CN=CA001
                serial:FB:C8:EB:AC:83:CD:12:07

            X509v3 Extended Key Usage: 
                TLS Web Server Authentication
    Signature Algorithm: sha1WithRSAEncryption
         a5:4b:20:f3:da:29:27:cf:73:18:fb:9c:48:b4:e6:fa:83:65:
         73:26:a9:77:51:0d:cd:fc:94:90:e3:66:ad:4e:d8:33:73:06:
         8b:bb:0a:21:51:9e:a1:12:40:bd:b0:ef:58:55:e0:95:2c:7a:
         2a:e5:a1:1a:16:9d:31:71:29:40:90:39:c1:72:bc:49:e1:2e:
         d0:e3:60:e4:7f:8a:6f:0e:da:c4:42:2a:ce:88:e3:81:32:57:
         3b:34:c1:20:ee:68:fd:b1:14:ba:d3:6a:98:b5:51:b9:34:c6:
         e5:21:9b:2a:0e:46:7c:6b:10:10:dc:17:af:e8:c7:32:ee:9f:
         51:5e:cc:1f:97:5e:d3:f9:a6:0a:a0:c4:26:82:24:34:55:d2:
         dc:e6:fb:5c:2c:e1:7e:e6:bd:44:3f:da:75:54:de:b3:0d:65:
         21:cc:8e:d4:1f:83:ee:0b:e2:62:f1:1f:cf:85:c6:60:7f:87:
         a1:6c:a7:1b:40:65:ce:f9:59:c0:69:0d:f7:83:ff:bd:0d:ea:
         b2:0e:10:1c:a9:59:d4:58:e0:86:12:86:55:84:c9:3f:39:80:
         9b:c3:27:5d:b8:ed:6d:3e:52:b4:ea:51:89:b0:24:28:37:f9:
         7a:89:8d:f3:15:c3:57:11:2f:ff:21:c6:b3:fb:c2:6f:c7:84:
         b7:0c:ed:71
-----BEGIN CERTIFICATE-----
MIIEJjCCAw6gAwIBAgIEEAAAzTANBgkqhkiG9w0BAQUFADBEMQswCQYDVQQGEwJE
RTEPMA0GA1UECAwGSGVzc2VuMRQwEgYDVQQKDAtwcml2YWN5aWRlYTEOMAwGA1UE
AwwFQ0EwMDEwHhcNMTYwNDExMDg0NDIwWhcNMTcwNDExMDg0NDIwWjBUMQswCQYD
VQQGEwJERTEPMA0GA1UECAwGSGVzc2VuMRQwEgYDVQQKDAtwcml2YWN5aWRlYTEe
MBwGA1UEAwwVcmVxdWVzdGVyLmxvY2FsZG9tYWluMIIBIjANBgkqhkiG9w0BAQEF
AAOCAQ8AMIIBCgKCAQEAzb4UT/rOAT9CIhsdnK/dktJ/22y3PjlDQ2sTA/EF9Ad0
vHZpKAuvGY7X/OPNxljyyn8IbVP8BwJEJMa0NEyMBP4zDkDiILoCc1r39U9jbszG
tt9UHTc5fVE2Jl+93D+oi2uirrad1iHn30G4eigqaEjKqC3t4elGXlpybbSEOIeR
/ZQRCyiExsIvKvsB+TZ6CXXRM4g8c0FbyL+UiXCh8MC5LlBTHrEXZGn0LYHgqQ0O
Mum6VYqF8RtvSXm0f4jDDT5UiJs9HziMBPPuamMr9cbbtIOqxHhBOn1L4cg+ccob
YVnqxsTKMl7J6b8SKebGw2P+oFXaevFgmE0m7fpwLQIDAQABo4IBDjCCAQowCwYD
VR0PBAQDAgWgMAkGA1UdEwQCMAAwEQYJYIZIAYb4QgEBBAQDAgZAMDMGCWCGSAGG
+EIBDQQmFiRPcGVuU1NMIEdlbmVyYXRlZCBTZXJ2ZXIgQ2VydGlmaWNhdGUwHQYD
VR0OBBYEFFM/7V0JB7Nle6tFySRbCXeACpbtMHQGA1UdIwRtMGuAFPSnwMyRRq9k
85HyJ/jIsm+KhzJzoUikRjBEMQswCQYDVQQGEwJERTEPMA0GA1UECAwGSGVzc2Vu
MRQwEgYDVQQKDAtwcml2YWN5aWRlYTEOMAwGA1UEAwwFQ0EwMDGCCQD7yOusg80S
BzATBgNVHSUEDDAKBggrBgEFBQcDATANBgkqhkiG9w0BAQUFAAOCAQEApUsg89op
J89zGPucSLTm+oNlcyapd1ENzfyUkONmrU7YM3MGi7sKIVGeoRJAvbDvWFXglSx6
KuWhGhadMXEpQJA5wXK8SeEu0ONg5H+Kbw7axEIqzojjgTJXOzTBIO5o/bEUutNq
mLVRuTTG5SGbKg5GfGsQENwXr+jHMu6fUV7MH5de0/mmCqDEJoIkNFXS3Ob7XCzh
fua9RD/adVTesw1lIcyO1B+D7gviYvEfz4XGYH+HoWynG0BlzvlZwGkN94P/vQ3q
sg4QHKlZ1FjghhKGVYTJPzmAm8MnXbjtbT5StOpRibAkKDf5eomN8xXDVxEv/yHG
s/vCb8eEtwztcQ==
-----END CERTIFICATE-----
