Certificate:
    Data:
        Version: 3 (0x2)
        Serial Number: 268435667 (0x100000d3)
    Signature Algorithm: sha1WithRSAEncryption
        Issuer: C=DE, ST=Hessen, O=privacyidea, CN=CA001
        Validity
            Not Before: Apr 11 09:00:57 2016 GMT
            Not After : Apr 11 09:00:57 2017 GMT
        Subject: C=DE, ST=Hessen, O=privacyidea, CN=requester.localdomain
        Subject Public Key Info:
            Public Key Algorithm: rsaEncryption
                Public-Key: (2048 bit)
                Modulus:
                    00:cd:be:14:4f:fa:ce:01:3f:42:22:1b:1d:9c:af:
                    dd:92:d2:7f:db:6c:b7:3e:39:43:43:6b:13:03:f1:
                    05:f4:07:74:bc:76:69:28:0b:af:19:8e:d7:fc:e3:
                    cd:c6:58:f2:ca:7f:08:6d:53:fc:07:02:44:24:c6:
                    b4:34:4c:8c:04:fe:33:0e:40:e2:20:ba:02:73:5a:
                    f7:f5:4f:63:6e:cc:c6:b6:df:54:1d:37:39:7d:51:
                    36:26:5f:bd:dc:3f:a8:8b:6b:a2:ae:b6:9d:d6:21:
                    e7:df:41:b8:7a:28:2a:68:48:ca:a8:2d:ed:e1:e9:
                    46:5e:5a:72:6d:b4:84:38:87:91:fd:94:11:0b:28:
                    84:c6:c2:2f:2a:fb:01:f9:36:7a:09:75:d1:33:88:
                    3c:73:41:5b:c8:bf:94:89:70:a1:f0:c0:b9:2e:50:
                    53:1e:b1:17:64:69:f4:2d:81:e0:a9:0d:0e:32:e9:
                    ba:55:8a:85:f1:1b:6f:49:79:b4:7f:88:c3:0d:3e:
                    54:88:9b:3d:1f:38:8c:04:f3:ee:6a:63:2b:f5:c6:
                    db:b4:83:aa:c4:78:41:3a:7d:4b:e1:c8:3e:71:ca:
                    1b:61:59:ea:c6:c4:ca:32:5e:c9:e9:bf:12:29:e6:
                    c6:c3:63:fe:a0:55:da:7a:f1:60:98:4d:26:ed:fa:
                    70:2d
                Exponent: 65537 (0x10001)
        X509v3 extensions:
            X509v3 Key Usage: 
                Digital Signature, Key Encipherment
            X509v3 Basic Constraints: 
                CA:FALSE
            Netscape Cert Type: 
                SSL Server
            Netscape Comment: 
                OpenSSL Generated Server Certificate
            X509v3 Subject Key Identifier: 
                53:3F:ED:5D:09:07:B3:65:7B:AB:45:C9:24:5B:09:77:80:0A:96:ED
            X509v3 Authority Key Identifier: 
                keyid:F4:A7:C0:CC:91:46:AF:64:F3:91:F2:27:F8:C8:B2:6F:8A:87:32:73
                DirName:/C=DE/ST=Hessen/O=privacyidea/CN=CA001
                serial:FB:C8:EB:AC:83:CD:12:07

            X509v3 Extended Key Usage: 
                TLS Web Server Authentication
    Signature Algorithm: sha1WithRSAEncryption
         77:33:78:44:ac:4c:16:9d:b1:e9:15:63:16:7a:c2:42:05:8c:
         21:91:ce:fd:c0:97:ba:87:df:2f:04:24:b7:3b:1c:21:c1:bf:
         c5:46:a3:a0:df:aa:04:ea:35:94:b4:9c:46:6f:4a:04:76:1b:
         ef:8c:a3:86:66:27:9c:bf:2f:17:64:5e:08:b9:8a:16:4e:2e:
         2e:74:3e:e1:a4:55:a9:ef:23:f2:5b:eb:30:45:f9:f3:b5:98:
         12:55:4f:4a:1d:0d:e2:49:46:e8:9e:f3:a3:0d:3a:f6:07:09:
         02:1f:17:e4:eb:ac:d8:c1:dd:d6:e3:06:33:4b:16:2f:b9:c2:
         d4:a4:40:6b:a4:2f:8c:bd:cd:dd:ee:d9:62:19:b3:72:47:3a:
         d8:d0:3d:22:85:ab:15:be:98:c4:52:3c:7e:79:9b:b2:99:b8:
         a3:11:24:c0:de:28:b1:36:c5:8f:9b:17:14:11:4c:5f:74:58:
         69:dd:a0:98:ed:f8:bc:7c:f4:ad:cd:12:5b:7f:71:99:0b:3b:
         3d:a6:d7:96:d4:a8:c0:e0:8d:ea:a7:10:5a:41:22:8a:03:b7:
         fa:f4:9e:6c:27:64:18:24:10:07:2b:ff:bd:2a:ae:80:fb:df:
         67:c8:81:e4:47:5e:e9:97:2d:b8:5e:26:14:68:e1:2f:d1:70:
         fd:bb:0f:4a
-----BEGIN CERTIFICATE-----
MIIEJjCCAw6gAwIBAgIEEAAA0zANBgkqhkiG9w0BAQUFADBEMQswCQYDVQQGEwJE
RTEPMA0GA1UECAwGSGVzc2VuMRQwEgYDVQQKDAtwcml2YWN5aWRlYTEOMAwGA1UE
AwwFQ0EwMDEwHhcNMTYwNDExMDkwMDU3WhcNMTcwNDExMDkwMDU3WjBUMQswCQYD
VQQGEwJERTEPMA0GA1UECAwGSGVzc2VuMRQwEgYDVQQKDAtwcml2YWN5aWRlYTEe
MBwGA1UEAwwVcmVxdWVzdGVyLmxvY2FsZG9tYWluMIIBIjANBgkqhkiG9w0BAQEF
AAOCAQ8AMIIBCgKCAQEAzb4UT/rOAT9CIhsdnK/dktJ/22y3PjlDQ2sTA/EF9Ad0
vHZpKAuvGY7X/OPNxljyyn8IbVP8BwJEJMa0NEyMBP4zDkDiILoCc1r39U9jbszG
tt9UHTc5fVE2Jl+93D+oi2uirrad1iHn30G4eigqaEjKqC3t4elGXlpybbSEOIeR
/ZQRCyiExsIvKvsB+TZ6CXXRM4g8c0FbyL+UiXCh8MC5LlBTHrEXZGn0LYHgqQ0O
Mum6VYqF8RtvSXm0f4jDDT5UiJs9HziMBPPuamMr9cbbtIOqxHhBOn1L4cg+ccob
YVnqxsTKMl7J6b8SKebGw2P+oFXaevFgmE0m7fpwLQIDAQABo4IBDjCCAQowCwYD
VR0PBAQDAgWgMAkGA1UdEwQCMAAwEQYJYIZIAYb4QgEBBAQDAgZAMDMGCWCGSAGG
+EIBDQQmFiRPcGVuU1NMIEdlbmVyYXRlZCBTZXJ2ZXIgQ2VydGlmaWNhdGUwHQYD
VR0OBBYEFFM/7V0JB7Nle6tFySRbCXeACpbtMHQGA1UdIwRtMGuAFPSnwMyRRq9k
85HyJ/jIsm+KhzJzoUikRjBEMQswCQYDVQQGEwJERTEPMA0GA1UECAwGSGVzc2Vu
MRQwEgYDVQQKDAtwcml2YWN5aWRlYTEOMAwGA1UEAwwFQ0EwMDGCCQD7yOusg80S
BzATBgNVHSUEDDAKBggrBgEFBQcDATANBgkqhkiG9w0BAQUFAAOCAQEAdzN4RKxM
Fp2x6RVjFnrCQgWMIZHO/cCXuoffLwQktzscIcG/xUajoN+qBOo1lLScRm9KBHYb
74yjhmYnnL8vF2ReCLmKFk4uLnQ+4aRVqe8j8lvrMEX587WYElVPSh0N4klG6J7z
ow069gcJAh8X5Ous2MHd1uMGM0sWL7nC1KRAa6QvjL3N3e7ZYhmzckc62NA9IoWr
Fb6YxFI8fnmbspm4oxEkwN4osTbFj5sXFBFMX3RYad2gmO34vHz0rc0SW39xmQs7
PabXltSowOCN6qcQWkEiigO3+vSebCdkGCQQByv/vSqugPvfZ8iB5Ede6ZctuF4m
FGjhL9Fw/bsPSg==
-----END CERTIFICATE-----
