Certificate:
    Data:
        Version: 3 (0x2)
        Serial Number: 268435652 (0x100000c4)
    Signature Algorithm: sha1WithRSAEncryption
        Issuer: C=DE, ST=Hessen, O=privacyidea, CN=CA001
        Validity
            Not Before: Apr 11 11:15:57 2016 GMT
            Not After : Apr 11 11:15:57 2017 GMT
        Subject: C=DE, ST=Hessen, O=privacyidea, CN=requester.localdomain
        Subject Public Key Info:
            Public Key Algorithm: rsaEncryption
                Public-Key: (2048 bit)
                Modulus:
                    00:cd:be:14:4f:fa:ce:01:3f:42:22:1b:1d:9c:af:
                    dd:92:d2:7f:db:6c:b7:3e:39:43:43:6b:13:03:f1:
                    05:f4:07:74:bc:76:69:28:0b:af:19:8e:d7:fc:e3:
                    cd:c6:58:f2:ca:7f:08:6d:53:fc:07:02:44:24:c6:
                    b4:34:4c:8c:04:fe:33:0e:40:e2:20:ba:02:73:5a:
                    f7:f5:4f:63:6e:cc:c6:b6:df:54:1d:37:39:7d:51:
                    36:26:5f:bd:dc:3f:a8:8b:6b:a2:ae:b6:9d:d6:21:
                    e7:df:41:b8:7a:28:2a:68:48:ca:a8:2d:ed:e1:e9:
                    46:5e:5a:72:6d:b4:84:38:87:91:fd:94:11:0b:28:
                    84:c6:c2:2f:2a:fb:01:f9:36:7a:09:75:d1:33:88:
                    3c:73:41:5b:c8:bf:94:89:70:a1:f0:c0:b9:2e:50:
                    53:1e:b1:17:64:69:f4:2d:81:e0:a9:0d:0e:32:e9:
                    ba:55:8a:85:f1:1b:6f:49:79:b4:7f:88:c3:0d:3e:
                    54:88:9b:3d:1f:38:8c:04:f3:ee:6a:63:2b:f5:c6:
                    db:b4:83:aa:c4:78:41:3a:7d:4b:e1:c8:3e:71:ca:
                    1b:61:59:ea:c6:c4:ca:32:5e:c9:e9:bf:12:29:e6:
                    c6:c3:63:fe:a0:55:da:7a:f1:60:98:4d:26:ed:fa:
                    70:2d
                Exponent: 65537 (0x10001)
        X509v3 extensions:
            X509v3 Key Usage: 
                Digital Signature, Key Encipherment
            X509v3 Basic Constraints: 
                CA:FALSE
            Netscape Cert Type: 
                SSL Server
            Netscape Comment: 
                OpenSSL Generated Server Certificate
            X509v3 Subject Key Identifier: 
                53:3F:ED:5D:09:07:B3:65:7B:AB:45:C9:24:5B:09:77:80:0A:96:ED
            X509v3 Authority Key Identifier: 
                keyid:F4:A7:C0:CC:91:46:AF:64:F3:91:F2:27:F8:C8:B2:6F:8A:87:32:73
                DirName:/C=DE/ST=Hessen/O=privacyidea/CN=CA001
                serial:FB:C8:EB:AC:83:CD:12:07

            X509v3 Extended Key Usage: 
                TLS Web Server Authentication
    Signature Algorithm: sha1WithRSAEncryption
         3d:aa:bc:4f:a9:d2:4d:a8:cc:ea:4b:13:4c:8d:d4:0b:6d:db:
         ee:fa:af:c5:86:a6:3f:fb:97:9b:7a:a7:ee:6e:bc:b7:d9:26:
         24:4a:d4:80:d7:8e:db:a0:9b:5c:8e:72:bd:ba:fb:83:46:11:
         9e:24:9f:d1:47:16:db:05:79:ed:18:db:b7:66:0d:96:d4:1b:
         84:3a:01:2c:34:41:a3:a3:c2:82:c4:d6:c3:d4:90:e5:2f:84:
         f2:89:f7:f9:22:c0:1f:48:1c:be:b5:ea:fd:fa:9c:7a:80:21:
         dc:bf:86:c5:a6:17:75:1d:86:4e:fd:31:04:a9:31:7e:75:98:
         f4:7a:16:4f:87:d3:0b:00:b6:f0:c4:7f:78:51:13:00:1e:90:
         27:97:bf:ab:5c:2c:fa:29:25:f7:72:34:ba:c7:4d:d0:17:9d:
         6f:ac:36:62:1f:2c:42:d0:8d:8e:7a:bc:81:f7:0b:63:ce:06:
         bb:85:e8:8a:aa:6d:0e:ef:35:31:0d:07:92:79:31:a3:c2:90:
         86:32:8f:98:ac:04:32:a3:f9:1b:dd:76:19:59:68:ad:cb:61:
         a1:61:93:48:ec:3b:27:56:66:77:07:1c:98:47:ca:20:d0:f3:
         e2:ba:f4:ea:31:ec:1f:26:9d:eb:5d:95:1b:48:25:7a:bd:5b:
         df:37:0d:20
-----BEGIN CERTIFICATE-----
MIIEJjCCAw6gAwIBAgIEEAAAxDANBgkqhkiG9w0BAQUFADBEMQswCQYDVQQGEwJE
RTEPMA0GA1UECAwGSGVzc2VuMRQwEgYDVQQKDAtwcml2YWN5aWRlYTEOMAwGA1UE
AwwFQ0EwMDEwHhcNMTYwNDExMTExNTU3WhcNMTcwNDExMTExNTU3WjBUMQswCQYD
VQQGEwJERTEPMA0GA1UECAwGSGVzc2VuMRQwEgYDVQQKDAtwcml2YWN5aWRlYTEe
MBwGA1UEAwwVcmVxdWVzdGVyLmxvY2FsZG9tYWluMIIBIjANBgkqhkiG9w0BAQEF
AAOCAQ8AMIIBCgKCAQEAzb4UT/rOAT9CIhsdnK/dktJ/22y3PjlDQ2sTA/EF9Ad0
vHZpKAuvGY7X/OPNxljyyn8IbVP8BwJEJMa0NEyMBP4zDkDiILoCc1r39U9jbszG
tt9UHTc5fVE2Jl+93D+oi2uirrad1iHn30G4eigqaEjKqC3t4elGXlpybbSEOIeR
/ZQRCyiExsIvKvsB+TZ6CXXRM4g8c0FbyL+UiXCh8MC5LlBTHrEXZGn0LYHgqQ0O
Mum6VYqF8RtvSXm0f4jDDT5UiJs9HziMBPPuamMr9cbbtIOqxHhBOn1L4cg+ccob
YVnqxsTKMl7J6b8SKebGw2P+oFXaevFgmE0m7fpwLQIDAQABo4IBDjCCAQowCwYD
VR0PBAQDAgWgMAkGA1UdEwQCMAAwEQYJYIZIAYb4QgEBBAQDAgZAMDMGCWCGSAGG
+EIBDQQmFiRPcGVuU1NMIEdlbmVyYXRlZCBTZXJ2ZXIgQ2VydGlmaWNhdGUwHQYD
VR0OBBYEFFM/7V0JB7Nle6tFySRbCXeACpbtMHQGA1UdIwRtMGuAFPSnwMyRRq9k
85HyJ/jIsm+KhzJzoUikRjBEMQswCQYDVQQGEwJERTEPMA0GA1UECAwGSGVzc2Vu
MRQwEgYDVQQKDAtwcml2YWN5aWRlYTEOMAwGA1UEAwwFQ0EwMDGCCQD7yOusg80S
BzATBgNVHSUEDDAKBggrBgEFBQcDATANBgkqhkiG9w0BAQUFAAOCAQEAPaq8T6nS
TajM6ksTTI3UC23b7vqvxYamP/uXm3qn7m68t9kmJErUgNeO26CbXI5yvbr7g0YR
niSf0UcW2wV57Rjbt2YNltQbhDoBLDRBo6PCgsTWw9SQ5S+E8on3+SLAH0gcvrXq
/fqceoAh3L+GxaYXdR2GTv0xBKkxfnWY9HoWT4fTCwC28MR/eFETAB6QJ5e/q1ws
+ikl93I0usdN0Bedb6w2Yh8sQtCNjnq8gfcLY84Gu4XoiqptDu81MQ0Hknkxo8KQ
hjKPmKwEMqP5G912GVlorcthoWGTSOw7J1ZmdwccmEfKINDz4rr06jHsHyad612V
G0gler1b3zcNIA==
-----END CERTIFICATE-----
