Certificate:
    Data:
        Version: 3 (0x2)
        Serial Number: 268435679 (0x100000df)
    Signature Algorithm: sha1WithRSAEncryption
        Issuer: C=DE, ST=Hessen, O=privacyidea, CN=CA001
        Validity
            Not Before: Sep 20 15:55:52 2015 GMT
            Not After : Sep 19 15:55:52 2016 GMT
        Subject: C=DE, ST=Hessen, O=privacyidea, CN=usercert
        Subject Public Key Info:
            Public Key Algorithm: rsaEncryption
                Public-Key: (2048 bit)
                Modulus:
                    00:dc:2f:d1:5f:29:97:d4:7c:c3:53:c8:30:bd:4b:
                    67:70:2c:24:6b:b8:5e:eb:21:7a:48:12:56:7c:81:
                    5c:48:75:b6:68:eb:f6:f2:98:4e:50:51:d1:7f:6c:
                    73:f3:0a:a7:ae:be:48:5e:e5:d6:e1:d9:2a:7c:32:
                    6e:4e:fd:08:f6:5a:54:49:23:73:c3:b9:07:18:d1:
                    ef:b3:ac:f8:8a:dc:94:96:a4:90:3a:8e:74:df:e6:
                    0d:37:1b:bd:5b:b7:25:1a:56:39:da:6f:91:aa:5e:
                    1c:74:f3:f9:7c:14:01:83:12:65:76:c7:bb:fe:36:
                    5b:95:e9:72:65:83:ed:3e:98:30:71:fa:87:dd:a3:
                    36:5a:30:03:2e:26:e0:61:d1:bf:02:3f:b6:06:1f:
                    4a:89:28:1c:5c:a2:ff:4e:be:94:e6:8c:e0:da:82:
                    f1:9d:29:32:48:30:73:b4:04:f6:42:1e:be:f7:e2:
                    32:32:27:3c:9d:89:2f:70:3e:85:9a:6f:5c:c5:09:
                    c0:8c:32:2f:72:22:c9:d2:95:1f:b6:ac:72:60:72:
                    b7:82:4d:6b:ce:5b:e3:00:d0:d2:2f:58:c6:e0:10:
                    e5:51:ca:4d:3b:2e:e6:7e:ab:84:d6:56:f1:93:35:
                    a0:93:64:26:81:75:2f:91:b5:16:06:38:0b:db:cc:
                    2d:07
                Exponent: 65537 (0x10001)
        X509v3 extensions:
            X509v3 Key Usage: 
                Digital Signature, Key Encipherment
            X509v3 Basic Constraints: 
                CA:FALSE
            Netscape Cert Type: 
                SSL Server
            Netscape Comment: 
                OpenSSL Generated Server Certificate
            X509v3 Subject Key Identifier: 
                FC:14:D1:F0:4B:8D:00:90:F2:F5:B8:71:9E:4E:97:C3:92:54:AD:0B
            X509v3 Authority Key Identifier: 
                keyid:F4:A7:C0:CC:91:46:AF:64:F3:91:F2:27:F8:C8:B2:6F:8A:87:32:73
                DirName:/C=DE/ST=Hessen/O=privacyidea/CN=CA001
                serial:FB:C8:EB:AC:83:CD:12:07

            X509v3 Extended Key Usage: 
                TLS Web Server Authentication
    Signature Algorithm: sha1WithRSAEncryption
         66:98:2e:a0:d4:f9:5d:04:3e:ff:b5:39:fb:8a:52:24:3a:7a:
         1d:68:1b:64:c6:cb:a6:f6:a4:1e:af:16:84:35:a2:64:bc:9c:
         1b:6a:6a:e6:40:19:e6:c9:f8:58:fb:7a:f9:6c:24:3f:4a:a0:
         a4:b7:59:21:16:69:83:57:d0:d0:58:83:84:d0:70:08:af:4e:
         bb:33:f7:71:88:8b:0c:64:6b:fc:11:ee:eb:67:87:44:a2:ef:
         9d:24:46:69:1c:f4:85:ad:8a:3a:b9:be:5c:f9:2e:52:32:4e:
         b4:f3:4c:07:f5:48:da:97:4e:3b:4d:62:a4:d1:fb:59:58:90:
         8d:08:ec:c9:d3:1c:02:ca:67:f3:e4:b7:be:b9:25:52:22:9b:
         84:e9:b0:16:14:f3:5c:d9:82:c4:0d:31:36:12:b5:2b:73:b7:
         f5:c8:07:e7:e3:51:65:36:67:b3:74:72:4d:6e:1c:a2:ba:21:
         05:0e:40:48:d1:24:ae:59:c7:c2:5c:b0:fb:21:a8:a5:09:60:
         a9:c5:52:10:36:a6:9e:88:d8:e6:dc:fa:d6:51:42:ab:8d:27:
         e7:a9:d7:22:a6:7d:cb:17:b2:53:e8:8a:b4:e0:70:20:ef:8e:
         8b:aa:b8:2b:0e:88:29:da:0f:18:1f:03:8d:67:f9:18:a9:a7:
         12:99:13:3f
-----BEGIN CERTIFICATE-----
MIIEGTCCAwGgAwIBAgIEEAAA3zANBgkqhkiG9w0BAQUFADBEMQswCQYDVQQGEwJE
RTEPMA0GA1UECAwGSGVzc2VuMRQwEgYDVQQKDAtwcml2YWN5aWRlYTEOMAwGA1UE
AwwFQ0EwMDEwHhcNMTUwOTIwMTU1NTUyWhcNMTYwOTE5MTU1NTUyWjBHMQswCQYD
VQQGEwJERTEPMA0GA1UECAwGSGVzc2VuMRQwEgYDVQQKDAtwcml2YWN5aWRlYTER
MA8GA1UEAwwIdXNlcmNlcnQwggEiMA0GCSqGSIb3DQEBAQUAA4IBDwAwggEKAoIB
AQDcL9FfKZfUfMNTyDC9S2dwLCRruF7rIXpIElZ8gVxIdbZo6/bymE5QUdF/bHPz
Cqeuvkhe5dbh2Sp8Mm5O/Qj2WlRJI3PDuQcY0e+zrPiK3JSWpJA6jnTf5g03G71b
tyUaVjnab5GqXhx08/l8FAGDEmV2x7v+NluV6XJlg+0+mDBx+ofdozZaMAMuJuBh
0b8CP7YGH0qJKBxcov9OvpTmjODagvGdKTJIMHO0BPZCHr734jIyJzydiS9wPoWa
b1zFCcCMMi9yIsnSlR+2rHJgcreCTWvOW+MA0NIvWMbgEOVRyk07LuZ+q4TWVvGT
NaCTZCaBdS+RtRYGOAvbzC0HAgMBAAGjggEOMIIBCjALBgNVHQ8EBAMCBaAwCQYD
VR0TBAIwADARBglghkgBhvhCAQEEBAMCBkAwMwYJYIZIAYb4QgENBCYWJE9wZW5T
U0wgR2VuZXJhdGVkIFNlcnZlciBDZXJ0aWZpY2F0ZTAdBgNVHQ4EFgQU/BTR8EuN
AJDy9bhxnk6Xw5JUrQswdAYDVR0jBG0wa4AU9KfAzJFGr2TzkfIn+Miyb4qHMnOh
SKRGMEQxCzAJBgNVBAYTAkRFMQ8wDQYDVQQIDAZIZXNzZW4xFDASBgNVBAoMC3By
aXZhY3lpZGVhMQ4wDAYDVQQDDAVDQTAwMYIJAPvI66yDzRIHMBMGA1UdJQQMMAoG
CCsGAQUFBwMBMA0GCSqGSIb3DQEBBQUAA4IBAQBmmC6g1PldBD7/tTn7ilIkOnod
aBtkxsum9qQerxaENaJkvJwbamrmQBnmyfhY+3r5bCQ/SqCkt1khFmmDV9DQWIOE
0HAIr067M/dxiIsMZGv8Ee7rZ4dEou+dJEZpHPSFrYo6ub5c+S5SMk6080wH9Uja
l047TWKk0ftZWJCNCOzJ0xwCymfz5Le+uSVSIpuE6bAWFPNc2YLEDTE2ErUrc7f1
yAfn41FlNmezdHJNbhyiuiEFDkBI0SSuWcfCXLD7IailCWCpxVIQNqaeiNjm3PrW
UUKrjSfnqdcipn3LF7JT6Iq04HAg746LqrgrDogp2g8YHwONZ/kYqacSmRM/
-----END CERTIFICATE-----
