Certificate:
    Data:
        Version: 3 (0x2)
        Serial Number: 268435688 (0x100000e8)
    Signature Algorithm: sha1WithRSAEncryption
        Issuer: C=DE, ST=Hessen, O=privacyidea, CN=CA001
        Validity
            Not Before: Sep 20 16:46:33 2015 GMT
            Not After : Sep 19 16:46:33 2016 GMT
        Subject: CN=selfservice,CN=user,O=realm1/emailAddress=meine
        Subject Public Key Info:
            Public Key Algorithm: rsaEncryption
                Public-Key: (2048 bit)
                Modulus:
                    00:cf:3c:d4:33:0e:12:c4:e6:da:cd:b6:56:a1:1c:
                    26:bb:26:1c:8a:4a:73:a8:58:8a:b6:1e:b3:8b:99:
                    d2:1d:07:c2:92:89:79:c0:69:d8:c8:df:28:61:98:
                    1e:b3:fe:ae:2b:bd:78:a9:f7:6e:47:dc:a3:a0:16:
                    8c:85:02:c1:4e:92:fd:72:6e:f0:c8:03:29:9b:b8:
                    00:6e:c0:83:95:c8:34:20:36:9c:b3:e5:e4:e6:76:
                    73:a3:1a:ad:40:96:e0:53:54:00:ec:76:79:9a:c6:
                    0d:7e:b6:bd:29:ec:83:f3:cb:89:a4:cb:6c:00:ba:
                    0c:c5:78:0f:ff:69:b8:94:f4:04:70:43:3f:d8:9e:
                    d7:a7:fb:5d:ce:75:8e:da:e7:c4:07:b1:9d:de:6f:
                    88:4b:b6:4d:9a:cf:f9:bc:fa:9f:cd:32:6d:f6:3a:
                    0b:0d:23:42:78:ec:97:42:bf:0e:4d:60:56:e1:d3:
                    02:f2:19:cb:84:57:90:e5:70:a1:a2:83:35:86:e2:
                    da:86:9f:f9:8a:c4:79:b3:52:28:da:cb:bb:34:ca:
                    d3:da:91:4a:cf:8d:76:a2:b2:6b:9b:f9:96:fd:09:
                    2a:da:11:23:4d:f0:cb:d6:b2:b1:0e:12:6c:9a:19:
                    65:98:87:ca:e4:ee:24:ce:44:ac:90:8f:9d:1b:c5:
                    2a:9d
                Exponent: 65537 (0x10001)
        X509v3 extensions:
            X509v3 Key Usage: 
                Digital Signature, Key Encipherment
            X509v3 Basic Constraints: 
                CA:FALSE
            Netscape Cert Type: 
                SSL Server
            Netscape Comment: 
                OpenSSL Generated Server Certificate
            X509v3 Subject Key Identifier: 
                4D:07:90:AD:FF:1D:0D:E7:1A:DD:D6:2E:FA:BA:34:CB:AA:1F:24:C6
            X509v3 Authority Key Identifier: 
                keyid:F4:A7:C0:CC:91:46:AF:64:F3:91:F2:27:F8:C8:B2:6F:8A:87:32:73
                DirName:/C=DE/ST=Hessen/O=privacyidea/CN=CA001
                serial:FB:C8:EB:AC:83:CD:12:07

            X509v3 Extended Key Usage: 
                TLS Web Server Authentication
    Signature Algorithm: sha1WithRSAEncryption
         2b:a2:b5:ab:a8:ac:ad:7b:9e:b3:2f:8f:c1:7e:25:77:a8:fd:
         58:57:31:e4:a0:01:6f:db:e9:92:f0:fa:af:c7:9c:83:21:be:
         36:c6:ad:0c:23:a7:82:e2:6f:a9:04:3a:b0:0b:79:82:54:a8:
         de:f9:0a:98:69:82:ec:66:05:85:83:7f:3c:1b:ca:72:8d:89:
         00:a1:6f:6c:34:f2:4e:6d:1e:55:a8:4e:ef:5d:3a:31:44:92:
         8b:61:a9:bb:00:dd:be:ce:3f:37:1a:40:c0:7e:9f:dc:5c:ea:
         2d:2e:f9:c5:d7:e0:f6:fe:aa:41:84:c0:55:dd:e9:a6:df:18:
         b2:81:ad:89:dc:ed:69:37:cb:5d:40:7e:1f:0f:f5:5e:71:c8:
         31:96:36:be:01:3c:fb:7e:3c:a1:86:9d:76:8e:8a:f9:a3:d4:
         98:bd:5f:59:d7:2a:30:8a:42:79:80:0e:b6:19:d5:7f:53:a2:
         16:50:db:c8:6b:b5:ed:f9:01:70:f2:ca:82:c0:be:03:70:2a:
         4c:56:14:45:26:62:82:0f:72:90:c1:55:32:d5:16:e5:73:0b:
         e8:05:f1:cf:b0:5d:eb:3f:37:66:9b:81:6b:81:f0:15:3a:37:
         0c:12:66:75:1a:83:5d:bb:21:dc:54:c5:d9:13:f1:92:1e:f1:
         fe:50:02:b0
-----BEGIN CERTIFICATE-----
MIIEDzCCAvegAwIBAgIEEAAA6DANBgkqhkiG9w0BAQUFADBEMQswCQYDVQQGEwJE
RTEPMA0GA1UECAwGSGVzc2VuMRQwEgYDVQQKDAtwcml2YWN5aWRlYTEOMAwGA1UE
AwwFQ0EwMDEwHhcNMTUwOTIwMTY0NjMzWhcNMTYwOTE5MTY0NjMzWjA9MSUwIwYD
VQQDExxzZWxmc2VydmljZSxDTj11c2VyLE89cmVhbG0xMRQwEgYJKoZIhvcNAQkB
FgVtZWluZTCCASIwDQYJKoZIhvcNAQEBBQADggEPADCCAQoCggEBAM881DMOEsTm
2s22VqEcJrsmHIpKc6hYirYes4uZ0h0HwpKJecBp2MjfKGGYHrP+riu9eKn3bkfc
o6AWjIUCwU6S/XJu8MgDKZu4AG7Ag5XINCA2nLPl5OZ2c6MarUCW4FNUAOx2eZrG
DX62vSnsg/PLiaTLbAC6DMV4D/9puJT0BHBDP9ie16f7Xc51jtrnxAexnd5viEu2
TZrP+bz6n80ybfY6Cw0jQnjsl0K/Dk1gVuHTAvIZy4RXkOVwoaKDNYbi2oaf+YrE
ebNSKNrLuzTK09qRSs+NdqKya5v5lv0JKtoRI03wy9aysQ4SbJoZZZiHyuTuJM5E
rJCPnRvFKp0CAwEAAaOCAQ4wggEKMAsGA1UdDwQEAwIFoDAJBgNVHRMEAjAAMBEG
CWCGSAGG+EIBAQQEAwIGQDAzBglghkgBhvhCAQ0EJhYkT3BlblNTTCBHZW5lcmF0
ZWQgU2VydmVyIENlcnRpZmljYXRlMB0GA1UdDgQWBBRNB5Ct/x0N5xrd1i76ujTL
qh8kxjB0BgNVHSMEbTBrgBT0p8DMkUavZPOR8if4yLJviocyc6FIpEYwRDELMAkG
A1UEBhMCREUxDzANBgNVBAgMBkhlc3NlbjEUMBIGA1UECgwLcHJpdmFjeWlkZWEx
DjAMBgNVBAMMBUNBMDAxggkA+8jrrIPNEgcwEwYDVR0lBAwwCgYIKwYBBQUHAwEw
DQYJKoZIhvcNAQEFBQADggEBACuitauorK17nrMvj8F+JXeo/VhXMeSgAW/b6ZLw
+q/HnIMhvjbGrQwjp4Lib6kEOrALeYJUqN75CphpguxmBYWDfzwbynKNiQChb2w0
8k5tHlWoTu9dOjFEkothqbsA3b7OPzcaQMB+n9xc6i0u+cXX4Pb+qkGEwFXd6abf
GLKBrYnc7Wk3y11Afh8P9V5xyDGWNr4BPPt+PKGGnXaOivmj1Ji9X1nXKjCKQnmA
DrYZ1X9TohZQ28hrte35AXDyyoLAvgNwKkxWFEUmYoIPcpDBVTLVFuVzC+gF8c+w
Xes/N2abgWuB8BU6NwwSZnUag127IdxUxdkT8ZIe8f5QArA=
-----END CERTIFICATE-----
