Certificate:
    Data:
        Version: 3 (0x2)
        Serial Number: 268435693 (0x100000ed)
    Signature Algorithm: sha1WithRSAEncryption
        Issuer: C=DE, ST=Hessen, O=privacyidea, CN=CA001
        Validity
            Not Before: Sep 20 16:59:01 2015 GMT
            Not After : Sep 19 16:59:01 2016 GMT
        Subject: C=DE, ST=Hessen, O=privacyidea, CN=requester.localdomain
        Subject Public Key Info:
            Public Key Algorithm: rsaEncryption
                Public-Key: (2048 bit)
                Modulus:
                    00:cd:be:14:4f:fa:ce:01:3f:42:22:1b:1d:9c:af:
                    dd:92:d2:7f:db:6c:b7:3e:39:43:43:6b:13:03:f1:
                    05:f4:07:74:bc:76:69:28:0b:af:19:8e:d7:fc:e3:
                    cd:c6:58:f2:ca:7f:08:6d:53:fc:07:02:44:24:c6:
                    b4:34:4c:8c:04:fe:33:0e:40:e2:20:ba:02:73:5a:
                    f7:f5:4f:63:6e:cc:c6:b6:df:54:1d:37:39:7d:51:
                    36:26:5f:bd:dc:3f:a8:8b:6b:a2:ae:b6:9d:d6:21:
                    e7:df:41:b8:7a:28:2a:68:48:ca:a8:2d:ed:e1:e9:
                    46:5e:5a:72:6d:b4:84:38:87:91:fd:94:11:0b:28:
                    84:c6:c2:2f:2a:fb:01:f9:36:7a:09:75:d1:33:88:
                    3c:73:41:5b:c8:bf:94:89:70:a1:f0:c0:b9:2e:50:
                    53:1e:b1:17:64:69:f4:2d:81:e0:a9:0d:0e:32:e9:
                    ba:55:8a:85:f1:1b:6f:49:79:b4:7f:88:c3:0d:3e:
                    54:88:9b:3d:1f:38:8c:04:f3:ee:6a:63:2b:f5:c6:
                    db:b4:83:aa:c4:78:41:3a:7d:4b:e1:c8:3e:71:ca:
                    1b:61:59:ea:c6:c4:ca:32:5e:c9:e9:bf:12:29:e6:
                    c6:c3:63:fe:a0:55:da:7a:f1:60:98:4d:26:ed:fa:
                    70:2d
                Exponent: 65537 (0x10001)
        X509v3 extensions:
            X509v3 Key Usage: 
                Digital Signature, Key Encipherment
            X509v3 Basic Constraints: 
                CA:FALSE
            Netscape Cert Type: 
                SSL Server
            Netscape Comment: 
                OpenSSL Generated Server Certificate
            X509v3 Subject Key Identifier: 
                53:3F:ED:5D:09:07:B3:65:7B:AB:45:C9:24:5B:09:77:80:0A:96:ED
            X509v3 Authority Key Identifier: 
                keyid:F4:A7:C0:CC:91:46:AF:64:F3:91:F2:27:F8:C8:B2:6F:8A:87:32:73
                DirName:/C=DE/ST=Hessen/O=privacyidea/CN=CA001
                serial:FB:C8:EB:AC:83:CD:12:07

            X509v3 Extended Key Usage: 
                TLS Web Server Authentication
    Signature Algorithm: sha1WithRSAEncryption
         22:f8:88:61:bd:3c:f7:92:a1:25:e0:93:f2:fe:ca:b6:73:60:
         48:a2:b0:30:eb:2c:c3:b0:d4:84:b0:f6:a9:de:ec:e3:30:bc:
         3b:1f:3f:fd:6d:f6:b9:b3:8c:d0:7d:98:54:b7:ed:32:ea:53:
         54:88:0d:45:6f:fc:59:ba:c5:e3:0e:74:8e:45:70:23:c1:fa:
         d1:03:a0:7c:b3:3f:cc:3e:7f:fe:70:1a:1a:4e:bd:b8:51:52:
         97:4d:67:9e:01:5c:d4:3e:d5:d9:7b:35:0b:91:80:bf:7b:52:
         f9:9a:dc:30:ad:db:ce:f5:d0:b0:54:a6:cb:d1:3f:bf:46:5b:
         ee:4e:88:2f:20:18:e4:13:05:17:54:03:4f:e1:24:6a:c4:af:
         57:e4:42:bb:91:1d:0a:b3:08:5e:8f:c4:91:84:87:53:ce:8a:
         72:62:5b:2c:7c:4b:5b:06:2f:b0:88:ca:57:14:19:b4:42:e8:
         b9:47:c4:5e:a5:be:d9:25:c2:45:68:3a:b9:fd:f0:38:0d:fc:
         a5:81:5d:45:a3:93:2f:f0:42:5d:6f:65:7b:63:25:32:3f:d0:
         14:9e:63:71:c7:27:6d:50:2c:5c:df:1a:cf:59:bc:0d:82:a3:
         f1:0d:a6:ef:95:76:ae:b2:53:e5:ca:6a:08:6e:bc:df:e4:f8:
         ad:5e:ef:53
-----BEGIN CERTIFICATE-----
MIIEJjCCAw6gAwIBAgIEEAAA7TANBgkqhkiG9w0BAQUFADBEMQswCQYDVQQGEwJE
RTEPMA0GA1UECAwGSGVzc2VuMRQwEgYDVQQKDAtwcml2YWN5aWRlYTEOMAwGA1UE
AwwFQ0EwMDEwHhcNMTUwOTIwMTY1OTAxWhcNMTYwOTE5MTY1OTAxWjBUMQswCQYD
VQQGEwJERTEPMA0GA1UECAwGSGVzc2VuMRQwEgYDVQQKDAtwcml2YWN5aWRlYTEe
MBwGA1UEAwwVcmVxdWVzdGVyLmxvY2FsZG9tYWluMIIBIjANBgkqhkiG9w0BAQEF
AAOCAQ8AMIIBCgKCAQEAzb4UT/rOAT9CIhsdnK/dktJ/22y3PjlDQ2sTA/EF9Ad0
vHZpKAuvGY7X/OPNxljyyn8IbVP8BwJEJMa0NEyMBP4zDkDiILoCc1r39U9jbszG
tt9UHTc5fVE2Jl+93D+oi2uirrad1iHn30G4eigqaEjKqC3t4elGXlpybbSEOIeR
/ZQRCyiExsIvKvsB+TZ6CXXRM4g8c0FbyL+UiXCh8MC5LlBTHrEXZGn0LYHgqQ0O
Mum6VYqF8RtvSXm0f4jDDT5UiJs9HziMBPPuamMr9cbbtIOqxHhBOn1L4cg+ccob
YVnqxsTKMl7J6b8SKebGw2P+oFXaevFgmE0m7fpwLQIDAQABo4IBDjCCAQowCwYD
VR0PBAQDAgWgMAkGA1UdEwQCMAAwEQYJYIZIAYb4QgEBBAQDAgZAMDMGCWCGSAGG
+EIBDQQmFiRPcGVuU1NMIEdlbmVyYXRlZCBTZXJ2ZXIgQ2VydGlmaWNhdGUwHQYD
VR0OBBYEFFM/7V0JB7Nle6tFySRbCXeACpbtMHQGA1UdIwRtMGuAFPSnwMyRRq9k
85HyJ/jIsm+KhzJzoUikRjBEMQswCQYDVQQGEwJERTEPMA0GA1UECAwGSGVzc2Vu
MRQwEgYDVQQKDAtwcml2YWN5aWRlYTEOMAwGA1UEAwwFQ0EwMDGCCQD7yOusg80S
BzATBgNVHSUEDDAKBggrBgEFBQcDATANBgkqhkiG9w0BAQUFAAOCAQEAIviIYb08
95KhJeCT8v7KtnNgSKKwMOssw7DUhLD2qd7s4zC8Ox8//W32ubOM0H2YVLftMupT
VIgNRW/8WbrF4w50jkVwI8H60QOgfLM/zD5//nAaGk69uFFSl01nngFc1D7V2Xs1
C5GAv3tS+ZrcMK3bzvXQsFSmy9E/v0Zb7k6ILyAY5BMFF1QDT+EkasSvV+RCu5Ed
CrMIXo/EkYSHU86KcmJbLHxLWwYvsIjKVxQZtELouUfEXqW+2SXCRWg6uf3wOA38
pYFdRaOTL/BCXW9le2MlMj/QFJ5jcccnbVAsXN8az1m8DYKj8Q2m75V2rrJT5cpq
CG683+T4rV7vUw==
-----END CERTIFICATE-----
