(dp0
S'totalTime'
p1
F1455931290.901568
sS'setrecordTime'
p2
F0.06421589851379395
sS'saveTime'
p3
F0.0001850128173828125
sS'connectTime'
p4
F0.0029108524322509766
sS'gatherTime'
p5
F0.5393519401550293
sS'runTime'
p6
F4.699663877487183
sS'initialTime'
p7
F6.008148193359375e-05
sS'createTime'
p8
F0.021102190017700195
s.