(ios
_Environ
p0
(dp1
S'data'
p2
(dp3
S'SSH_ASKPASS'
p4
S'/usr/libexec/openssh/gnome-ssh-askpass'
p5
sS'BLAS'
p6
S'/gcdata/gcproj/Luca/leo/programs/BLAS/libfblas.a'
p7
sS'HAYSTACK_DEPENDENCIES_PATH'
p8
S'/gcdata/gcproj/Luca/leo/HAYSTACK_DEPENDENCIES/'
p9
sS'LESSOPEN'
p10
S'|/usr/bin/lesspipe.sh %s'
p11
sS'SSH_CLIENT'
p12
S'172.24.194.149 55139 22'
p13
sS'SELINUX_USE_CURRENT_RANGE'
p14
S''
p15
sS'LOGNAME'
p16
S'lpinello'
p17
sS'USER'
p18
S'lpinello'
p19
sS'QTDIR'
p20
S'/usr/lib64/qt-3.3'
p21
sS'ATLAS'
p22
g15
sS'PATH'
p23
S'/gcdata/gcproj/Luca/leo/HAYSTACK_DEPENDENCIES/bin:/gcdata/gcproj/Luca/leo/bin/:/gcdata/gcproj/Luca/leo/bin:/gcdata/gcproj/Luca/leo/programs/jre1.8.0_60/bin:/gcdata/gcproj/Luca/HAYSTACK_LEO/bin:/usr/local/bin:/homecluster/lpinello/home/programs/meme/bin:/homecluster/lpinello/home/programs/weblogo/:/usr/lib64/qt-3.3/bin:/usr/local/bin:/bin:/usr/bin:/usr/local/sbin:/usr/sbin:/sbin:/opt/dell/srvadmin/bin:/gcdata/gcproj/Luca/leo/programs/homer/bin'
p24
sS'RDBASE'
p25
S'/gcdata/gcproj/Luca/leo/RDKit/'
p26
sS'LD_LIBRARY_PATH'
p27
S'/gcdata/gcproj/Luca/leo/lib:/gcdata/gcproj/Luca/leo/programs/R-3.0.3/lib:/linuxsoft/gcc481/lib64:/linuxsoft/gcc481/lib:/gcdata/gcproj/Luca/leo/RDKit/lib/::/usr/local/lib:/opt/rocks/lib:/usr/lib64/'
p28
sS'LANG'
p29
S'en_US.UTF-8'
p30
sS'QTLIB'
p31
S'/usr/lib64/qt-3.3/lib'
p32
sS'TERM'
p33
S'vt100'
p34
sS'SHELL'
p35
S'/bin/bash'
p36
sS'QTINC'
p37
S'/usr/lib64/qt-3.3/include'
p38
sS'G_BROKEN_FILENAMES'
p39
S'1'
p40
sS'HISTSIZE'
p41
S'1000'
p42
sS'BOWTIE2_INDEXES'
p43
S'/cluster7/lpinello/Genomes/hg19/'
p44
sS'HOME'
p45
S'/brcahomes/lpinello'
p46
sS'BOWTIE_INDEXES'
p47
S'/cluster7/lpinello/bowtie_indexes'
p48
sS'PYTHONPATH'
p49
S'/gcdata/gcproj/Luca/leo/lib/python2.7/site-packages:/gcdata/gcproj/Luca/leo/RDKit/'
p50
sS'SHLVL'
p51
g40
sS'SELINUX_ROLE_REQUESTED'
p52
g15
sS'HAYSTACK_DEPENDENCIES_FOLDER'
p53
g9
sS'_'
p54
S'/gcdata/gcproj/Luca/leo/bin/python'
p55
sS'SSH_CONNECTION'
p56
S'172.24.194.149 55139 172.24.216.10 22'
p57
sS'DISPLAY'
p58
S'localhost:19.0'
p59
sS'SSH_TTY'
p60
S'/dev/pts/64'
p61
sS'OLDPWD'
p62
S'/gcdata/gcproj/Luca/HAYSTACK'
p63
sS'HOSTNAME'
p64
S'leo'
p65
sS'GIT_SSL_NO_VERIFY'
p66
S'true'
p67
sS'SELINUX_LEVEL_REQUESTED'
p68
g15
sS'HISTCONTROL'
p69
S'ignoredups'
p70
sS'LAPACK'
p71
S'/gcdata/gcproj/Luca/leo/programs/lapack-3.5.0/liblapack.a'
p72
sS'PWD'
p73
S'/gcdata/gcproj/Luca/HAYSTACK/Haystack'
p74
sS'CVS_RSH'
p75
S'ssh'
p76
sS'MAIL'
p77
S'/var/spool/mail/lpinello'
p78
sS'LS_COLORS'
p79
S'rs=0:di=01;34:ln=01;36:mh=00:pi=40;33:so=01;35:do=01;35:bd=40;33;01:cd=40;33;01:or=40;31;01:mi=01;05;37;41:su=37;41:sg=30;43:ca=30;41:tw=30;42:ow=34;42:st=37;44:ex=01;32:*.tar=01;31:*.tgz=01;31:*.arj=01;31:*.taz=01;31:*.lzh=01;31:*.lzma=01;31:*.tlz=01;31:*.txz=01;31:*.zip=01;31:*.z=01;31:*.Z=01;31:*.dz=01;31:*.gz=01;31:*.lz=01;31:*.xz=01;31:*.bz2=01;31:*.tbz=01;31:*.tbz2=01;31:*.bz=01;31:*.tz=01;31:*.deb=01;31:*.rpm=01;31:*.jar=01;31:*.rar=01;31:*.ace=01;31:*.zoo=01;31:*.cpio=01;31:*.7z=01;31:*.rz=01;31:*.jpg=01;35:*.jpeg=01;35:*.gif=01;35:*.bmp=01;35:*.pbm=01;35:*.pgm=01;35:*.ppm=01;35:*.tga=01;35:*.xbm=01;35:*.xpm=01;35:*.tif=01;35:*.tiff=01;35:*.png=01;35:*.svg=01;35:*.svgz=01;35:*.mng=01;35:*.pcx=01;35:*.mov=01;35:*.mpg=01;35:*.mpeg=01;35:*.m2v=01;35:*.mkv=01;35:*.ogm=01;35:*.mp4=01;35:*.m4v=01;35:*.mp4v=01;35:*.vob=01;35:*.qt=01;35:*.nuv=01;35:*.wmv=01;35:*.asf=01;35:*.rm=01;35:*.rmvb=01;35:*.flc=01;35:*.avi=01;35:*.fli=01;35:*.flv=01;35:*.gl=01;35:*.dl=01;35:*.xcf=01;35:*.xwd=01;35:*.yuv=01;35:*.cgm=01;35:*.emf=01;35:*.axv=01;35:*.anx=01;35:*.ogv=01;35:*.ogx=01;35:*.aac=01;36:*.au=01;36:*.flac=01;36:*.mid=01;36:*.midi=01;36:*.mka=01;36:*.mp3=01;36:*.mpc=01;36:*.ogg=01;36:*.ra=01;36:*.wav=01;36:*.axa=01;36:*.oga=01;36:*.spx=01;36:*.xspf=01;36:'
p80
ssb.