Certificate:
    Data:
        Version: 3 (0x2)
        Serial Number: 268435666 (0x100000d2)
    Signature Algorithm: sha1WithRSAEncryption
        Issuer: C=DE, ST=Hessen, O=privacyidea, CN=CA001
        Validity
            Not Before: Feb 22 15:41:55 2016 GMT
            Not After : Feb 21 15:41:55 2017 GMT
        Subject: CN=selfservice,CN=user,O=realm1/emailAddress=meine
        Subject Public Key Info:
            Public Key Algorithm: rsaEncryption
                Public-Key: (2048 bit)
                Modulus:
                    00:cf:3c:d4:33:0e:12:c4:e6:da:cd:b6:56:a1:1c:
                    26:bb:26:1c:8a:4a:73:a8:58:8a:b6:1e:b3:8b:99:
                    d2:1d:07:c2:92:89:79:c0:69:d8:c8:df:28:61:98:
                    1e:b3:fe:ae:2b:bd:78:a9:f7:6e:47:dc:a3:a0:16:
                    8c:85:02:c1:4e:92:fd:72:6e:f0:c8:03:29:9b:b8:
                    00:6e:c0:83:95:c8:34:20:36:9c:b3:e5:e4:e6:76:
                    73:a3:1a:ad:40:96:e0:53:54:00:ec:76:79:9a:c6:
                    0d:7e:b6:bd:29:ec:83:f3:cb:89:a4:cb:6c:00:ba:
                    0c:c5:78:0f:ff:69:b8:94:f4:04:70:43:3f:d8:9e:
                    d7:a7:fb:5d:ce:75:8e:da:e7:c4:07:b1:9d:de:6f:
                    88:4b:b6:4d:9a:cf:f9:bc:fa:9f:cd:32:6d:f6:3a:
                    0b:0d:23:42:78:ec:97:42:bf:0e:4d:60:56:e1:d3:
                    02:f2:19:cb:84:57:90:e5:70:a1:a2:83:35:86:e2:
                    da:86:9f:f9:8a:c4:79:b3:52:28:da:cb:bb:34:ca:
                    d3:da:91:4a:cf:8d:76:a2:b2:6b:9b:f9:96:fd:09:
                    2a:da:11:23:4d:f0:cb:d6:b2:b1:0e:12:6c:9a:19:
                    65:98:87:ca:e4:ee:24:ce:44:ac:90:8f:9d:1b:c5:
                    2a:9d
                Exponent: 65537 (0x10001)
        X509v3 extensions:
            X509v3 Key Usage: 
                Digital Signature, Key Encipherment
            X509v3 Basic Constraints: 
                CA:FALSE
            Netscape Cert Type: 
                SSL Server
            Netscape Comment: 
                OpenSSL Generated Server Certificate
            X509v3 Subject Key Identifier: 
                4D:07:90:AD:FF:1D:0D:E7:1A:DD:D6:2E:FA:BA:34:CB:AA:1F:24:C6
            X509v3 Authority Key Identifier: 
                keyid:F4:A7:C0:CC:91:46:AF:64:F3:91:F2:27:F8:C8:B2:6F:8A:87:32:73
                DirName:/C=DE/ST=Hessen/O=privacyidea/CN=CA001
                serial:FB:C8:EB:AC:83:CD:12:07

            X509v3 Extended Key Usage: 
                TLS Web Server Authentication
    Signature Algorithm: sha1WithRSAEncryption
         7c:c6:5d:7e:c5:a6:2a:5a:c2:51:7d:76:57:8b:de:76:30:e5:
         eb:f5:90:b2:4b:03:f7:1d:45:e8:16:38:fa:c2:a6:42:a7:74:
         da:1c:d3:fe:9a:40:85:d6:fa:9b:b2:70:cb:14:16:ae:b3:6a:
         29:ce:cf:11:2c:f9:de:bc:6e:cf:13:e8:c3:a6:e9:cc:bc:e4:
         a0:c7:37:d7:89:3c:d8:ef:dc:5e:f0:78:0f:30:2b:4e:e1:53:
         16:e4:13:97:2f:03:97:60:b0:a7:bf:25:d1:7f:27:d2:53:be:
         96:66:c5:e8:c8:dd:cc:82:2c:8b:ff:16:72:40:c8:a6:8d:69:
         3c:6b:44:0f:0d:fc:6d:36:98:43:68:89:ca:5c:2c:4a:f5:22:
         18:cc:cd:ed:50:d7:62:9d:b5:60:75:00:fb:ce:9b:28:34:21:
         bf:e1:6e:54:d6:9a:2a:ac:e5:d3:53:83:87:b7:6e:65:e7:de:
         04:e6:d7:f0:fc:03:de:e1:08:52:25:0d:9c:c6:7f:cb:c1:53:
         49:f6:7b:a0:8f:74:52:d9:a0:d0:ed:9c:ef:5c:cc:9e:de:cc:
         d7:cd:93:8c:cf:f9:8e:bd:a6:9a:04:b6:d7:ab:73:0d:ef:7d:
         19:50:74:fa:3e:9e:09:ef:3b:86:d4:8a:f7:b2:66:b9:ab:71:
         8e:ff:1d:48
-----BEGIN CERTIFICATE-----
MIIEDzCCAvegAwIBAgIEEAAA0jANBgkqhkiG9w0BAQUFADBEMQswCQYDVQQGEwJE
RTEPMA0GA1UECAwGSGVzc2VuMRQwEgYDVQQKDAtwcml2YWN5aWRlYTEOMAwGA1UE
AwwFQ0EwMDEwHhcNMTYwMjIyMTU0MTU1WhcNMTcwMjIxMTU0MTU1WjA9MSUwIwYD
VQQDExxzZWxmc2VydmljZSxDTj11c2VyLE89cmVhbG0xMRQwEgYJKoZIhvcNAQkB
FgVtZWluZTCCASIwDQYJKoZIhvcNAQEBBQADggEPADCCAQoCggEBAM881DMOEsTm
2s22VqEcJrsmHIpKc6hYirYes4uZ0h0HwpKJecBp2MjfKGGYHrP+riu9eKn3bkfc
o6AWjIUCwU6S/XJu8MgDKZu4AG7Ag5XINCA2nLPl5OZ2c6MarUCW4FNUAOx2eZrG
DX62vSnsg/PLiaTLbAC6DMV4D/9puJT0BHBDP9ie16f7Xc51jtrnxAexnd5viEu2
TZrP+bz6n80ybfY6Cw0jQnjsl0K/Dk1gVuHTAvIZy4RXkOVwoaKDNYbi2oaf+YrE
ebNSKNrLuzTK09qRSs+NdqKya5v5lv0JKtoRI03wy9aysQ4SbJoZZZiHyuTuJM5E
rJCPnRvFKp0CAwEAAaOCAQ4wggEKMAsGA1UdDwQEAwIFoDAJBgNVHRMEAjAAMBEG
CWCGSAGG+EIBAQQEAwIGQDAzBglghkgBhvhCAQ0EJhYkT3BlblNTTCBHZW5lcmF0
ZWQgU2VydmVyIENlcnRpZmljYXRlMB0GA1UdDgQWBBRNB5Ct/x0N5xrd1i76ujTL
qh8kxjB0BgNVHSMEbTBrgBT0p8DMkUavZPOR8if4yLJviocyc6FIpEYwRDELMAkG
A1UEBhMCREUxDzANBgNVBAgMBkhlc3NlbjEUMBIGA1UECgwLcHJpdmFjeWlkZWEx
DjAMBgNVBAMMBUNBMDAxggkA+8jrrIPNEgcwEwYDVR0lBAwwCgYIKwYBBQUHAwEw
DQYJKoZIhvcNAQEFBQADggEBAHzGXX7FpipawlF9dleL3nYw5ev1kLJLA/cdRegW
OPrCpkKndNoc0/6aQIXW+puycMsUFq6zainOzxEs+d68bs8T6MOm6cy85KDHN9eJ
PNjv3F7weA8wK07hUxbkE5cvA5dgsKe/JdF/J9JTvpZmxejI3cyCLIv/FnJAyKaN
aTxrRA8N/G02mENoicpcLEr1IhjMze1Q12KdtWB1APvOmyg0Ib/hblTWmiqs5dNT
g4e3bmXn3gTm1/D8A97hCFIlDZzGf8vBU0n2e6CPdFLZoNDtnO9czJ7ezNfNk4zP
+Y69ppoEttercw3vfRlQdPo+ngnvO4bUiveyZrmrcY7/HUg=
-----END CERTIFICATE-----
