Certificate:
    Data:
        Version: 3 (0x2)
        Serial Number: 268435670 (0x100000d6)
    Signature Algorithm: sha1WithRSAEncryption
        Issuer: C=DE, ST=Hessen, O=privacyidea, CN=CA001
        Validity
            Not Before: Sep 20 15:42:31 2015 GMT
            Not After : Sep 19 15:42:31 2016 GMT
        Subject: CN=selfservice,CN=user,O=realm1/emailAddress=meine
        Subject Public Key Info:
            Public Key Algorithm: rsaEncryption
                Public-Key: (2048 bit)
                Modulus:
                    00:cf:3c:d4:33:0e:12:c4:e6:da:cd:b6:56:a1:1c:
                    26:bb:26:1c:8a:4a:73:a8:58:8a:b6:1e:b3:8b:99:
                    d2:1d:07:c2:92:89:79:c0:69:d8:c8:df:28:61:98:
                    1e:b3:fe:ae:2b:bd:78:a9:f7:6e:47:dc:a3:a0:16:
                    8c:85:02:c1:4e:92:fd:72:6e:f0:c8:03:29:9b:b8:
                    00:6e:c0:83:95:c8:34:20:36:9c:b3:e5:e4:e6:76:
                    73:a3:1a:ad:40:96:e0:53:54:00:ec:76:79:9a:c6:
                    0d:7e:b6:bd:29:ec:83:f3:cb:89:a4:cb:6c:00:ba:
                    0c:c5:78:0f:ff:69:b8:94:f4:04:70:43:3f:d8:9e:
                    d7:a7:fb:5d:ce:75:8e:da:e7:c4:07:b1:9d:de:6f:
                    88:4b:b6:4d:9a:cf:f9:bc:fa:9f:cd:32:6d:f6:3a:
                    0b:0d:23:42:78:ec:97:42:bf:0e:4d:60:56:e1:d3:
                    02:f2:19:cb:84:57:90:e5:70:a1:a2:83:35:86:e2:
                    da:86:9f:f9:8a:c4:79:b3:52:28:da:cb:bb:34:ca:
                    d3:da:91:4a:cf:8d:76:a2:b2:6b:9b:f9:96:fd:09:
                    2a:da:11:23:4d:f0:cb:d6:b2:b1:0e:12:6c:9a:19:
                    65:98:87:ca:e4:ee:24:ce:44:ac:90:8f:9d:1b:c5:
                    2a:9d
                Exponent: 65537 (0x10001)
        X509v3 extensions:
            X509v3 Key Usage: 
                Digital Signature, Key Encipherment
            X509v3 Basic Constraints: 
                CA:FALSE
            Netscape Cert Type: 
                SSL Server
            Netscape Comment: 
                OpenSSL Generated Server Certificate
            X509v3 Subject Key Identifier: 
                4D:07:90:AD:FF:1D:0D:E7:1A:DD:D6:2E:FA:BA:34:CB:AA:1F:24:C6
            X509v3 Authority Key Identifier: 
                keyid:F4:A7:C0:CC:91:46:AF:64:F3:91:F2:27:F8:C8:B2:6F:8A:87:32:73
                DirName:/C=DE/ST=Hessen/O=privacyidea/CN=CA001
                serial:FB:C8:EB:AC:83:CD:12:07

            X509v3 Extended Key Usage: 
                TLS Web Server Authentication
    Signature Algorithm: sha1WithRSAEncryption
         4f:5a:c4:62:db:7e:ba:2f:16:38:36:a9:cc:ea:d2:1d:8c:ef:
         16:89:2c:74:e1:75:15:d5:3e:a0:0b:c4:3a:41:0c:fb:10:3e:
         69:90:7d:51:31:ea:4a:cf:25:b8:a0:f5:99:2c:72:3b:d2:30:
         41:5f:09:6e:a7:19:c7:0e:0a:ef:52:16:b9:51:b4:6c:9b:68:
         6c:b8:89:a8:e0:bb:12:92:f5:77:51:2a:25:b3:99:bd:f6:39:
         6c:4a:88:6f:71:50:04:3a:e6:19:aa:1d:61:dc:80:9f:12:46:
         aa:86:77:f6:45:7c:69:c3:84:be:96:c0:69:25:8f:f9:b0:48:
         72:6b:a1:8a:43:26:7d:39:aa:ac:72:13:56:ae:ea:79:17:32:
         22:2c:cb:26:4f:e9:b8:66:65:44:fd:6f:78:0b:28:6f:fd:0a:
         bd:03:00:a0:9c:15:8e:33:97:38:9b:88:07:53:f9:7f:2a:e5:
         aa:da:23:8f:51:5d:8a:84:00:44:be:67:81:cc:3d:c2:20:9d:
         e5:fe:e8:b6:37:4d:30:53:fa:fc:b0:a9:bf:92:d9:92:69:37:
         85:fc:42:d0:95:56:61:18:d0:19:bd:67:59:76:ed:e5:91:eb:
         bb:45:66:47:f2:90:e3:a1:ee:fe:e8:fb:b8:fd:ac:8c:08:bc:
         8b:4a:94:da
-----BEGIN CERTIFICATE-----
MIIEDzCCAvegAwIBAgIEEAAA1jANBgkqhkiG9w0BAQUFADBEMQswCQYDVQQGEwJE
RTEPMA0GA1UECAwGSGVzc2VuMRQwEgYDVQQKDAtwcml2YWN5aWRlYTEOMAwGA1UE
AwwFQ0EwMDEwHhcNMTUwOTIwMTU0MjMxWhcNMTYwOTE5MTU0MjMxWjA9MSUwIwYD
VQQDExxzZWxmc2VydmljZSxDTj11c2VyLE89cmVhbG0xMRQwEgYJKoZIhvcNAQkB
FgVtZWluZTCCASIwDQYJKoZIhvcNAQEBBQADggEPADCCAQoCggEBAM881DMOEsTm
2s22VqEcJrsmHIpKc6hYirYes4uZ0h0HwpKJecBp2MjfKGGYHrP+riu9eKn3bkfc
o6AWjIUCwU6S/XJu8MgDKZu4AG7Ag5XINCA2nLPl5OZ2c6MarUCW4FNUAOx2eZrG
DX62vSnsg/PLiaTLbAC6DMV4D/9puJT0BHBDP9ie16f7Xc51jtrnxAexnd5viEu2
TZrP+bz6n80ybfY6Cw0jQnjsl0K/Dk1gVuHTAvIZy4RXkOVwoaKDNYbi2oaf+YrE
ebNSKNrLuzTK09qRSs+NdqKya5v5lv0JKtoRI03wy9aysQ4SbJoZZZiHyuTuJM5E
rJCPnRvFKp0CAwEAAaOCAQ4wggEKMAsGA1UdDwQEAwIFoDAJBgNVHRMEAjAAMBEG
CWCGSAGG+EIBAQQEAwIGQDAzBglghkgBhvhCAQ0EJhYkT3BlblNTTCBHZW5lcmF0
ZWQgU2VydmVyIENlcnRpZmljYXRlMB0GA1UdDgQWBBRNB5Ct/x0N5xrd1i76ujTL
qh8kxjB0BgNVHSMEbTBrgBT0p8DMkUavZPOR8if4yLJviocyc6FIpEYwRDELMAkG
A1UEBhMCREUxDzANBgNVBAgMBkhlc3NlbjEUMBIGA1UECgwLcHJpdmFjeWlkZWEx
DjAMBgNVBAMMBUNBMDAxggkA+8jrrIPNEgcwEwYDVR0lBAwwCgYIKwYBBQUHAwEw
DQYJKoZIhvcNAQEFBQADggEBAE9axGLbfrovFjg2qczq0h2M7xaJLHThdRXVPqAL
xDpBDPsQPmmQfVEx6krPJbig9ZkscjvSMEFfCW6nGccOCu9SFrlRtGybaGy4iajg
uxKS9XdRKiWzmb32OWxKiG9xUAQ65hmqHWHcgJ8SRqqGd/ZFfGnDhL6WwGklj/mw
SHJroYpDJn05qqxyE1au6nkXMiIsyyZP6bhmZUT9b3gLKG/9Cr0DAKCcFY4zlzib
iAdT+X8q5araI49RXYqEAES+Z4HMPcIgneX+6LY3TTBT+vywqb+S2ZJpN4X8QtCV
VmEY0Bm9Z1l27eWR67tFZkfykOOh7v7o+7j9rIwIvItKlNo=
-----END CERTIFICATE-----
