Certificate:
    Data:
        Version: 3 (0x2)
        Serial Number: 268435678 (0x100000de)
    Signature Algorithm: sha1WithRSAEncryption
        Issuer: C=DE, ST=Hessen, O=privacyidea, CN=CA001
        Validity
            Not Before: Sep 20 15:55:52 2015 GMT
            Not After : Sep 19 15:55:52 2016 GMT
        Subject: C=DE, ST=Hessen, O=privacyidea, CN=requester.localdomain
        Subject Public Key Info:
            Public Key Algorithm: rsaEncryption
                Public-Key: (2048 bit)
                Modulus:
                    00:cd:be:14:4f:fa:ce:01:3f:42:22:1b:1d:9c:af:
                    dd:92:d2:7f:db:6c:b7:3e:39:43:43:6b:13:03:f1:
                    05:f4:07:74:bc:76:69:28:0b:af:19:8e:d7:fc:e3:
                    cd:c6:58:f2:ca:7f:08:6d:53:fc:07:02:44:24:c6:
                    b4:34:4c:8c:04:fe:33:0e:40:e2:20:ba:02:73:5a:
                    f7:f5:4f:63:6e:cc:c6:b6:df:54:1d:37:39:7d:51:
                    36:26:5f:bd:dc:3f:a8:8b:6b:a2:ae:b6:9d:d6:21:
                    e7:df:41:b8:7a:28:2a:68:48:ca:a8:2d:ed:e1:e9:
                    46:5e:5a:72:6d:b4:84:38:87:91:fd:94:11:0b:28:
                    84:c6:c2:2f:2a:fb:01:f9:36:7a:09:75:d1:33:88:
                    3c:73:41:5b:c8:bf:94:89:70:a1:f0:c0:b9:2e:50:
                    53:1e:b1:17:64:69:f4:2d:81:e0:a9:0d:0e:32:e9:
                    ba:55:8a:85:f1:1b:6f:49:79:b4:7f:88:c3:0d:3e:
                    54:88:9b:3d:1f:38:8c:04:f3:ee:6a:63:2b:f5:c6:
                    db:b4:83:aa:c4:78:41:3a:7d:4b:e1:c8:3e:71:ca:
                    1b:61:59:ea:c6:c4:ca:32:5e:c9:e9:bf:12:29:e6:
                    c6:c3:63:fe:a0:55:da:7a:f1:60:98:4d:26:ed:fa:
                    70:2d
                Exponent: 65537 (0x10001)
        X509v3 extensions:
            X509v3 Key Usage: 
                Digital Signature, Key Encipherment
            X509v3 Basic Constraints: 
                CA:FALSE
            Netscape Cert Type: 
                SSL Server
            Netscape Comment: 
                OpenSSL Generated Server Certificate
            X509v3 Subject Key Identifier: 
                53:3F:ED:5D:09:07:B3:65:7B:AB:45:C9:24:5B:09:77:80:0A:96:ED
            X509v3 Authority Key Identifier: 
                keyid:F4:A7:C0:CC:91:46:AF:64:F3:91:F2:27:F8:C8:B2:6F:8A:87:32:73
                DirName:/C=DE/ST=Hessen/O=privacyidea/CN=CA001
                serial:FB:C8:EB:AC:83:CD:12:07

            X509v3 Extended Key Usage: 
                TLS Web Server Authentication
    Signature Algorithm: sha1WithRSAEncryption
         7a:5d:55:20:75:aa:26:02:f0:86:9c:20:0d:17:ba:7b:82:c5:
         9d:82:72:a5:48:e6:4a:19:c6:04:0a:61:9a:fb:d8:fc:bf:cc:
         2e:ce:8c:11:ab:e7:ff:c6:03:d3:84:f8:b6:66:13:c5:fd:5e:
         09:e4:ef:a6:aa:c0:e5:75:7e:c6:c9:55:63:64:b1:0c:3c:bf:
         e2:92:44:e7:77:16:cd:6c:03:b8:18:97:a5:5a:6e:e8:cb:7b:
         fd:6a:7e:e6:51:ba:32:b4:ee:62:3c:cb:bc:fc:d3:d1:c4:6c:
         df:36:95:62:12:22:56:7d:e6:d2:01:71:5e:0b:db:bb:56:fe:
         f7:b6:c0:74:1c:54:6a:f9:a0:86:94:82:64:ba:aa:3c:a1:7c:
         2e:a1:a5:ab:85:d5:a7:2c:35:7c:87:dc:ef:9b:c7:d6:8b:64:
         d3:dc:68:d8:f8:86:94:cf:14:59:46:40:40:2f:c1:68:38:9f:
         9a:f3:89:8c:07:8d:e0:7c:12:9a:8f:40:0d:96:e8:15:72:b2:
         88:f2:a7:1a:76:e6:16:92:31:9b:3a:87:c8:75:0a:48:f7:9a:
         e2:bf:e2:4e:7f:1b:4b:1d:f8:15:b1:b1:08:fd:cf:df:92:ab:
         0f:87:3f:6c:85:62:5a:1c:7f:ed:ac:24:7d:bc:4c:8e:c4:7c:
         95:a7:cd:0a
-----BEGIN CERTIFICATE-----
MIIEJjCCAw6gAwIBAgIEEAAA3jANBgkqhkiG9w0BAQUFADBEMQswCQYDVQQGEwJE
RTEPMA0GA1UECAwGSGVzc2VuMRQwEgYDVQQKDAtwcml2YWN5aWRlYTEOMAwGA1UE
AwwFQ0EwMDEwHhcNMTUwOTIwMTU1NTUyWhcNMTYwOTE5MTU1NTUyWjBUMQswCQYD
VQQGEwJERTEPMA0GA1UECAwGSGVzc2VuMRQwEgYDVQQKDAtwcml2YWN5aWRlYTEe
MBwGA1UEAwwVcmVxdWVzdGVyLmxvY2FsZG9tYWluMIIBIjANBgkqhkiG9w0BAQEF
AAOCAQ8AMIIBCgKCAQEAzb4UT/rOAT9CIhsdnK/dktJ/22y3PjlDQ2sTA/EF9Ad0
vHZpKAuvGY7X/OPNxljyyn8IbVP8BwJEJMa0NEyMBP4zDkDiILoCc1r39U9jbszG
tt9UHTc5fVE2Jl+93D+oi2uirrad1iHn30G4eigqaEjKqC3t4elGXlpybbSEOIeR
/ZQRCyiExsIvKvsB+TZ6CXXRM4g8c0FbyL+UiXCh8MC5LlBTHrEXZGn0LYHgqQ0O
Mum6VYqF8RtvSXm0f4jDDT5UiJs9HziMBPPuamMr9cbbtIOqxHhBOn1L4cg+ccob
YVnqxsTKMl7J6b8SKebGw2P+oFXaevFgmE0m7fpwLQIDAQABo4IBDjCCAQowCwYD
VR0PBAQDAgWgMAkGA1UdEwQCMAAwEQYJYIZIAYb4QgEBBAQDAgZAMDMGCWCGSAGG
+EIBDQQmFiRPcGVuU1NMIEdlbmVyYXRlZCBTZXJ2ZXIgQ2VydGlmaWNhdGUwHQYD
VR0OBBYEFFM/7V0JB7Nle6tFySRbCXeACpbtMHQGA1UdIwRtMGuAFPSnwMyRRq9k
85HyJ/jIsm+KhzJzoUikRjBEMQswCQYDVQQGEwJERTEPMA0GA1UECAwGSGVzc2Vu
MRQwEgYDVQQKDAtwcml2YWN5aWRlYTEOMAwGA1UEAwwFQ0EwMDGCCQD7yOusg80S
BzATBgNVHSUEDDAKBggrBgEFBQcDATANBgkqhkiG9w0BAQUFAAOCAQEAel1VIHWq
JgLwhpwgDRe6e4LFnYJypUjmShnGBAphmvvY/L/MLs6MEavn/8YD04T4tmYTxf1e
CeTvpqrA5XV+xslVY2SxDDy/4pJE53cWzWwDuBiXpVpu6Mt7/Wp+5lG6MrTuYjzL
vPzT0cRs3zaVYhIiVn3m0gFxXgvbu1b+97bAdBxUavmghpSCZLqqPKF8LqGlq4XV
pyw1fIfc75vH1otk09xo2PiGlM8UWUZAQC/BaDifmvOJjAeN4HwSmo9ADZboFXKy
iPKnGnbmFpIxmzqHyHUKSPea4r/iTn8bSx34FbGxCP3P35KrD4c/bIViWhx/7awk
fbxMjsR8lafNCg==
-----END CERTIFICATE-----
