Certificate:
    Data:
        Version: 3 (0x2)
        Serial Number: 268435672 (0x100000d8)
    Signature Algorithm: sha1WithRSAEncryption
        Issuer: C=DE, ST=Hessen, O=privacyidea, CN=CA001
        Validity
            Not Before: Sep 20 15:49:12 2015 GMT
            Not After : Sep 19 15:49:12 2016 GMT
        Subject: C=DE, ST=Hessen, O=privacyidea, CN=requester.localdomain
        Subject Public Key Info:
            Public Key Algorithm: rsaEncryption
                Public-Key: (2048 bit)
                Modulus:
                    00:cd:be:14:4f:fa:ce:01:3f:42:22:1b:1d:9c:af:
                    dd:92:d2:7f:db:6c:b7:3e:39:43:43:6b:13:03:f1:
                    05:f4:07:74:bc:76:69:28:0b:af:19:8e:d7:fc:e3:
                    cd:c6:58:f2:ca:7f:08:6d:53:fc:07:02:44:24:c6:
                    b4:34:4c:8c:04:fe:33:0e:40:e2:20:ba:02:73:5a:
                    f7:f5:4f:63:6e:cc:c6:b6:df:54:1d:37:39:7d:51:
                    36:26:5f:bd:dc:3f:a8:8b:6b:a2:ae:b6:9d:d6:21:
                    e7:df:41:b8:7a:28:2a:68:48:ca:a8:2d:ed:e1:e9:
                    46:5e:5a:72:6d:b4:84:38:87:91:fd:94:11:0b:28:
                    84:c6:c2:2f:2a:fb:01:f9:36:7a:09:75:d1:33:88:
                    3c:73:41:5b:c8:bf:94:89:70:a1:f0:c0:b9:2e:50:
                    53:1e:b1:17:64:69:f4:2d:81:e0:a9:0d:0e:32:e9:
                    ba:55:8a:85:f1:1b:6f:49:79:b4:7f:88:c3:0d:3e:
                    54:88:9b:3d:1f:38:8c:04:f3:ee:6a:63:2b:f5:c6:
                    db:b4:83:aa:c4:78:41:3a:7d:4b:e1:c8:3e:71:ca:
                    1b:61:59:ea:c6:c4:ca:32:5e:c9:e9:bf:12:29:e6:
                    c6:c3:63:fe:a0:55:da:7a:f1:60:98:4d:26:ed:fa:
                    70:2d
                Exponent: 65537 (0x10001)
        X509v3 extensions:
            X509v3 Key Usage: 
                Digital Signature, Key Encipherment
            X509v3 Basic Constraints: 
                CA:FALSE
            Netscape Cert Type: 
                SSL Server
            Netscape Comment: 
                OpenSSL Generated Server Certificate
            X509v3 Subject Key Identifier: 
                53:3F:ED:5D:09:07:B3:65:7B:AB:45:C9:24:5B:09:77:80:0A:96:ED
            X509v3 Authority Key Identifier: 
                keyid:F4:A7:C0:CC:91:46:AF:64:F3:91:F2:27:F8:C8:B2:6F:8A:87:32:73
                DirName:/C=DE/ST=Hessen/O=privacyidea/CN=CA001
                serial:FB:C8:EB:AC:83:CD:12:07

            X509v3 Extended Key Usage: 
                TLS Web Server Authentication
    Signature Algorithm: sha1WithRSAEncryption
         8d:f0:ed:80:b7:4a:05:f3:8a:4b:13:60:87:cb:30:75:81:f6:
         e0:6d:07:ad:02:a7:09:dc:ef:91:57:74:71:fe:a6:53:bc:7b:
         10:9b:4b:71:b4:58:9f:96:94:ee:21:fd:6e:ae:e6:a0:45:86:
         2b:8c:c1:b1:89:6e:08:80:24:9f:77:41:d0:07:af:04:ed:0f:
         20:3f:c8:16:1e:ff:f2:01:ca:6e:a5:3b:c5:b1:57:91:33:8e:
         fd:89:8d:96:0e:b0:0a:d7:d8:75:93:55:51:3d:6d:9a:1e:e3:
         15:fc:02:9b:4b:6b:99:98:0b:da:1d:91:7c:8e:37:6c:74:1d:
         44:e5:77:e1:89:7f:23:00:92:78:e1:a1:78:8c:d5:75:41:77:
         e7:9d:32:1a:9c:f5:36:21:d4:e6:5d:5a:00:0e:d2:a7:99:c3:
         d3:68:b8:1a:b1:f8:a1:ca:60:0f:46:a1:41:e5:dd:dd:c6:d7:
         ba:f2:b6:0d:c9:95:1f:83:c4:53:c5:36:12:77:e9:95:28:09:
         b1:ce:8a:03:69:04:41:dd:a3:7d:6a:93:6a:b6:a2:53:54:bf:
         07:3a:33:b2:9f:c4:ad:68:fd:2a:9f:1a:80:ca:e9:c9:d4:04:
         9c:2f:65:75:cd:52:4f:fb:6c:05:57:67:c2:59:28:14:bb:91:
         4a:20:3e:9a
-----BEGIN CERTIFICATE-----
MIIEJjCCAw6gAwIBAgIEEAAA2DANBgkqhkiG9w0BAQUFADBEMQswCQYDVQQGEwJE
RTEPMA0GA1UECAwGSGVzc2VuMRQwEgYDVQQKDAtwcml2YWN5aWRlYTEOMAwGA1UE
AwwFQ0EwMDEwHhcNMTUwOTIwMTU0OTEyWhcNMTYwOTE5MTU0OTEyWjBUMQswCQYD
VQQGEwJERTEPMA0GA1UECAwGSGVzc2VuMRQwEgYDVQQKDAtwcml2YWN5aWRlYTEe
MBwGA1UEAwwVcmVxdWVzdGVyLmxvY2FsZG9tYWluMIIBIjANBgkqhkiG9w0BAQEF
AAOCAQ8AMIIBCgKCAQEAzb4UT/rOAT9CIhsdnK/dktJ/22y3PjlDQ2sTA/EF9Ad0
vHZpKAuvGY7X/OPNxljyyn8IbVP8BwJEJMa0NEyMBP4zDkDiILoCc1r39U9jbszG
tt9UHTc5fVE2Jl+93D+oi2uirrad1iHn30G4eigqaEjKqC3t4elGXlpybbSEOIeR
/ZQRCyiExsIvKvsB+TZ6CXXRM4g8c0FbyL+UiXCh8MC5LlBTHrEXZGn0LYHgqQ0O
Mum6VYqF8RtvSXm0f4jDDT5UiJs9HziMBPPuamMr9cbbtIOqxHhBOn1L4cg+ccob
YVnqxsTKMl7J6b8SKebGw2P+oFXaevFgmE0m7fpwLQIDAQABo4IBDjCCAQowCwYD
VR0PBAQDAgWgMAkGA1UdEwQCMAAwEQYJYIZIAYb4QgEBBAQDAgZAMDMGCWCGSAGG
+EIBDQQmFiRPcGVuU1NMIEdlbmVyYXRlZCBTZXJ2ZXIgQ2VydGlmaWNhdGUwHQYD
VR0OBBYEFFM/7V0JB7Nle6tFySRbCXeACpbtMHQGA1UdIwRtMGuAFPSnwMyRRq9k
85HyJ/jIsm+KhzJzoUikRjBEMQswCQYDVQQGEwJERTEPMA0GA1UECAwGSGVzc2Vu
MRQwEgYDVQQKDAtwcml2YWN5aWRlYTEOMAwGA1UEAwwFQ0EwMDGCCQD7yOusg80S
BzATBgNVHSUEDDAKBggrBgEFBQcDATANBgkqhkiG9w0BAQUFAAOCAQEAjfDtgLdK
BfOKSxNgh8swdYH24G0HrQKnCdzvkVd0cf6mU7x7EJtLcbRYn5aU7iH9bq7moEWG
K4zBsYluCIAkn3dB0AevBO0PID/IFh7/8gHKbqU7xbFXkTOO/YmNlg6wCtfYdZNV
UT1tmh7jFfwCm0trmZgL2h2RfI43bHQdROV34Yl/IwCSeOGheIzVdUF3550yGpz1
NiHU5l1aAA7Sp5nD02i4GrH4ocpgD0ahQeXd3cbXuvK2DcmVH4PEU8U2EnfplSgJ
sc6KA2kEQd2jfWqTaraiU1S/Bzozsp/ErWj9Kp8agMrpydQEnC9ldc1ST/tsBVdn
wlkoFLuRSiA+mg==
-----END CERTIFICATE-----
