Certificate:
    Data:
        Version: 3 (0x2)
        Serial Number: 268435667 (0x100000d3)
    Signature Algorithm: sha1WithRSAEncryption
        Issuer: C=DE, ST=Hessen, O=privacyidea, CN=CA001
        Validity
            Not Before: Jan 25 18:29:07 2016 GMT
            Not After : Jan 24 18:29:07 2017 GMT
        Subject: CN=selfservice,CN=user,O=realm1/emailAddress=meine
        Subject Public Key Info:
            Public Key Algorithm: rsaEncryption
                Public-Key: (2048 bit)
                Modulus:
                    00:cf:3c:d4:33:0e:12:c4:e6:da:cd:b6:56:a1:1c:
                    26:bb:26:1c:8a:4a:73:a8:58:8a:b6:1e:b3:8b:99:
                    d2:1d:07:c2:92:89:79:c0:69:d8:c8:df:28:61:98:
                    1e:b3:fe:ae:2b:bd:78:a9:f7:6e:47:dc:a3:a0:16:
                    8c:85:02:c1:4e:92:fd:72:6e:f0:c8:03:29:9b:b8:
                    00:6e:c0:83:95:c8:34:20:36:9c:b3:e5:e4:e6:76:
                    73:a3:1a:ad:40:96:e0:53:54:00:ec:76:79:9a:c6:
                    0d:7e:b6:bd:29:ec:83:f3:cb:89:a4:cb:6c:00:ba:
                    0c:c5:78:0f:ff:69:b8:94:f4:04:70:43:3f:d8:9e:
                    d7:a7:fb:5d:ce:75:8e:da:e7:c4:07:b1:9d:de:6f:
                    88:4b:b6:4d:9a:cf:f9:bc:fa:9f:cd:32:6d:f6:3a:
                    0b:0d:23:42:78:ec:97:42:bf:0e:4d:60:56:e1:d3:
                    02:f2:19:cb:84:57:90:e5:70:a1:a2:83:35:86:e2:
                    da:86:9f:f9:8a:c4:79:b3:52:28:da:cb:bb:34:ca:
                    d3:da:91:4a:cf:8d:76:a2:b2:6b:9b:f9:96:fd:09:
                    2a:da:11:23:4d:f0:cb:d6:b2:b1:0e:12:6c:9a:19:
                    65:98:87:ca:e4:ee:24:ce:44:ac:90:8f:9d:1b:c5:
                    2a:9d
                Exponent: 65537 (0x10001)
        X509v3 extensions:
            X509v3 Key Usage: 
                Digital Signature, Key Encipherment
            X509v3 Basic Constraints: 
                CA:FALSE
            Netscape Cert Type: 
                SSL Server
            Netscape Comment: 
                OpenSSL Generated Server Certificate
            X509v3 Subject Key Identifier: 
                4D:07:90:AD:FF:1D:0D:E7:1A:DD:D6:2E:FA:BA:34:CB:AA:1F:24:C6
            X509v3 Authority Key Identifier: 
                keyid:F4:A7:C0:CC:91:46:AF:64:F3:91:F2:27:F8:C8:B2:6F:8A:87:32:73
                DirName:/C=DE/ST=Hessen/O=privacyidea/CN=CA001
                serial:FB:C8:EB:AC:83:CD:12:07

            X509v3 Extended Key Usage: 
                TLS Web Server Authentication
    Signature Algorithm: sha1WithRSAEncryption
         26:8f:8d:67:22:3d:ae:f5:83:6b:5a:f5:fe:09:8b:a0:34:bd:
         49:12:54:58:3a:77:09:e6:c8:f2:20:89:b9:38:93:ac:4f:90:
         b3:d4:1f:0a:fc:21:8b:5c:e0:7b:e7:99:42:9c:10:e6:f3:4c:
         5d:b5:6d:ff:3e:1c:fb:ea:ec:12:dd:b4:50:c9:3e:ea:dd:33:
         c6:e7:1f:c2:b5:f1:4e:f8:ad:56:9d:57:61:f3:5a:84:ee:aa:
         64:34:de:7e:80:20:3a:65:f5:aa:2c:2d:2c:2a:df:ee:3d:f7:
         b7:40:0f:b6:26:8c:9f:f6:c1:da:86:fe:44:a4:bc:e9:2d:5f:
         5a:d1:de:ef:c3:d9:e9:96:46:f3:33:be:e0:62:7d:b8:af:dc:
         a6:03:0a:b6:a3:16:a9:6b:78:3e:db:28:d6:28:88:2d:6c:3e:
         32:a7:96:58:bf:42:7c:9f:09:fd:bb:58:24:2c:82:0e:d2:4a:
         71:e4:86:1d:63:8e:3a:f3:01:dd:73:d0:47:1a:53:95:ac:ef:
         8c:0e:0c:f6:b7:39:3c:1a:74:40:f6:ad:8c:c5:fa:b2:d3:50:
         80:0a:cb:f3:da:7b:ac:c1:e6:c8:3c:61:78:4a:18:11:00:70:
         14:ec:1f:1b:1d:6a:29:4b:3c:a9:9a:ce:95:44:9e:e5:8f:29:
         01:bd:e1:d4
-----BEGIN CERTIFICATE-----
MIIEDzCCAvegAwIBAgIEEAAA0zANBgkqhkiG9w0BAQUFADBEMQswCQYDVQQGEwJE
RTEPMA0GA1UECAwGSGVzc2VuMRQwEgYDVQQKDAtwcml2YWN5aWRlYTEOMAwGA1UE
AwwFQ0EwMDEwHhcNMTYwMTI1MTgyOTA3WhcNMTcwMTI0MTgyOTA3WjA9MSUwIwYD
VQQDExxzZWxmc2VydmljZSxDTj11c2VyLE89cmVhbG0xMRQwEgYJKoZIhvcNAQkB
FgVtZWluZTCCASIwDQYJKoZIhvcNAQEBBQADggEPADCCAQoCggEBAM881DMOEsTm
2s22VqEcJrsmHIpKc6hYirYes4uZ0h0HwpKJecBp2MjfKGGYHrP+riu9eKn3bkfc
o6AWjIUCwU6S/XJu8MgDKZu4AG7Ag5XINCA2nLPl5OZ2c6MarUCW4FNUAOx2eZrG
DX62vSnsg/PLiaTLbAC6DMV4D/9puJT0BHBDP9ie16f7Xc51jtrnxAexnd5viEu2
TZrP+bz6n80ybfY6Cw0jQnjsl0K/Dk1gVuHTAvIZy4RXkOVwoaKDNYbi2oaf+YrE
ebNSKNrLuzTK09qRSs+NdqKya5v5lv0JKtoRI03wy9aysQ4SbJoZZZiHyuTuJM5E
rJCPnRvFKp0CAwEAAaOCAQ4wggEKMAsGA1UdDwQEAwIFoDAJBgNVHRMEAjAAMBEG
CWCGSAGG+EIBAQQEAwIGQDAzBglghkgBhvhCAQ0EJhYkT3BlblNTTCBHZW5lcmF0
ZWQgU2VydmVyIENlcnRpZmljYXRlMB0GA1UdDgQWBBRNB5Ct/x0N5xrd1i76ujTL
qh8kxjB0BgNVHSMEbTBrgBT0p8DMkUavZPOR8if4yLJviocyc6FIpEYwRDELMAkG
A1UEBhMCREUxDzANBgNVBAgMBkhlc3NlbjEUMBIGA1UECgwLcHJpdmFjeWlkZWEx
DjAMBgNVBAMMBUNBMDAxggkA+8jrrIPNEgcwEwYDVR0lBAwwCgYIKwYBBQUHAwEw
DQYJKoZIhvcNAQEFBQADggEBACaPjWciPa71g2ta9f4Ji6A0vUkSVFg6dwnmyPIg
ibk4k6xPkLPUHwr8IYtc4HvnmUKcEObzTF21bf8+HPvq7BLdtFDJPurdM8bnH8K1
8U74rVadV2HzWoTuqmQ03n6AIDpl9aosLSwq3+4997dAD7YmjJ/2wdqG/kSkvOkt
X1rR3u/D2emWRvMzvuBifbiv3KYDCrajFqlreD7bKNYoiC1sPjKnlli/QnyfCf27
WCQsgg7SSnHkhh1jjjrzAd1z0EcaU5Ws74wODPa3OTwadED2rYzF+rLTUIAKy/Pa
e6zB5sg8YXhKGBEAcBTsHxsdailLPKmazpVEnuWPKQG94dQ=
-----END CERTIFICATE-----
