Certificate:
    Data:
        Version: 3 (0x2)
        Serial Number: 268435661 (0x100000cd)
    Signature Algorithm: sha1WithRSAEncryption
        Issuer: C=DE, ST=Hessen, O=privacyidea, CN=CA001
        Validity
            Not Before: Mar 15 11:15:09 2016 GMT
            Not After : Mar 15 11:15:09 2017 GMT
        Subject: C=DE, ST=Hessen, O=privacyidea, CN=requester.localdomain
        Subject Public Key Info:
            Public Key Algorithm: rsaEncryption
                Public-Key: (2048 bit)
                Modulus:
                    00:cd:be:14:4f:fa:ce:01:3f:42:22:1b:1d:9c:af:
                    dd:92:d2:7f:db:6c:b7:3e:39:43:43:6b:13:03:f1:
                    05:f4:07:74:bc:76:69:28:0b:af:19:8e:d7:fc:e3:
                    cd:c6:58:f2:ca:7f:08:6d:53:fc:07:02:44:24:c6:
                    b4:34:4c:8c:04:fe:33:0e:40:e2:20:ba:02:73:5a:
                    f7:f5:4f:63:6e:cc:c6:b6:df:54:1d:37:39:7d:51:
                    36:26:5f:bd:dc:3f:a8:8b:6b:a2:ae:b6:9d:d6:21:
                    e7:df:41:b8:7a:28:2a:68:48:ca:a8:2d:ed:e1:e9:
                    46:5e:5a:72:6d:b4:84:38:87:91:fd:94:11:0b:28:
                    84:c6:c2:2f:2a:fb:01:f9:36:7a:09:75:d1:33:88:
                    3c:73:41:5b:c8:bf:94:89:70:a1:f0:c0:b9:2e:50:
                    53:1e:b1:17:64:69:f4:2d:81:e0:a9:0d:0e:32:e9:
                    ba:55:8a:85:f1:1b:6f:49:79:b4:7f:88:c3:0d:3e:
                    54:88:9b:3d:1f:38:8c:04:f3:ee:6a:63:2b:f5:c6:
                    db:b4:83:aa:c4:78:41:3a:7d:4b:e1:c8:3e:71:ca:
                    1b:61:59:ea:c6:c4:ca:32:5e:c9:e9:bf:12:29:e6:
                    c6:c3:63:fe:a0:55:da:7a:f1:60:98:4d:26:ed:fa:
                    70:2d
                Exponent: 65537 (0x10001)
        X509v3 extensions:
            X509v3 Key Usage: 
                Digital Signature, Key Encipherment
            X509v3 Basic Constraints: 
                CA:FALSE
            Netscape Cert Type: 
                SSL Server
            Netscape Comment: 
                OpenSSL Generated Server Certificate
            X509v3 Subject Key Identifier: 
                53:3F:ED:5D:09:07:B3:65:7B:AB:45:C9:24:5B:09:77:80:0A:96:ED
            X509v3 Authority Key Identifier: 
                keyid:F4:A7:C0:CC:91:46:AF:64:F3:91:F2:27:F8:C8:B2:6F:8A:87:32:73
                DirName:/C=DE/ST=Hessen/O=privacyidea/CN=CA001
                serial:FB:C8:EB:AC:83:CD:12:07

            X509v3 Extended Key Usage: 
                TLS Web Server Authentication
    Signature Algorithm: sha1WithRSAEncryption
         5f:58:a2:8f:82:7b:e8:44:2b:a9:bb:0e:2a:58:54:c8:1c:f8:
         c6:38:87:53:63:c0:ed:78:d8:64:e4:2b:80:44:72:88:d9:c1:
         73:72:4e:ef:04:2a:48:17:01:63:2e:81:74:e5:9d:a9:c2:2f:
         04:cb:c2:e0:cd:17:b2:15:61:ec:a1:fb:9d:df:1c:32:e0:7c:
         bb:00:3c:4c:a4:35:2c:79:87:94:06:0f:1c:e2:50:df:29:44:
         f5:86:bf:32:38:95:6b:1b:79:72:d5:9a:e7:c7:56:a1:80:b2:
         b1:b7:df:5c:b0:51:b8:3f:be:4b:d2:cf:9b:bc:79:b5:b2:4b:
         a4:fa:65:6d:e8:0f:53:56:ae:a3:32:5e:a4:84:11:d4:4b:f8:
         d5:41:04:d5:47:e7:89:5c:1c:4f:7d:01:8e:13:5d:c2:47:7f:
         2d:0b:84:d8:d7:4c:e1:dc:09:df:89:7f:37:e9:cb:d6:0a:c8:
         c8:e0:83:e1:15:7c:7c:3c:35:f1:fb:b8:e4:ce:e9:a0:cd:6e:
         f4:9a:ef:43:e4:5f:de:3c:a8:7c:3b:33:2d:94:ee:f5:b2:5e:
         45:4e:d6:9b:08:41:01:a0:3c:32:d5:53:a0:5d:e0:82:76:01:
         2d:76:bd:31:74:91:e8:b8:ea:f6:0a:09:94:3d:f4:aa:90:ab:
         cd:ec:f2:a0
-----BEGIN CERTIFICATE-----
MIIEJjCCAw6gAwIBAgIEEAAAzTANBgkqhkiG9w0BAQUFADBEMQswCQYDVQQGEwJE
RTEPMA0GA1UECAwGSGVzc2VuMRQwEgYDVQQKDAtwcml2YWN5aWRlYTEOMAwGA1UE
AwwFQ0EwMDEwHhcNMTYwMzE1MTExNTA5WhcNMTcwMzE1MTExNTA5WjBUMQswCQYD
VQQGEwJERTEPMA0GA1UECAwGSGVzc2VuMRQwEgYDVQQKDAtwcml2YWN5aWRlYTEe
MBwGA1UEAwwVcmVxdWVzdGVyLmxvY2FsZG9tYWluMIIBIjANBgkqhkiG9w0BAQEF
AAOCAQ8AMIIBCgKCAQEAzb4UT/rOAT9CIhsdnK/dktJ/22y3PjlDQ2sTA/EF9Ad0
vHZpKAuvGY7X/OPNxljyyn8IbVP8BwJEJMa0NEyMBP4zDkDiILoCc1r39U9jbszG
tt9UHTc5fVE2Jl+93D+oi2uirrad1iHn30G4eigqaEjKqC3t4elGXlpybbSEOIeR
/ZQRCyiExsIvKvsB+TZ6CXXRM4g8c0FbyL+UiXCh8MC5LlBTHrEXZGn0LYHgqQ0O
Mum6VYqF8RtvSXm0f4jDDT5UiJs9HziMBPPuamMr9cbbtIOqxHhBOn1L4cg+ccob
YVnqxsTKMl7J6b8SKebGw2P+oFXaevFgmE0m7fpwLQIDAQABo4IBDjCCAQowCwYD
VR0PBAQDAgWgMAkGA1UdEwQCMAAwEQYJYIZIAYb4QgEBBAQDAgZAMDMGCWCGSAGG
+EIBDQQmFiRPcGVuU1NMIEdlbmVyYXRlZCBTZXJ2ZXIgQ2VydGlmaWNhdGUwHQYD
VR0OBBYEFFM/7V0JB7Nle6tFySRbCXeACpbtMHQGA1UdIwRtMGuAFPSnwMyRRq9k
85HyJ/jIsm+KhzJzoUikRjBEMQswCQYDVQQGEwJERTEPMA0GA1UECAwGSGVzc2Vu
MRQwEgYDVQQKDAtwcml2YWN5aWRlYTEOMAwGA1UEAwwFQ0EwMDGCCQD7yOusg80S
BzATBgNVHSUEDDAKBggrBgEFBQcDATANBgkqhkiG9w0BAQUFAAOCAQEAX1iij4J7
6EQrqbsOKlhUyBz4xjiHU2PA7XjYZOQrgERyiNnBc3JO7wQqSBcBYy6BdOWdqcIv
BMvC4M0XshVh7KH7nd8cMuB8uwA8TKQ1LHmHlAYPHOJQ3ylE9Ya/MjiVaxt5ctWa
58dWoYCysbffXLBRuD++S9LPm7x5tbJLpPplbegPU1auozJepIQR1Ev41UEE1Ufn
iVwcT30BjhNdwkd/LQuE2NdM4dwJ34l/N+nL1grIyOCD4RV8fDw18fu45M7poM1u
9JrvQ+Rf3jyofDszLZTu9bJeRU7WmwhBAaA8MtVToF3ggnYBLXa9MXSR6Ljq9goJ
lD30qpCrzezyoA==
-----END CERTIFICATE-----
