Certificate:
    Data:
        Version: 3 (0x2)
        Serial Number: 268435696 (0x100000f0)
    Signature Algorithm: sha1WithRSAEncryption
        Issuer: C=DE, ST=Hessen, O=privacyidea, CN=CA001
        Validity
            Not Before: Sep 20 17:18:16 2015 GMT
            Not After : Sep 19 17:18:16 2016 GMT
        Subject: C=DE, ST=Hessen, O=privacyidea, CN=usercert
        Subject Public Key Info:
            Public Key Algorithm: rsaEncryption
                Public-Key: (2048 bit)
                Modulus:
                    00:dc:2f:d1:5f:29:97:d4:7c:c3:53:c8:30:bd:4b:
                    67:70:2c:24:6b:b8:5e:eb:21:7a:48:12:56:7c:81:
                    5c:48:75:b6:68:eb:f6:f2:98:4e:50:51:d1:7f:6c:
                    73:f3:0a:a7:ae:be:48:5e:e5:d6:e1:d9:2a:7c:32:
                    6e:4e:fd:08:f6:5a:54:49:23:73:c3:b9:07:18:d1:
                    ef:b3:ac:f8:8a:dc:94:96:a4:90:3a:8e:74:df:e6:
                    0d:37:1b:bd:5b:b7:25:1a:56:39:da:6f:91:aa:5e:
                    1c:74:f3:f9:7c:14:01:83:12:65:76:c7:bb:fe:36:
                    5b:95:e9:72:65:83:ed:3e:98:30:71:fa:87:dd:a3:
                    36:5a:30:03:2e:26:e0:61:d1:bf:02:3f:b6:06:1f:
                    4a:89:28:1c:5c:a2:ff:4e:be:94:e6:8c:e0:da:82:
                    f1:9d:29:32:48:30:73:b4:04:f6:42:1e:be:f7:e2:
                    32:32:27:3c:9d:89:2f:70:3e:85:9a:6f:5c:c5:09:
                    c0:8c:32:2f:72:22:c9:d2:95:1f:b6:ac:72:60:72:
                    b7:82:4d:6b:ce:5b:e3:00:d0:d2:2f:58:c6:e0:10:
                    e5:51:ca:4d:3b:2e:e6:7e:ab:84:d6:56:f1:93:35:
                    a0:93:64:26:81:75:2f:91:b5:16:06:38:0b:db:cc:
                    2d:07
                Exponent: 65537 (0x10001)
        X509v3 extensions:
            X509v3 Key Usage: 
                Digital Signature, Key Encipherment
            X509v3 Basic Constraints: 
                CA:FALSE
            Netscape Cert Type: 
                SSL Server
            Netscape Comment: 
                OpenSSL Generated Server Certificate
            X509v3 Subject Key Identifier: 
                FC:14:D1:F0:4B:8D:00:90:F2:F5:B8:71:9E:4E:97:C3:92:54:AD:0B
            X509v3 Authority Key Identifier: 
                keyid:F4:A7:C0:CC:91:46:AF:64:F3:91:F2:27:F8:C8:B2:6F:8A:87:32:73
                DirName:/C=DE/ST=Hessen/O=privacyidea/CN=CA001
                serial:FB:C8:EB:AC:83:CD:12:07

            X509v3 Extended Key Usage: 
                TLS Web Server Authentication
    Signature Algorithm: sha1WithRSAEncryption
         70:b2:32:ee:c7:95:92:78:48:32:94:76:4f:f8:46:1a:30:a5:
         a3:10:b7:83:10:27:1c:42:b1:6d:a9:79:28:00:e5:ff:f7:3a:
         dd:8f:50:e1:09:2b:4c:df:de:07:ba:88:f0:03:1e:4a:67:5e:
         18:8c:5f:c1:f9:4b:7c:ee:82:40:15:97:96:62:f4:24:c3:41:
         c1:ef:6e:86:6b:53:7d:f9:44:56:6f:43:06:83:07:7b:16:41:
         57:a5:5c:42:c3:9d:24:5f:10:05:94:b1:d8:b0:17:59:df:84:
         7f:b0:a2:30:cd:e6:0e:0e:fa:7b:88:c7:56:d4:1e:a6:6e:0a:
         bb:f1:52:24:87:f2:61:cf:fa:90:d9:a0:98:e0:d2:02:9e:ef:
         6d:a2:02:e3:2f:f6:b9:35:76:af:88:8a:28:5b:9e:1a:43:85:
         01:43:2e:bf:85:13:7c:b3:33:0d:46:40:84:a4:6b:e7:8f:13:
         f8:89:67:8b:cf:06:63:a8:79:25:4d:d0:67:ef:54:04:ae:b1:
         86:8b:c3:38:83:aa:02:9f:e7:ef:04:55:7d:ab:43:1a:60:96:
         65:a3:6a:1a:2d:a7:65:21:de:2f:32:bc:77:71:4f:40:a6:27:
         00:98:70:30:c6:85:66:c9:5b:0c:33:08:ce:af:60:3c:92:f1:
         0b:09:e8:e2
-----BEGIN CERTIFICATE-----
MIIEGTCCAwGgAwIBAgIEEAAA8DANBgkqhkiG9w0BAQUFADBEMQswCQYDVQQGEwJE
RTEPMA0GA1UECAwGSGVzc2VuMRQwEgYDVQQKDAtwcml2YWN5aWRlYTEOMAwGA1UE
AwwFQ0EwMDEwHhcNMTUwOTIwMTcxODE2WhcNMTYwOTE5MTcxODE2WjBHMQswCQYD
VQQGEwJERTEPMA0GA1UECAwGSGVzc2VuMRQwEgYDVQQKDAtwcml2YWN5aWRlYTER
MA8GA1UEAwwIdXNlcmNlcnQwggEiMA0GCSqGSIb3DQEBAQUAA4IBDwAwggEKAoIB
AQDcL9FfKZfUfMNTyDC9S2dwLCRruF7rIXpIElZ8gVxIdbZo6/bymE5QUdF/bHPz
Cqeuvkhe5dbh2Sp8Mm5O/Qj2WlRJI3PDuQcY0e+zrPiK3JSWpJA6jnTf5g03G71b
tyUaVjnab5GqXhx08/l8FAGDEmV2x7v+NluV6XJlg+0+mDBx+ofdozZaMAMuJuBh
0b8CP7YGH0qJKBxcov9OvpTmjODagvGdKTJIMHO0BPZCHr734jIyJzydiS9wPoWa
b1zFCcCMMi9yIsnSlR+2rHJgcreCTWvOW+MA0NIvWMbgEOVRyk07LuZ+q4TWVvGT
NaCTZCaBdS+RtRYGOAvbzC0HAgMBAAGjggEOMIIBCjALBgNVHQ8EBAMCBaAwCQYD
VR0TBAIwADARBglghkgBhvhCAQEEBAMCBkAwMwYJYIZIAYb4QgENBCYWJE9wZW5T
U0wgR2VuZXJhdGVkIFNlcnZlciBDZXJ0aWZpY2F0ZTAdBgNVHQ4EFgQU/BTR8EuN
AJDy9bhxnk6Xw5JUrQswdAYDVR0jBG0wa4AU9KfAzJFGr2TzkfIn+Miyb4qHMnOh
SKRGMEQxCzAJBgNVBAYTAkRFMQ8wDQYDVQQIDAZIZXNzZW4xFDASBgNVBAoMC3By
aXZhY3lpZGVhMQ4wDAYDVQQDDAVDQTAwMYIJAPvI66yDzRIHMBMGA1UdJQQMMAoG
CCsGAQUFBwMBMA0GCSqGSIb3DQEBBQUAA4IBAQBwsjLux5WSeEgylHZP+EYaMKWj
ELeDECccQrFtqXkoAOX/9zrdj1DhCStM394HuojwAx5KZ14YjF/B+Ut87oJAFZeW
YvQkw0HB726Ga1N9+URWb0MGgwd7FkFXpVxCw50kXxAFlLHYsBdZ34R/sKIwzeYO
Dvp7iMdW1B6mbgq78VIkh/Jhz/qQ2aCY4NICnu9togLjL/a5NXaviIooW54aQ4UB
Qy6/hRN8szMNRkCEpGvnjxP4iWeLzwZjqHklTdBn71QErrGGi8M4g6oCn+fvBFV9
q0MaYJZlo2oaLadlId4vMrx3cU9ApicAmHAwxoVmyVsMMwjOr2A8kvELCeji
-----END CERTIFICATE-----
