Certificate:
    Data:
        Version: 3 (0x2)
        Serial Number: 268435656 (0x100000c8)
    Signature Algorithm: sha1WithRSAEncryption
        Issuer: C=DE, ST=Hessen, O=privacyidea, CN=CA001
        Validity
            Not Before: Mar 24 22:11:27 2016 GMT
            Not After : Mar 24 22:11:27 2017 GMT
        Subject: CN=selfservice,CN=user,O=realm1/emailAddress=meine
        Subject Public Key Info:
            Public Key Algorithm: rsaEncryption
                Public-Key: (2048 bit)
                Modulus:
                    00:cf:3c:d4:33:0e:12:c4:e6:da:cd:b6:56:a1:1c:
                    26:bb:26:1c:8a:4a:73:a8:58:8a:b6:1e:b3:8b:99:
                    d2:1d:07:c2:92:89:79:c0:69:d8:c8:df:28:61:98:
                    1e:b3:fe:ae:2b:bd:78:a9:f7:6e:47:dc:a3:a0:16:
                    8c:85:02:c1:4e:92:fd:72:6e:f0:c8:03:29:9b:b8:
                    00:6e:c0:83:95:c8:34:20:36:9c:b3:e5:e4:e6:76:
                    73:a3:1a:ad:40:96:e0:53:54:00:ec:76:79:9a:c6:
                    0d:7e:b6:bd:29:ec:83:f3:cb:89:a4:cb:6c:00:ba:
                    0c:c5:78:0f:ff:69:b8:94:f4:04:70:43:3f:d8:9e:
                    d7:a7:fb:5d:ce:75:8e:da:e7:c4:07:b1:9d:de:6f:
                    88:4b:b6:4d:9a:cf:f9:bc:fa:9f:cd:32:6d:f6:3a:
                    0b:0d:23:42:78:ec:97:42:bf:0e:4d:60:56:e1:d3:
                    02:f2:19:cb:84:57:90:e5:70:a1:a2:83:35:86:e2:
                    da:86:9f:f9:8a:c4:79:b3:52:28:da:cb:bb:34:ca:
                    d3:da:91:4a:cf:8d:76:a2:b2:6b:9b:f9:96:fd:09:
                    2a:da:11:23:4d:f0:cb:d6:b2:b1:0e:12:6c:9a:19:
                    65:98:87:ca:e4:ee:24:ce:44:ac:90:8f:9d:1b:c5:
                    2a:9d
                Exponent: 65537 (0x10001)
        X509v3 extensions:
            X509v3 Key Usage: 
                Digital Signature, Key Encipherment
            X509v3 Basic Constraints: 
                CA:FALSE
            Netscape Cert Type: 
                SSL Server
            Netscape Comment: 
                OpenSSL Generated Server Certificate
            X509v3 Subject Key Identifier: 
                4D:07:90:AD:FF:1D:0D:E7:1A:DD:D6:2E:FA:BA:34:CB:AA:1F:24:C6
            X509v3 Authority Key Identifier: 
                keyid:F4:A7:C0:CC:91:46:AF:64:F3:91:F2:27:F8:C8:B2:6F:8A:87:32:73
                DirName:/C=DE/ST=Hessen/O=privacyidea/CN=CA001
                serial:FB:C8:EB:AC:83:CD:12:07

            X509v3 Extended Key Usage: 
                TLS Web Server Authentication
    Signature Algorithm: sha1WithRSAEncryption
         3d:ef:30:36:ec:c3:dd:2f:3b:7d:a4:57:63:2d:83:2f:c7:00:
         4f:81:b6:94:ef:ce:29:af:2e:67:f6:b4:68:7b:a2:7c:b1:ae:
         7e:c6:4f:5f:6c:c5:52:da:a0:30:17:1f:1e:00:c0:b4:8e:9e:
         34:8c:10:ed:90:1c:e8:d4:37:18:ea:23:89:9f:87:7a:e2:fc:
         80:61:fd:68:53:53:93:0d:5e:34:35:4e:97:9d:53:8c:a6:d1:
         02:42:bd:cc:21:18:2a:76:c9:79:00:58:49:85:49:45:95:60:
         82:d7:ae:bf:ae:b6:74:59:1a:03:5c:a2:59:28:1f:df:2f:27:
         84:77:75:b0:5b:5d:b4:cc:33:64:e3:1c:08:d4:7b:f7:6d:1e:
         1b:bf:2d:2c:64:0d:39:ea:a6:85:4d:e5:db:5b:7a:c7:5f:66:
         3f:bc:db:86:0d:40:52:bd:2e:b9:3d:f1:c1:d4:a4:7d:54:02:
         33:41:56:e3:99:50:97:f6:29:14:2b:06:54:d2:fe:de:a4:23:
         ba:b6:6f:cb:f3:50:7c:5f:4c:49:e6:92:8a:55:b4:7e:8e:5e:
         95:d3:21:87:0e:9d:e7:e0:88:84:cd:53:65:0c:56:ea:b5:eb:
         fb:37:06:6d:76:99:8d:7a:61:e4:cc:ef:5f:55:7b:14:af:5e:
         48:e8:d2:d2
-----BEGIN CERTIFICATE-----
MIIEDzCCAvegAwIBAgIEEAAAyDANBgkqhkiG9w0BAQUFADBEMQswCQYDVQQGEwJE
RTEPMA0GA1UECAwGSGVzc2VuMRQwEgYDVQQKDAtwcml2YWN5aWRlYTEOMAwGA1UE
AwwFQ0EwMDEwHhcNMTYwMzI0MjIxMTI3WhcNMTcwMzI0MjIxMTI3WjA9MSUwIwYD
VQQDExxzZWxmc2VydmljZSxDTj11c2VyLE89cmVhbG0xMRQwEgYJKoZIhvcNAQkB
FgVtZWluZTCCASIwDQYJKoZIhvcNAQEBBQADggEPADCCAQoCggEBAM881DMOEsTm
2s22VqEcJrsmHIpKc6hYirYes4uZ0h0HwpKJecBp2MjfKGGYHrP+riu9eKn3bkfc
o6AWjIUCwU6S/XJu8MgDKZu4AG7Ag5XINCA2nLPl5OZ2c6MarUCW4FNUAOx2eZrG
DX62vSnsg/PLiaTLbAC6DMV4D/9puJT0BHBDP9ie16f7Xc51jtrnxAexnd5viEu2
TZrP+bz6n80ybfY6Cw0jQnjsl0K/Dk1gVuHTAvIZy4RXkOVwoaKDNYbi2oaf+YrE
ebNSKNrLuzTK09qRSs+NdqKya5v5lv0JKtoRI03wy9aysQ4SbJoZZZiHyuTuJM5E
rJCPnRvFKp0CAwEAAaOCAQ4wggEKMAsGA1UdDwQEAwIFoDAJBgNVHRMEAjAAMBEG
CWCGSAGG+EIBAQQEAwIGQDAzBglghkgBhvhCAQ0EJhYkT3BlblNTTCBHZW5lcmF0
ZWQgU2VydmVyIENlcnRpZmljYXRlMB0GA1UdDgQWBBRNB5Ct/x0N5xrd1i76ujTL
qh8kxjB0BgNVHSMEbTBrgBT0p8DMkUavZPOR8if4yLJviocyc6FIpEYwRDELMAkG
A1UEBhMCREUxDzANBgNVBAgMBkhlc3NlbjEUMBIGA1UECgwLcHJpdmFjeWlkZWEx
DjAMBgNVBAMMBUNBMDAxggkA+8jrrIPNEgcwEwYDVR0lBAwwCgYIKwYBBQUHAwEw
DQYJKoZIhvcNAQEFBQADggEBAD3vMDbsw90vO32kV2Mtgy/HAE+BtpTvzimvLmf2
tGh7onyxrn7GT19sxVLaoDAXHx4AwLSOnjSMEO2QHOjUNxjqI4mfh3ri/IBh/WhT
U5MNXjQ1TpedU4ym0QJCvcwhGCp2yXkAWEmFSUWVYILXrr+utnRZGgNcolkoH98v
J4R3dbBbXbTMM2TjHAjUe/dtHhu/LSxkDTnqpoVN5dtbesdfZj+824YNQFK9Lrk9
8cHUpH1UAjNBVuOZUJf2KRQrBlTS/t6kI7q2b8vzUHxfTEnmkopVtH6OXpXTIYcO
nefgiITNU2UMVuq16/s3Bm12mY16YeTM719VexSvXkjo0tI=
-----END CERTIFICATE-----
