Certificate:
    Data:
        Version: 3 (0x2)
        Serial Number: 268435684 (0x100000e4)
    Signature Algorithm: sha1WithRSAEncryption
        Issuer: C=DE, ST=Hessen, O=privacyidea, CN=CA001
        Validity
            Not Before: Sep 20 16:44:50 2015 GMT
            Not After : Sep 19 16:44:50 2016 GMT
        Subject: C=DE, ST=Hessen, O=privacyidea, CN=requester.localdomain
        Subject Public Key Info:
            Public Key Algorithm: rsaEncryption
                Public-Key: (2048 bit)
                Modulus:
                    00:cd:be:14:4f:fa:ce:01:3f:42:22:1b:1d:9c:af:
                    dd:92:d2:7f:db:6c:b7:3e:39:43:43:6b:13:03:f1:
                    05:f4:07:74:bc:76:69:28:0b:af:19:8e:d7:fc:e3:
                    cd:c6:58:f2:ca:7f:08:6d:53:fc:07:02:44:24:c6:
                    b4:34:4c:8c:04:fe:33:0e:40:e2:20:ba:02:73:5a:
                    f7:f5:4f:63:6e:cc:c6:b6:df:54:1d:37:39:7d:51:
                    36:26:5f:bd:dc:3f:a8:8b:6b:a2:ae:b6:9d:d6:21:
                    e7:df:41:b8:7a:28:2a:68:48:ca:a8:2d:ed:e1:e9:
                    46:5e:5a:72:6d:b4:84:38:87:91:fd:94:11:0b:28:
                    84:c6:c2:2f:2a:fb:01:f9:36:7a:09:75:d1:33:88:
                    3c:73:41:5b:c8:bf:94:89:70:a1:f0:c0:b9:2e:50:
                    53:1e:b1:17:64:69:f4:2d:81:e0:a9:0d:0e:32:e9:
                    ba:55:8a:85:f1:1b:6f:49:79:b4:7f:88:c3:0d:3e:
                    54:88:9b:3d:1f:38:8c:04:f3:ee:6a:63:2b:f5:c6:
                    db:b4:83:aa:c4:78:41:3a:7d:4b:e1:c8:3e:71:ca:
                    1b:61:59:ea:c6:c4:ca:32:5e:c9:e9:bf:12:29:e6:
                    c6:c3:63:fe:a0:55:da:7a:f1:60:98:4d:26:ed:fa:
                    70:2d
                Exponent: 65537 (0x10001)
        X509v3 extensions:
            X509v3 Key Usage: 
                Digital Signature, Key Encipherment
            X509v3 Basic Constraints: 
                CA:FALSE
            Netscape Cert Type: 
                SSL Server
            Netscape Comment: 
                OpenSSL Generated Server Certificate
            X509v3 Subject Key Identifier: 
                53:3F:ED:5D:09:07:B3:65:7B:AB:45:C9:24:5B:09:77:80:0A:96:ED
            X509v3 Authority Key Identifier: 
                keyid:F4:A7:C0:CC:91:46:AF:64:F3:91:F2:27:F8:C8:B2:6F:8A:87:32:73
                DirName:/C=DE/ST=Hessen/O=privacyidea/CN=CA001
                serial:FB:C8:EB:AC:83:CD:12:07

            X509v3 Extended Key Usage: 
                TLS Web Server Authentication
    Signature Algorithm: sha1WithRSAEncryption
         12:8e:d3:20:b5:d8:8c:1f:5d:87:35:cd:6e:e5:97:98:11:af:
         c2:f5:fd:2c:40:21:f9:97:9a:4c:67:8a:eb:8d:62:ad:41:63:
         08:fb:59:e7:0a:19:e6:f5:2b:75:39:2c:b9:91:60:8e:4f:82:
         42:3d:0b:b7:bb:42:1b:d1:4e:ff:87:28:51:29:55:65:9f:d8:
         5b:bb:e0:ba:14:f8:a6:5b:2c:9f:ea:a8:88:d7:a5:c4:1e:79:
         30:03:9c:b7:85:66:5d:2b:6a:21:bd:af:29:44:ae:0f:20:c3:
         19:84:5d:2b:e2:3b:09:60:39:10:bd:33:8d:3f:5a:10:53:79:
         80:df:e7:db:7a:e6:e4:b2:1e:25:a9:87:5d:9a:e1:48:cc:93:
         85:c2:95:96:3b:99:f1:4e:24:ea:4a:ad:89:5e:91:ca:99:83:
         ea:d7:1d:45:8d:40:c2:b4:6b:52:c3:59:2e:47:b9:1f:d6:6f:
         75:b2:7b:96:c1:6c:d7:3d:e8:f6:3a:43:8d:3e:27:e1:a6:88:
         cf:f1:e1:44:50:91:99:34:bd:cd:f3:82:69:4f:3f:34:58:3c:
         56:8f:0b:01:d6:86:c2:70:d5:0d:37:fc:7b:45:0a:b5:c7:48:
         13:8f:33:a7:ec:81:36:1f:9e:71:24:dc:17:50:d6:7f:fc:ec:
         9b:74:b8:fa
-----BEGIN CERTIFICATE-----
MIIEJjCCAw6gAwIBAgIEEAAA5DANBgkqhkiG9w0BAQUFADBEMQswCQYDVQQGEwJE
RTEPMA0GA1UECAwGSGVzc2VuMRQwEgYDVQQKDAtwcml2YWN5aWRlYTEOMAwGA1UE
AwwFQ0EwMDEwHhcNMTUwOTIwMTY0NDUwWhcNMTYwOTE5MTY0NDUwWjBUMQswCQYD
VQQGEwJERTEPMA0GA1UECAwGSGVzc2VuMRQwEgYDVQQKDAtwcml2YWN5aWRlYTEe
MBwGA1UEAwwVcmVxdWVzdGVyLmxvY2FsZG9tYWluMIIBIjANBgkqhkiG9w0BAQEF
AAOCAQ8AMIIBCgKCAQEAzb4UT/rOAT9CIhsdnK/dktJ/22y3PjlDQ2sTA/EF9Ad0
vHZpKAuvGY7X/OPNxljyyn8IbVP8BwJEJMa0NEyMBP4zDkDiILoCc1r39U9jbszG
tt9UHTc5fVE2Jl+93D+oi2uirrad1iHn30G4eigqaEjKqC3t4elGXlpybbSEOIeR
/ZQRCyiExsIvKvsB+TZ6CXXRM4g8c0FbyL+UiXCh8MC5LlBTHrEXZGn0LYHgqQ0O
Mum6VYqF8RtvSXm0f4jDDT5UiJs9HziMBPPuamMr9cbbtIOqxHhBOn1L4cg+ccob
YVnqxsTKMl7J6b8SKebGw2P+oFXaevFgmE0m7fpwLQIDAQABo4IBDjCCAQowCwYD
VR0PBAQDAgWgMAkGA1UdEwQCMAAwEQYJYIZIAYb4QgEBBAQDAgZAMDMGCWCGSAGG
+EIBDQQmFiRPcGVuU1NMIEdlbmVyYXRlZCBTZXJ2ZXIgQ2VydGlmaWNhdGUwHQYD
VR0OBBYEFFM/7V0JB7Nle6tFySRbCXeACpbtMHQGA1UdIwRtMGuAFPSnwMyRRq9k
85HyJ/jIsm+KhzJzoUikRjBEMQswCQYDVQQGEwJERTEPMA0GA1UECAwGSGVzc2Vu
MRQwEgYDVQQKDAtwcml2YWN5aWRlYTEOMAwGA1UEAwwFQ0EwMDGCCQD7yOusg80S
BzATBgNVHSUEDDAKBggrBgEFBQcDATANBgkqhkiG9w0BAQUFAAOCAQEAEo7TILXY
jB9dhzXNbuWXmBGvwvX9LEAh+ZeaTGeK641irUFjCPtZ5woZ5vUrdTksuZFgjk+C
Qj0Lt7tCG9FO/4coUSlVZZ/YW7vguhT4plssn+qoiNelxB55MAOct4VmXStqIb2v
KUSuDyDDGYRdK+I7CWA5EL0zjT9aEFN5gN/n23rm5LIeJamHXZrhSMyThcKVljuZ
8U4k6kqtiV6RypmD6tcdRY1AwrRrUsNZLke5H9ZvdbJ7lsFs1z3o9jpDjT4n4aaI
z/HhRFCRmTS9zfOCaU8/NFg8Vo8LAdaGwnDVDTf8e0UKtcdIE48zp+yBNh+ecSTc
F1DWf/zsm3S4+g==
-----END CERTIFICATE-----
