Certificate:
    Data:
        Version: 3 (0x2)
        Serial Number: 268435660 (0x100000cc)
    Signature Algorithm: sha1WithRSAEncryption
        Issuer: C=DE, ST=Hessen, O=privacyidea, CN=CA001
        Validity
            Not Before: Mar 15 11:12:07 2016 GMT
            Not After : Mar 15 11:12:07 2017 GMT
        Subject: C=DE, ST=Hessen, O=privacyidea, CN=requester.localdomain
        Subject Public Key Info:
            Public Key Algorithm: rsaEncryption
                Public-Key: (2048 bit)
                Modulus:
                    00:cd:be:14:4f:fa:ce:01:3f:42:22:1b:1d:9c:af:
                    dd:92:d2:7f:db:6c:b7:3e:39:43:43:6b:13:03:f1:
                    05:f4:07:74:bc:76:69:28:0b:af:19:8e:d7:fc:e3:
                    cd:c6:58:f2:ca:7f:08:6d:53:fc:07:02:44:24:c6:
                    b4:34:4c:8c:04:fe:33:0e:40:e2:20:ba:02:73:5a:
                    f7:f5:4f:63:6e:cc:c6:b6:df:54:1d:37:39:7d:51:
                    36:26:5f:bd:dc:3f:a8:8b:6b:a2:ae:b6:9d:d6:21:
                    e7:df:41:b8:7a:28:2a:68:48:ca:a8:2d:ed:e1:e9:
                    46:5e:5a:72:6d:b4:84:38:87:91:fd:94:11:0b:28:
                    84:c6:c2:2f:2a:fb:01:f9:36:7a:09:75:d1:33:88:
                    3c:73:41:5b:c8:bf:94:89:70:a1:f0:c0:b9:2e:50:
                    53:1e:b1:17:64:69:f4:2d:81:e0:a9:0d:0e:32:e9:
                    ba:55:8a:85:f1:1b:6f:49:79:b4:7f:88:c3:0d:3e:
                    54:88:9b:3d:1f:38:8c:04:f3:ee:6a:63:2b:f5:c6:
                    db:b4:83:aa:c4:78:41:3a:7d:4b:e1:c8:3e:71:ca:
                    1b:61:59:ea:c6:c4:ca:32:5e:c9:e9:bf:12:29:e6:
                    c6:c3:63:fe:a0:55:da:7a:f1:60:98:4d:26:ed:fa:
                    70:2d
                Exponent: 65537 (0x10001)
        X509v3 extensions:
            X509v3 Key Usage: 
                Digital Signature, Key Encipherment
            X509v3 Basic Constraints: 
                CA:FALSE
            Netscape Cert Type: 
                SSL Server
            Netscape Comment: 
                OpenSSL Generated Server Certificate
            X509v3 Subject Key Identifier: 
                53:3F:ED:5D:09:07:B3:65:7B:AB:45:C9:24:5B:09:77:80:0A:96:ED
            X509v3 Authority Key Identifier: 
                keyid:F4:A7:C0:CC:91:46:AF:64:F3:91:F2:27:F8:C8:B2:6F:8A:87:32:73
                DirName:/C=DE/ST=Hessen/O=privacyidea/CN=CA001
                serial:FB:C8:EB:AC:83:CD:12:07

            X509v3 Extended Key Usage: 
                TLS Web Server Authentication
    Signature Algorithm: sha1WithRSAEncryption
         87:36:61:88:c5:1d:22:67:67:7f:14:a7:dc:83:b5:ad:cf:26:
         ee:5e:17:8d:da:a8:50:73:b3:13:4a:6b:ac:06:4b:3c:d8:32:
         e5:01:44:94:46:67:86:39:5f:d5:12:c4:fe:c5:4e:fd:1c:9f:
         e9:40:79:2a:89:c5:35:d0:73:3a:2f:9e:99:12:db:c5:fc:eb:
         60:95:d3:21:6d:60:56:1b:7c:47:fa:7a:2e:24:2b:a7:af:77:
         4d:dd:93:1f:21:a2:cc:4b:e7:43:48:84:01:2d:e7:25:a8:51:
         85:19:52:4c:72:da:cb:3f:82:6c:1c:62:1e:1b:61:52:c1:74:
         c9:15:d1:57:b1:de:16:d4:55:e1:e0:5f:b9:1e:72:55:0a:1e:
         a2:55:26:8d:c1:61:45:9e:82:7f:94:3f:58:46:aa:d8:12:43:
         cb:47:dd:a9:50:fb:8d:93:07:1d:0e:87:c7:4d:f4:93:6d:f0:
         07:f1:c6:3f:67:1d:35:d4:22:0f:65:90:95:ac:13:d2:40:31:
         06:13:14:17:1a:a7:1d:7a:54:c3:bc:8c:00:79:fa:d6:f9:b0:
         d6:45:1a:fa:6c:b2:56:23:ea:cd:e5:7e:5a:46:e6:3d:45:b7:
         e6:3e:5c:9c:79:88:ae:67:5d:69:96:1e:ae:6c:b5:22:26:a5:
         92:4e:23:e9
-----BEGIN CERTIFICATE-----
MIIEJjCCAw6gAwIBAgIEEAAAzDANBgkqhkiG9w0BAQUFADBEMQswCQYDVQQGEwJE
RTEPMA0GA1UECAwGSGVzc2VuMRQwEgYDVQQKDAtwcml2YWN5aWRlYTEOMAwGA1UE
AwwFQ0EwMDEwHhcNMTYwMzE1MTExMjA3WhcNMTcwMzE1MTExMjA3WjBUMQswCQYD
VQQGEwJERTEPMA0GA1UECAwGSGVzc2VuMRQwEgYDVQQKDAtwcml2YWN5aWRlYTEe
MBwGA1UEAwwVcmVxdWVzdGVyLmxvY2FsZG9tYWluMIIBIjANBgkqhkiG9w0BAQEF
AAOCAQ8AMIIBCgKCAQEAzb4UT/rOAT9CIhsdnK/dktJ/22y3PjlDQ2sTA/EF9Ad0
vHZpKAuvGY7X/OPNxljyyn8IbVP8BwJEJMa0NEyMBP4zDkDiILoCc1r39U9jbszG
tt9UHTc5fVE2Jl+93D+oi2uirrad1iHn30G4eigqaEjKqC3t4elGXlpybbSEOIeR
/ZQRCyiExsIvKvsB+TZ6CXXRM4g8c0FbyL+UiXCh8MC5LlBTHrEXZGn0LYHgqQ0O
Mum6VYqF8RtvSXm0f4jDDT5UiJs9HziMBPPuamMr9cbbtIOqxHhBOn1L4cg+ccob
YVnqxsTKMl7J6b8SKebGw2P+oFXaevFgmE0m7fpwLQIDAQABo4IBDjCCAQowCwYD
VR0PBAQDAgWgMAkGA1UdEwQCMAAwEQYJYIZIAYb4QgEBBAQDAgZAMDMGCWCGSAGG
+EIBDQQmFiRPcGVuU1NMIEdlbmVyYXRlZCBTZXJ2ZXIgQ2VydGlmaWNhdGUwHQYD
VR0OBBYEFFM/7V0JB7Nle6tFySRbCXeACpbtMHQGA1UdIwRtMGuAFPSnwMyRRq9k
85HyJ/jIsm+KhzJzoUikRjBEMQswCQYDVQQGEwJERTEPMA0GA1UECAwGSGVzc2Vu
MRQwEgYDVQQKDAtwcml2YWN5aWRlYTEOMAwGA1UEAwwFQ0EwMDGCCQD7yOusg80S
BzATBgNVHSUEDDAKBggrBgEFBQcDATANBgkqhkiG9w0BAQUFAAOCAQEAhzZhiMUd
ImdnfxSn3IO1rc8m7l4XjdqoUHOzE0prrAZLPNgy5QFElEZnhjlf1RLE/sVO/Ryf
6UB5KonFNdBzOi+emRLbxfzrYJXTIW1gVht8R/p6LiQrp693Td2THyGizEvnQ0iE
AS3nJahRhRlSTHLayz+CbBxiHhthUsF0yRXRV7HeFtRV4eBfuR5yVQoeolUmjcFh
RZ6Cf5Q/WEaq2BJDy0fdqVD7jZMHHQ6Hx030k23wB/HGP2cdNdQiD2WQlawT0kAx
BhMUFxqnHXpUw7yMAHn61vmw1kUa+myyViPqzeV+WkbmPUW35j5cnHmIrmddaZYe
rmy1Iialkk4j6Q==
-----END CERTIFICATE-----
