Certificate:
    Data:
        Version: 3 (0x2)
        Serial Number: 268435671 (0x100000d7)
    Signature Algorithm: sha1WithRSAEncryption
        Issuer: C=DE, ST=Hessen, O=privacyidea, CN=CA001
        Validity
            Not Before: Sep 20 15:48:45 2015 GMT
            Not After : Sep 19 15:48:45 2016 GMT
        Subject: C=DE, ST=Hessen, O=privacyidea, CN=requester.localdomain
        Subject Public Key Info:
            Public Key Algorithm: rsaEncryption
                Public-Key: (2048 bit)
                Modulus:
                    00:cd:be:14:4f:fa:ce:01:3f:42:22:1b:1d:9c:af:
                    dd:92:d2:7f:db:6c:b7:3e:39:43:43:6b:13:03:f1:
                    05:f4:07:74:bc:76:69:28:0b:af:19:8e:d7:fc:e3:
                    cd:c6:58:f2:ca:7f:08:6d:53:fc:07:02:44:24:c6:
                    b4:34:4c:8c:04:fe:33:0e:40:e2:20:ba:02:73:5a:
                    f7:f5:4f:63:6e:cc:c6:b6:df:54:1d:37:39:7d:51:
                    36:26:5f:bd:dc:3f:a8:8b:6b:a2:ae:b6:9d:d6:21:
                    e7:df:41:b8:7a:28:2a:68:48:ca:a8:2d:ed:e1:e9:
                    46:5e:5a:72:6d:b4:84:38:87:91:fd:94:11:0b:28:
                    84:c6:c2:2f:2a:fb:01:f9:36:7a:09:75:d1:33:88:
                    3c:73:41:5b:c8:bf:94:89:70:a1:f0:c0:b9:2e:50:
                    53:1e:b1:17:64:69:f4:2d:81:e0:a9:0d:0e:32:e9:
                    ba:55:8a:85:f1:1b:6f:49:79:b4:7f:88:c3:0d:3e:
                    54:88:9b:3d:1f:38:8c:04:f3:ee:6a:63:2b:f5:c6:
                    db:b4:83:aa:c4:78:41:3a:7d:4b:e1:c8:3e:71:ca:
                    1b:61:59:ea:c6:c4:ca:32:5e:c9:e9:bf:12:29:e6:
                    c6:c3:63:fe:a0:55:da:7a:f1:60:98:4d:26:ed:fa:
                    70:2d
                Exponent: 65537 (0x10001)
        X509v3 extensions:
            X509v3 Key Usage: 
                Digital Signature, Key Encipherment
            X509v3 Basic Constraints: 
                CA:FALSE
            Netscape Cert Type: 
                SSL Server
            Netscape Comment: 
                OpenSSL Generated Server Certificate
            X509v3 Subject Key Identifier: 
                53:3F:ED:5D:09:07:B3:65:7B:AB:45:C9:24:5B:09:77:80:0A:96:ED
            X509v3 Authority Key Identifier: 
                keyid:F4:A7:C0:CC:91:46:AF:64:F3:91:F2:27:F8:C8:B2:6F:8A:87:32:73
                DirName:/C=DE/ST=Hessen/O=privacyidea/CN=CA001
                serial:FB:C8:EB:AC:83:CD:12:07

            X509v3 Extended Key Usage: 
                TLS Web Server Authentication
    Signature Algorithm: sha1WithRSAEncryption
         94:7e:41:15:62:68:b4:77:aa:4d:0e:79:56:68:9b:4d:6e:7e:
         1c:ac:1e:60:66:38:37:cf:21:b5:09:00:64:38:4c:64:ac:b1:
         c2:51:9a:57:4e:bd:89:4e:07:fd:24:28:db:88:11:34:92:e4:
         cc:53:f4:40:da:a4:fd:cb:26:33:0f:16:f6:e1:ca:0a:0d:2f:
         f2:29:57:f9:86:64:a4:0a:4f:da:5c:67:1b:83:b2:b5:06:80:
         81:cb:19:95:1b:79:40:96:dc:5e:90:65:86:4e:fe:14:88:79:
         e2:cc:9d:ae:8e:31:af:e9:8c:1c:76:3e:d7:a5:84:b5:d8:c8:
         a4:e4:4e:7d:46:0e:9f:95:f2:2a:91:d0:25:c7:4b:66:bb:03:
         86:df:99:41:27:b5:c7:af:cd:84:02:6f:9e:d5:3f:a4:2c:83:
         e6:49:ca:c6:94:6d:f0:a7:c0:c2:e6:e0:73:e0:51:06:71:6a:
         22:d8:57:af:c5:41:b7:a5:5a:19:50:07:a4:b8:4c:41:e1:80:
         57:a0:4c:51:69:7b:71:15:fc:a2:49:ae:7a:e1:ef:e4:91:18:
         6e:0b:83:2d:8a:49:1a:ac:9d:ad:7e:6b:82:fb:46:4b:fe:fd:
         2c:ea:91:36:1d:67:23:f3:f8:e8:ee:c8:4c:5d:ca:f8:00:fd:
         03:04:b5:68
-----BEGIN CERTIFICATE-----
MIIEJjCCAw6gAwIBAgIEEAAA1zANBgkqhkiG9w0BAQUFADBEMQswCQYDVQQGEwJE
RTEPMA0GA1UECAwGSGVzc2VuMRQwEgYDVQQKDAtwcml2YWN5aWRlYTEOMAwGA1UE
AwwFQ0EwMDEwHhcNMTUwOTIwMTU0ODQ1WhcNMTYwOTE5MTU0ODQ1WjBUMQswCQYD
VQQGEwJERTEPMA0GA1UECAwGSGVzc2VuMRQwEgYDVQQKDAtwcml2YWN5aWRlYTEe
MBwGA1UEAwwVcmVxdWVzdGVyLmxvY2FsZG9tYWluMIIBIjANBgkqhkiG9w0BAQEF
AAOCAQ8AMIIBCgKCAQEAzb4UT/rOAT9CIhsdnK/dktJ/22y3PjlDQ2sTA/EF9Ad0
vHZpKAuvGY7X/OPNxljyyn8IbVP8BwJEJMa0NEyMBP4zDkDiILoCc1r39U9jbszG
tt9UHTc5fVE2Jl+93D+oi2uirrad1iHn30G4eigqaEjKqC3t4elGXlpybbSEOIeR
/ZQRCyiExsIvKvsB+TZ6CXXRM4g8c0FbyL+UiXCh8MC5LlBTHrEXZGn0LYHgqQ0O
Mum6VYqF8RtvSXm0f4jDDT5UiJs9HziMBPPuamMr9cbbtIOqxHhBOn1L4cg+ccob
YVnqxsTKMl7J6b8SKebGw2P+oFXaevFgmE0m7fpwLQIDAQABo4IBDjCCAQowCwYD
VR0PBAQDAgWgMAkGA1UdEwQCMAAwEQYJYIZIAYb4QgEBBAQDAgZAMDMGCWCGSAGG
+EIBDQQmFiRPcGVuU1NMIEdlbmVyYXRlZCBTZXJ2ZXIgQ2VydGlmaWNhdGUwHQYD
VR0OBBYEFFM/7V0JB7Nle6tFySRbCXeACpbtMHQGA1UdIwRtMGuAFPSnwMyRRq9k
85HyJ/jIsm+KhzJzoUikRjBEMQswCQYDVQQGEwJERTEPMA0GA1UECAwGSGVzc2Vu
MRQwEgYDVQQKDAtwcml2YWN5aWRlYTEOMAwGA1UEAwwFQ0EwMDGCCQD7yOusg80S
BzATBgNVHSUEDDAKBggrBgEFBQcDATANBgkqhkiG9w0BAQUFAAOCAQEAlH5BFWJo
tHeqTQ55VmibTW5+HKweYGY4N88htQkAZDhMZKyxwlGaV069iU4H/SQo24gRNJLk
zFP0QNqk/csmMw8W9uHKCg0v8ilX+YZkpApP2lxnG4OytQaAgcsZlRt5QJbcXpBl
hk7+FIh54sydro4xr+mMHHY+16WEtdjIpOROfUYOn5XyKpHQJcdLZrsDht+ZQSe1
x6/NhAJvntU/pCyD5knKxpRt8KfAwubgc+BRBnFqIthXr8VBt6VaGVAHpLhMQeGA
V6BMUWl7cRX8okmueuHv5JEYbguDLYpJGqydrX5rgvtGS/79LOqRNh1nI/P46O7I
TF3K+AD9AwS1aA==
-----END CERTIFICATE-----
