Certificate:
    Data:
        Version: 3 (0x2)
        Serial Number: 268435694 (0x100000ee)
    Signature Algorithm: sha1WithRSAEncryption
        Issuer: C=DE, ST=Hessen, O=privacyidea, CN=CA001
        Validity
            Not Before: Sep 20 17:17:48 2015 GMT
            Not After : Sep 19 17:17:48 2016 GMT
        Subject: C=DE, ST=Hessen, O=privacyidea, CN=requester.localdomain
        Subject Public Key Info:
            Public Key Algorithm: rsaEncryption
                Public-Key: (2048 bit)
                Modulus:
                    00:cd:be:14:4f:fa:ce:01:3f:42:22:1b:1d:9c:af:
                    dd:92:d2:7f:db:6c:b7:3e:39:43:43:6b:13:03:f1:
                    05:f4:07:74:bc:76:69:28:0b:af:19:8e:d7:fc:e3:
                    cd:c6:58:f2:ca:7f:08:6d:53:fc:07:02:44:24:c6:
                    b4:34:4c:8c:04:fe:33:0e:40:e2:20:ba:02:73:5a:
                    f7:f5:4f:63:6e:cc:c6:b6:df:54:1d:37:39:7d:51:
                    36:26:5f:bd:dc:3f:a8:8b:6b:a2:ae:b6:9d:d6:21:
                    e7:df:41:b8:7a:28:2a:68:48:ca:a8:2d:ed:e1:e9:
                    46:5e:5a:72:6d:b4:84:38:87:91:fd:94:11:0b:28:
                    84:c6:c2:2f:2a:fb:01:f9:36:7a:09:75:d1:33:88:
                    3c:73:41:5b:c8:bf:94:89:70:a1:f0:c0:b9:2e:50:
                    53:1e:b1:17:64:69:f4:2d:81:e0:a9:0d:0e:32:e9:
                    ba:55:8a:85:f1:1b:6f:49:79:b4:7f:88:c3:0d:3e:
                    54:88:9b:3d:1f:38:8c:04:f3:ee:6a:63:2b:f5:c6:
                    db:b4:83:aa:c4:78:41:3a:7d:4b:e1:c8:3e:71:ca:
                    1b:61:59:ea:c6:c4:ca:32:5e:c9:e9:bf:12:29:e6:
                    c6:c3:63:fe:a0:55:da:7a:f1:60:98:4d:26:ed:fa:
                    70:2d
                Exponent: 65537 (0x10001)
        X509v3 extensions:
            X509v3 Key Usage: 
                Digital Signature, Key Encipherment
            X509v3 Basic Constraints: 
                CA:FALSE
            Netscape Cert Type: 
                SSL Server
            Netscape Comment: 
                OpenSSL Generated Server Certificate
            X509v3 Subject Key Identifier: 
                53:3F:ED:5D:09:07:B3:65:7B:AB:45:C9:24:5B:09:77:80:0A:96:ED
            X509v3 Authority Key Identifier: 
                keyid:F4:A7:C0:CC:91:46:AF:64:F3:91:F2:27:F8:C8:B2:6F:8A:87:32:73
                DirName:/C=DE/ST=Hessen/O=privacyidea/CN=CA001
                serial:FB:C8:EB:AC:83:CD:12:07

            X509v3 Extended Key Usage: 
                TLS Web Server Authentication
    Signature Algorithm: sha1WithRSAEncryption
         51:96:bf:4d:70:b7:79:25:fa:24:38:72:d3:d1:6d:4e:43:b9:
         16:ea:13:e3:b1:ad:8b:19:1c:45:66:ea:d9:a6:b7:72:34:ab:
         b5:bc:12:4a:b7:29:72:bd:61:ea:62:16:50:21:3e:20:61:85:
         fe:d9:12:b6:3b:db:b2:a4:7d:67:43:47:94:31:cb:ef:8e:58:
         d7:f0:16:43:5b:19:4a:94:d4:3d:e3:b1:0c:0f:ae:8e:6a:0c:
         93:16:fc:f4:d1:6f:68:b5:5d:8e:0f:ab:17:c9:e2:c7:0f:45:
         55:08:ee:19:04:a6:7e:51:ad:1f:8a:69:6c:1a:df:c0:95:6c:
         e1:5e:d9:36:db:f1:75:93:1e:06:b9:70:7d:5f:1d:a0:d8:f9:
         f9:53:37:93:41:f4:ca:02:8c:89:5a:0f:c6:53:f3:06:05:48:
         48:69:fe:87:b5:a2:14:21:bd:47:2e:d4:78:3e:e5:ac:ee:61:
         00:d6:34:e2:eb:ca:d5:5a:e6:b8:10:a4:15:21:3b:ef:0b:27:
         71:78:6f:dd:3a:02:f5:7e:1b:78:e9:15:65:7c:0c:cf:77:b8:
         db:b1:48:df:dd:55:8b:97:8e:6f:3b:63:e0:38:d3:d7:eb:8a:
         91:3f:b1:b7:80:e3:43:33:ba:7c:e3:26:7c:01:9f:b1:4b:bc:
         15:c5:48:c4
-----BEGIN CERTIFICATE-----
MIIEJjCCAw6gAwIBAgIEEAAA7jANBgkqhkiG9w0BAQUFADBEMQswCQYDVQQGEwJE
RTEPMA0GA1UECAwGSGVzc2VuMRQwEgYDVQQKDAtwcml2YWN5aWRlYTEOMAwGA1UE
AwwFQ0EwMDEwHhcNMTUwOTIwMTcxNzQ4WhcNMTYwOTE5MTcxNzQ4WjBUMQswCQYD
VQQGEwJERTEPMA0GA1UECAwGSGVzc2VuMRQwEgYDVQQKDAtwcml2YWN5aWRlYTEe
MBwGA1UEAwwVcmVxdWVzdGVyLmxvY2FsZG9tYWluMIIBIjANBgkqhkiG9w0BAQEF
AAOCAQ8AMIIBCgKCAQEAzb4UT/rOAT9CIhsdnK/dktJ/22y3PjlDQ2sTA/EF9Ad0
vHZpKAuvGY7X/OPNxljyyn8IbVP8BwJEJMa0NEyMBP4zDkDiILoCc1r39U9jbszG
tt9UHTc5fVE2Jl+93D+oi2uirrad1iHn30G4eigqaEjKqC3t4elGXlpybbSEOIeR
/ZQRCyiExsIvKvsB+TZ6CXXRM4g8c0FbyL+UiXCh8MC5LlBTHrEXZGn0LYHgqQ0O
Mum6VYqF8RtvSXm0f4jDDT5UiJs9HziMBPPuamMr9cbbtIOqxHhBOn1L4cg+ccob
YVnqxsTKMl7J6b8SKebGw2P+oFXaevFgmE0m7fpwLQIDAQABo4IBDjCCAQowCwYD
VR0PBAQDAgWgMAkGA1UdEwQCMAAwEQYJYIZIAYb4QgEBBAQDAgZAMDMGCWCGSAGG
+EIBDQQmFiRPcGVuU1NMIEdlbmVyYXRlZCBTZXJ2ZXIgQ2VydGlmaWNhdGUwHQYD
VR0OBBYEFFM/7V0JB7Nle6tFySRbCXeACpbtMHQGA1UdIwRtMGuAFPSnwMyRRq9k
85HyJ/jIsm+KhzJzoUikRjBEMQswCQYDVQQGEwJERTEPMA0GA1UECAwGSGVzc2Vu
MRQwEgYDVQQKDAtwcml2YWN5aWRlYTEOMAwGA1UEAwwFQ0EwMDGCCQD7yOusg80S
BzATBgNVHSUEDDAKBggrBgEFBQcDATANBgkqhkiG9w0BAQUFAAOCAQEAUZa/TXC3
eSX6JDhy09FtTkO5FuoT47GtixkcRWbq2aa3cjSrtbwSSrcpcr1h6mIWUCE+IGGF
/tkStjvbsqR9Z0NHlDHL745Y1/AWQ1sZSpTUPeOxDA+ujmoMkxb89NFvaLVdjg+r
F8nixw9FVQjuGQSmflGtH4ppbBrfwJVs4V7ZNtvxdZMeBrlwfV8doNj5+VM3k0H0
ygKMiVoPxlPzBgVISGn+h7WiFCG9Ry7UeD7lrO5hANY04uvK1VrmuBCkFSE77wsn
cXhv3ToC9X4beOkVZXwMz3e427FI391Vi5eObztj4DjT1+uKkT+xt4DjQzO6fOMm
fAGfsUu8FcVIxA==
-----END CERTIFICATE-----
