Certificate:
    Data:
        Version: 3 (0x2)
        Serial Number: 268435677 (0x100000dd)
    Signature Algorithm: sha1WithRSAEncryption
        Issuer: C=DE, ST=Hessen, O=privacyidea, CN=CA001
        Validity
            Not Before: Sep 20 15:55:24 2015 GMT
            Not After : Sep 19 15:55:24 2016 GMT
        Subject: C=DE, ST=Hessen, O=privacyidea, CN=requester.localdomain
        Subject Public Key Info:
            Public Key Algorithm: rsaEncryption
                Public-Key: (2048 bit)
                Modulus:
                    00:cd:be:14:4f:fa:ce:01:3f:42:22:1b:1d:9c:af:
                    dd:92:d2:7f:db:6c:b7:3e:39:43:43:6b:13:03:f1:
                    05:f4:07:74:bc:76:69:28:0b:af:19:8e:d7:fc:e3:
                    cd:c6:58:f2:ca:7f:08:6d:53:fc:07:02:44:24:c6:
                    b4:34:4c:8c:04:fe:33:0e:40:e2:20:ba:02:73:5a:
                    f7:f5:4f:63:6e:cc:c6:b6:df:54:1d:37:39:7d:51:
                    36:26:5f:bd:dc:3f:a8:8b:6b:a2:ae:b6:9d:d6:21:
                    e7:df:41:b8:7a:28:2a:68:48:ca:a8:2d:ed:e1:e9:
                    46:5e:5a:72:6d:b4:84:38:87:91:fd:94:11:0b:28:
                    84:c6:c2:2f:2a:fb:01:f9:36:7a:09:75:d1:33:88:
                    3c:73:41:5b:c8:bf:94:89:70:a1:f0:c0:b9:2e:50:
                    53:1e:b1:17:64:69:f4:2d:81:e0:a9:0d:0e:32:e9:
                    ba:55:8a:85:f1:1b:6f:49:79:b4:7f:88:c3:0d:3e:
                    54:88:9b:3d:1f:38:8c:04:f3:ee:6a:63:2b:f5:c6:
                    db:b4:83:aa:c4:78:41:3a:7d:4b:e1:c8:3e:71:ca:
                    1b:61:59:ea:c6:c4:ca:32:5e:c9:e9:bf:12:29:e6:
                    c6:c3:63:fe:a0:55:da:7a:f1:60:98:4d:26:ed:fa:
                    70:2d
                Exponent: 65537 (0x10001)
        X509v3 extensions:
            X509v3 Key Usage: 
                Digital Signature, Key Encipherment
            X509v3 Basic Constraints: 
                CA:FALSE
            Netscape Cert Type: 
                SSL Server
            Netscape Comment: 
                OpenSSL Generated Server Certificate
            X509v3 Subject Key Identifier: 
                53:3F:ED:5D:09:07:B3:65:7B:AB:45:C9:24:5B:09:77:80:0A:96:ED
            X509v3 Authority Key Identifier: 
                keyid:F4:A7:C0:CC:91:46:AF:64:F3:91:F2:27:F8:C8:B2:6F:8A:87:32:73
                DirName:/C=DE/ST=Hessen/O=privacyidea/CN=CA001
                serial:FB:C8:EB:AC:83:CD:12:07

            X509v3 Extended Key Usage: 
                TLS Web Server Authentication
    Signature Algorithm: sha1WithRSAEncryption
         b0:61:02:19:83:3a:31:0d:b6:08:26:b8:e4:1b:b4:c0:6b:39:
         02:1f:0a:8d:e7:5b:dd:24:3f:75:54:69:6d:76:93:35:f5:43:
         f6:30:79:a8:ad:c2:55:e8:fa:d3:4c:5e:b2:4e:67:48:50:ff:
         42:82:f1:01:21:15:63:53:53:3c:63:9b:5c:55:a8:1f:35:79:
         a7:70:30:74:ee:ef:47:60:13:b5:9c:35:d2:c2:7d:f4:59:68:
         d1:b4:99:ab:18:02:71:7e:95:46:b5:ae:5d:6e:88:c7:61:88:
         cc:99:f8:c9:84:47:37:f5:9a:58:a8:d9:59:cc:17:c2:38:cb:
         a8:11:b4:86:ef:4c:f5:9a:98:d5:d7:f1:6a:b9:4a:9a:c3:4e:
         9e:47:c0:83:00:b6:9b:fa:df:09:18:7f:64:69:58:4a:b0:af:
         b6:2e:1a:ca:b9:8d:ef:1d:f0:c1:4e:cd:52:79:8f:37:c1:01:
         2a:09:2c:f7:fc:b7:cb:a9:7b:8c:73:23:53:6a:88:a4:45:f8:
         52:de:d5:76:26:0d:03:f2:c4:dc:a6:fe:5b:14:8b:89:bb:71:
         f7:2b:f1:7c:8c:05:f1:75:54:3a:f6:df:c1:72:36:08:68:63:
         c7:a3:81:1a:38:ab:39:6a:56:1c:33:73:61:47:6f:e2:08:2b:
         2e:56:48:07
-----BEGIN CERTIFICATE-----
MIIEJjCCAw6gAwIBAgIEEAAA3TANBgkqhkiG9w0BAQUFADBEMQswCQYDVQQGEwJE
RTEPMA0GA1UECAwGSGVzc2VuMRQwEgYDVQQKDAtwcml2YWN5aWRlYTEOMAwGA1UE
AwwFQ0EwMDEwHhcNMTUwOTIwMTU1NTI0WhcNMTYwOTE5MTU1NTI0WjBUMQswCQYD
VQQGEwJERTEPMA0GA1UECAwGSGVzc2VuMRQwEgYDVQQKDAtwcml2YWN5aWRlYTEe
MBwGA1UEAwwVcmVxdWVzdGVyLmxvY2FsZG9tYWluMIIBIjANBgkqhkiG9w0BAQEF
AAOCAQ8AMIIBCgKCAQEAzb4UT/rOAT9CIhsdnK/dktJ/22y3PjlDQ2sTA/EF9Ad0
vHZpKAuvGY7X/OPNxljyyn8IbVP8BwJEJMa0NEyMBP4zDkDiILoCc1r39U9jbszG
tt9UHTc5fVE2Jl+93D+oi2uirrad1iHn30G4eigqaEjKqC3t4elGXlpybbSEOIeR
/ZQRCyiExsIvKvsB+TZ6CXXRM4g8c0FbyL+UiXCh8MC5LlBTHrEXZGn0LYHgqQ0O
Mum6VYqF8RtvSXm0f4jDDT5UiJs9HziMBPPuamMr9cbbtIOqxHhBOn1L4cg+ccob
YVnqxsTKMl7J6b8SKebGw2P+oFXaevFgmE0m7fpwLQIDAQABo4IBDjCCAQowCwYD
VR0PBAQDAgWgMAkGA1UdEwQCMAAwEQYJYIZIAYb4QgEBBAQDAgZAMDMGCWCGSAGG
+EIBDQQmFiRPcGVuU1NMIEdlbmVyYXRlZCBTZXJ2ZXIgQ2VydGlmaWNhdGUwHQYD
VR0OBBYEFFM/7V0JB7Nle6tFySRbCXeACpbtMHQGA1UdIwRtMGuAFPSnwMyRRq9k
85HyJ/jIsm+KhzJzoUikRjBEMQswCQYDVQQGEwJERTEPMA0GA1UECAwGSGVzc2Vu
MRQwEgYDVQQKDAtwcml2YWN5aWRlYTEOMAwGA1UEAwwFQ0EwMDGCCQD7yOusg80S
BzATBgNVHSUEDDAKBggrBgEFBQcDATANBgkqhkiG9w0BAQUFAAOCAQEAsGECGYM6
MQ22CCa45Bu0wGs5Ah8Kjedb3SQ/dVRpbXaTNfVD9jB5qK3CVej600xesk5nSFD/
QoLxASEVY1NTPGObXFWoHzV5p3AwdO7vR2ATtZw10sJ99Flo0bSZqxgCcX6VRrWu
XW6Ix2GIzJn4yYRHN/WaWKjZWcwXwjjLqBG0hu9M9ZqY1dfxarlKmsNOnkfAgwC2
m/rfCRh/ZGlYSrCvti4ayrmN7x3wwU7NUnmPN8EBKgks9/y3y6l7jHMjU2qIpEX4
Ut7VdiYNA/LE3Kb+WxSLibtx9yvxfIwF8XVUOvbfwXI2CGhjx6OBGjirOWpWHDNz
YUdv4ggrLlZIBw==
-----END CERTIFICATE-----
