Certificate:
    Data:
        Version: 3 (0x2)
        Serial Number: 268435651 (0x100000c3)
    Signature Algorithm: sha1WithRSAEncryption
        Issuer: C=DE, ST=Hessen, O=privacyidea, CN=CA001
        Validity
            Not Before: Mar 24 21:59:38 2016 GMT
            Not After : Mar 24 21:59:38 2017 GMT
        Subject: C=DE, ST=Hessen, O=privacyidea, CN=requester.localdomain
        Subject Public Key Info:
            Public Key Algorithm: rsaEncryption
                Public-Key: (2048 bit)
                Modulus:
                    00:cd:be:14:4f:fa:ce:01:3f:42:22:1b:1d:9c:af:
                    dd:92:d2:7f:db:6c:b7:3e:39:43:43:6b:13:03:f1:
                    05:f4:07:74:bc:76:69:28:0b:af:19:8e:d7:fc:e3:
                    cd:c6:58:f2:ca:7f:08:6d:53:fc:07:02:44:24:c6:
                    b4:34:4c:8c:04:fe:33:0e:40:e2:20:ba:02:73:5a:
                    f7:f5:4f:63:6e:cc:c6:b6:df:54:1d:37:39:7d:51:
                    36:26:5f:bd:dc:3f:a8:8b:6b:a2:ae:b6:9d:d6:21:
                    e7:df:41:b8:7a:28:2a:68:48:ca:a8:2d:ed:e1:e9:
                    46:5e:5a:72:6d:b4:84:38:87:91:fd:94:11:0b:28:
                    84:c6:c2:2f:2a:fb:01:f9:36:7a:09:75:d1:33:88:
                    3c:73:41:5b:c8:bf:94:89:70:a1:f0:c0:b9:2e:50:
                    53:1e:b1:17:64:69:f4:2d:81:e0:a9:0d:0e:32:e9:
                    ba:55:8a:85:f1:1b:6f:49:79:b4:7f:88:c3:0d:3e:
                    54:88:9b:3d:1f:38:8c:04:f3:ee:6a:63:2b:f5:c6:
                    db:b4:83:aa:c4:78:41:3a:7d:4b:e1:c8:3e:71:ca:
                    1b:61:59:ea:c6:c4:ca:32:5e:c9:e9:bf:12:29:e6:
                    c6:c3:63:fe:a0:55:da:7a:f1:60:98:4d:26:ed:fa:
                    70:2d
                Exponent: 65537 (0x10001)
        X509v3 extensions:
            X509v3 Key Usage: 
                Digital Signature, Key Encipherment
            X509v3 Basic Constraints: 
                CA:FALSE
            Netscape Cert Type: 
                SSL Server
            Netscape Comment: 
                OpenSSL Generated Server Certificate
            X509v3 Subject Key Identifier: 
                53:3F:ED:5D:09:07:B3:65:7B:AB:45:C9:24:5B:09:77:80:0A:96:ED
            X509v3 Authority Key Identifier: 
                keyid:F4:A7:C0:CC:91:46:AF:64:F3:91:F2:27:F8:C8:B2:6F:8A:87:32:73
                DirName:/C=DE/ST=Hessen/O=privacyidea/CN=CA001
                serial:FB:C8:EB:AC:83:CD:12:07

            X509v3 Extended Key Usage: 
                TLS Web Server Authentication
    Signature Algorithm: sha1WithRSAEncryption
         19:fe:84:d9:31:e0:37:e7:60:d9:66:84:c0:22:6a:e2:a8:bb:
         3a:c3:e1:7e:de:e3:30:e1:c5:bc:f5:f5:73:19:cc:33:a0:71:
         2b:f5:b5:c2:89:53:00:43:ae:34:2f:58:6f:22:68:3c:fb:bd:
         83:e9:8f:b3:9b:67:0e:44:36:ca:75:9a:ae:b2:49:33:2b:b6:
         9b:ca:21:ce:cb:66:71:0a:20:ed:1c:9e:2a:c6:82:1e:25:69:
         ec:f1:b1:74:79:d1:14:54:fd:a2:ed:dc:75:0f:2d:3b:03:8b:
         01:68:d0:fe:cc:2b:86:a4:80:f5:f0:0c:0f:30:42:c5:64:81:
         19:8d:7d:1f:73:b8:c3:e9:38:f4:d4:45:e5:07:78:a9:5a:e8:
         bc:6a:6a:b8:b0:d7:e5:6d:35:24:66:45:8c:22:a5:70:13:f1:
         9c:27:47:de:d9:95:99:1c:5a:da:59:4f:c7:d3:ee:0b:a5:cf:
         eb:23:04:00:1a:4a:d3:c2:0f:fc:49:c6:ba:33:c1:a8:4d:94:
         25:eb:64:b8:5f:5b:7e:da:aa:d0:4b:ec:91:f8:13:4c:51:28:
         16:f8:a2:6a:32:a0:35:20:28:ac:bd:90:5a:dc:02:d8:5a:ac:
         b6:09:e4:d3:65:44:cd:82:e9:71:5e:e4:e9:e5:18:84:6a:72:
         52:17:34:b0
-----BEGIN CERTIFICATE-----
MIIEJjCCAw6gAwIBAgIEEAAAwzANBgkqhkiG9w0BAQUFADBEMQswCQYDVQQGEwJE
RTEPMA0GA1UECAwGSGVzc2VuMRQwEgYDVQQKDAtwcml2YWN5aWRlYTEOMAwGA1UE
AwwFQ0EwMDEwHhcNMTYwMzI0MjE1OTM4WhcNMTcwMzI0MjE1OTM4WjBUMQswCQYD
VQQGEwJERTEPMA0GA1UECAwGSGVzc2VuMRQwEgYDVQQKDAtwcml2YWN5aWRlYTEe
MBwGA1UEAwwVcmVxdWVzdGVyLmxvY2FsZG9tYWluMIIBIjANBgkqhkiG9w0BAQEF
AAOCAQ8AMIIBCgKCAQEAzb4UT/rOAT9CIhsdnK/dktJ/22y3PjlDQ2sTA/EF9Ad0
vHZpKAuvGY7X/OPNxljyyn8IbVP8BwJEJMa0NEyMBP4zDkDiILoCc1r39U9jbszG
tt9UHTc5fVE2Jl+93D+oi2uirrad1iHn30G4eigqaEjKqC3t4elGXlpybbSEOIeR
/ZQRCyiExsIvKvsB+TZ6CXXRM4g8c0FbyL+UiXCh8MC5LlBTHrEXZGn0LYHgqQ0O
Mum6VYqF8RtvSXm0f4jDDT5UiJs9HziMBPPuamMr9cbbtIOqxHhBOn1L4cg+ccob
YVnqxsTKMl7J6b8SKebGw2P+oFXaevFgmE0m7fpwLQIDAQABo4IBDjCCAQowCwYD
VR0PBAQDAgWgMAkGA1UdEwQCMAAwEQYJYIZIAYb4QgEBBAQDAgZAMDMGCWCGSAGG
+EIBDQQmFiRPcGVuU1NMIEdlbmVyYXRlZCBTZXJ2ZXIgQ2VydGlmaWNhdGUwHQYD
VR0OBBYEFFM/7V0JB7Nle6tFySRbCXeACpbtMHQGA1UdIwRtMGuAFPSnwMyRRq9k
85HyJ/jIsm+KhzJzoUikRjBEMQswCQYDVQQGEwJERTEPMA0GA1UECAwGSGVzc2Vu
MRQwEgYDVQQKDAtwcml2YWN5aWRlYTEOMAwGA1UEAwwFQ0EwMDGCCQD7yOusg80S
BzATBgNVHSUEDDAKBggrBgEFBQcDATANBgkqhkiG9w0BAQUFAAOCAQEAGf6E2THg
N+dg2WaEwCJq4qi7OsPhft7jMOHFvPX1cxnMM6BxK/W1wolTAEOuNC9YbyJoPPu9
g+mPs5tnDkQ2ynWarrJJMyu2m8ohzstmcQog7RyeKsaCHiVp7PGxdHnRFFT9ou3c
dQ8tOwOLAWjQ/swrhqSA9fAMDzBCxWSBGY19H3O4w+k49NRF5Qd4qVrovGpquLDX
5W01JGZFjCKlcBPxnCdH3tmVmRxa2llPx9PuC6XP6yMEABpK08IP/EnGujPBqE2U
JetkuF9bftqq0EvskfgTTFEoFviiajKgNSAorL2QWtwC2Fqstgnk02VEzYLpcV7k
6eUYhGpyUhc0sA==
-----END CERTIFICATE-----
