Certificate:
    Data:
        Version: 3 (0x2)
        Serial Number: 268435664 (0x100000d0)
    Signature Algorithm: sha1WithRSAEncryption
        Issuer: C=DE, ST=Hessen, O=privacyidea, CN=CA001
        Validity
            Not Before: Feb 22 15:31:36 2016 GMT
            Not After : Feb 21 15:31:36 2017 GMT
        Subject: CN=Steve Test/emailAddress=steve@openssl.org
        Subject Public Key Info:
            Public Key Algorithm: rsaEncryption
                Public-Key: (2048 bit)
                Modulus:
                    00:d2:81:89:20:51:48:0f:73:f4:11:32:24:d5:1f:
                    1c:fd:5c:f5:b6:e6:c5:f0:52:81:dc:d2:af:66:4a:
                    7c:93:31:61:5c:af:d1:6d:06:70:03:60:7c:72:0c:
                    88:dd:49:cd:9e:02:6c:d2:5a:d7:53:0f:f3:da:be:
                    69:64:b5:0f:0c:00:e3:b3:50:47:a3:b3:9b:ba:13:
                    50:d6:58:5a:4b:ab:39:e0:11:ca:0a:27:67:03:78:
                    22:66:6d:92:1e:1b:5c:49:ae:e6:6b:d1:8e:3b:9d:
                    06:d3:c6:ac:4d:53:43:10:ab:e8:96:c1:87:82:97:
                    99:8f:20:d3:99:12:37:31:84:e1:8a:ff:29:03:5f:
                    22:90:3e:7f:9b:e0:20:c1:ad:dc:ae:4c:39:1a:31:
                    96:17:02:8c:b2:d9:b4:0d:20:12:9b:7d:86:54:fd:
                    33:fd:c1:2a:62:46:f8:60:96:cf:6e:01:6f:22:df:
                    13:47:e7:97:ec:05:72:23:a3:62:f8:fa:ef:ac:9c:
                    72:f0:37:cb:2f:37:cf:90:a8:27:51:86:c6:d7:78:
                    08:8f:7e:25:a2:15:70:a2:fb:1c:b6:15:5e:a0:97:
                    8b:81:4c:09:28:8a:27:3b:94:bc:71:db:5b:71:37:
                    9a:2b:16:e0:6f:b5:c9:f5:4b:4f:20:ba:65:cf:af:
                    ad:ad
                Exponent: 65537 (0x10001)
        X509v3 extensions:
            X509v3 Key Usage: 
                Digital Signature, Key Encipherment
            X509v3 Basic Constraints: 
                CA:FALSE
            Netscape Cert Type: 
                SSL Server
            Netscape Comment: 
                OpenSSL Generated Server Certificate
            X509v3 Subject Key Identifier: 
                E5:25:6D:3E:AF:0D:DD:3F:4C:F2:45:19:39:D5:14:DB:7E:9C:C0:AD
            X509v3 Authority Key Identifier: 
                keyid:F4:A7:C0:CC:91:46:AF:64:F3:91:F2:27:F8:C8:B2:6F:8A:87:32:73
                DirName:/C=DE/ST=Hessen/O=privacyidea/CN=CA001
                serial:FB:C8:EB:AC:83:CD:12:07

            X509v3 Extended Key Usage: 
                TLS Web Server Authentication
    Signature Algorithm: sha1WithRSAEncryption
         a2:ee:6b:6b:b5:b3:ba:c4:8f:bf:1c:7c:6f:18:fc:f4:64:31:
         8f:77:e3:73:d0:eb:0e:54:47:f3:e4:83:2c:5c:73:89:46:c4:
         04:78:1d:b5:37:b6:79:a8:ca:d2:84:ab:55:55:5f:e3:81:87:
         27:54:db:cd:cb:7f:46:f2:c1:c4:c3:25:1b:54:8c:4a:1e:c1:
         db:63:7e:ba:49:6e:92:1d:4c:bc:8f:f1:5c:22:66:48:48:a1:
         01:3b:85:33:c2:9f:71:12:0f:fd:9d:5a:af:67:36:a7:ed:d0:
         6c:2e:57:7c:e1:05:87:23:25:f1:8b:f2:c3:69:5b:0c:9e:1f:
         97:45:4c:f0:ea:53:2f:c7:54:17:e4:fb:b7:f6:c4:b9:aa:47:
         f0:a8:65:f2:2c:f0:e9:3c:00:9e:24:7d:7e:c3:53:6f:b9:b6:
         00:fd:5b:d9:64:db:90:a9:2b:8f:d3:f3:7e:ab:7d:be:7b:83:
         a3:99:69:27:f5:18:8b:ba:39:df:37:a6:e1:e3:a2:36:8a:40:
         dc:68:62:ef:48:a3:5f:db:12:6f:60:af:ee:d4:86:48:ce:60:
         c5:46:f2:7a:10:74:fa:9c:c5:71:b8:06:26:fd:30:65:45:b2:
         d6:e8:51:96:56:01:c5:3d:19:23:46:e0:6d:39:92:7d:51:e5:
         bb:11:1f:03
-----BEGIN CERTIFICATE-----
MIIECTCCAvGgAwIBAgIEEAAA0DANBgkqhkiG9w0BAQUFADBEMQswCQYDVQQGEwJE
RTEPMA0GA1UECAwGSGVzc2VuMRQwEgYDVQQKDAtwcml2YWN5aWRlYTEOMAwGA1UE
AwwFQ0EwMDEwHhcNMTYwMjIyMTUzMTM2WhcNMTcwMjIxMTUzMTM2WjA3MRMwEQYD
VQQDEwpTdGV2ZSBUZXN0MSAwHgYJKoZIhvcNAQkBFhFzdGV2ZUBvcGVuc3NsLm9y
ZzCCASIwDQYJKoZIhvcNAQEBBQADggEPADCCAQoCggEBANKBiSBRSA9z9BEyJNUf
HP1c9bbmxfBSgdzSr2ZKfJMxYVyv0W0GcANgfHIMiN1JzZ4CbNJa11MP89q+aWS1
DwwA47NQR6Ozm7oTUNZYWkurOeARygonZwN4ImZtkh4bXEmu5mvRjjudBtPGrE1T
QxCr6JbBh4KXmY8g05kSNzGE4Yr/KQNfIpA+f5vgIMGt3K5MORoxlhcCjLLZtA0g
Ept9hlT9M/3BKmJG+GCWz24BbyLfE0fnl+wFciOjYvj676yccvA3yy83z5CoJ1GG
xtd4CI9+JaIVcKL7HLYVXqCXi4FMCSiKJzuUvHHbW3E3misW4G+1yfVLTyC6Zc+v
ra0CAwEAAaOCAQ4wggEKMAsGA1UdDwQEAwIFoDAJBgNVHRMEAjAAMBEGCWCGSAGG
+EIBAQQEAwIGQDAzBglghkgBhvhCAQ0EJhYkT3BlblNTTCBHZW5lcmF0ZWQgU2Vy
dmVyIENlcnRpZmljYXRlMB0GA1UdDgQWBBTlJW0+rw3dP0zyRRk51RTbfpzArTB0
BgNVHSMEbTBrgBT0p8DMkUavZPOR8if4yLJviocyc6FIpEYwRDELMAkGA1UEBhMC
REUxDzANBgNVBAgMBkhlc3NlbjEUMBIGA1UECgwLcHJpdmFjeWlkZWExDjAMBgNV
BAMMBUNBMDAxggkA+8jrrIPNEgcwEwYDVR0lBAwwCgYIKwYBBQUHAwEwDQYJKoZI
hvcNAQEFBQADggEBAKLua2u1s7rEj78cfG8Y/PRkMY9343PQ6w5UR/Pkgyxcc4lG
xAR4HbU3tnmoytKEq1VVX+OBhydU283Lf0bywcTDJRtUjEoewdtjfrpJbpIdTLyP
8VwiZkhIoQE7hTPCn3ESD/2dWq9nNqft0GwuV3zhBYcjJfGL8sNpWwyeH5dFTPDq
Uy/HVBfk+7f2xLmqR/CoZfIs8Ok8AJ4kfX7DU2+5tgD9W9lk25CpK4/T836rfb57
g6OZaSf1GIu6Od83puHjojaKQNxoYu9Io1/bEm9gr+7UhkjOYMVG8noQdPqcxXG4
Bib9MGVFstboUZZWAcU9GSNG4G05kn1R5bsRHwM=
-----END CERTIFICATE-----
