Certificate:
    Data:
        Version: 3 (0x2)
        Serial Number: 268435655 (0x100000c7)
    Signature Algorithm: sha1WithRSAEncryption
        Issuer: C=DE, ST=Hessen, O=privacyidea, CN=CA001
        Validity
            Not Before: Mar 24 22:03:40 2016 GMT
            Not After : Mar 24 22:03:40 2017 GMT
        Subject: C=DE, ST=Hessen, O=privacyidea, CN=requester.localdomain
        Subject Public Key Info:
            Public Key Algorithm: rsaEncryption
                Public-Key: (2048 bit)
                Modulus:
                    00:cd:be:14:4f:fa:ce:01:3f:42:22:1b:1d:9c:af:
                    dd:92:d2:7f:db:6c:b7:3e:39:43:43:6b:13:03:f1:
                    05:f4:07:74:bc:76:69:28:0b:af:19:8e:d7:fc:e3:
                    cd:c6:58:f2:ca:7f:08:6d:53:fc:07:02:44:24:c6:
                    b4:34:4c:8c:04:fe:33:0e:40:e2:20:ba:02:73:5a:
                    f7:f5:4f:63:6e:cc:c6:b6:df:54:1d:37:39:7d:51:
                    36:26:5f:bd:dc:3f:a8:8b:6b:a2:ae:b6:9d:d6:21:
                    e7:df:41:b8:7a:28:2a:68:48:ca:a8:2d:ed:e1:e9:
                    46:5e:5a:72:6d:b4:84:38:87:91:fd:94:11:0b:28:
                    84:c6:c2:2f:2a:fb:01:f9:36:7a:09:75:d1:33:88:
                    3c:73:41:5b:c8:bf:94:89:70:a1:f0:c0:b9:2e:50:
                    53:1e:b1:17:64:69:f4:2d:81:e0:a9:0d:0e:32:e9:
                    ba:55:8a:85:f1:1b:6f:49:79:b4:7f:88:c3:0d:3e:
                    54:88:9b:3d:1f:38:8c:04:f3:ee:6a:63:2b:f5:c6:
                    db:b4:83:aa:c4:78:41:3a:7d:4b:e1:c8:3e:71:ca:
                    1b:61:59:ea:c6:c4:ca:32:5e:c9:e9:bf:12:29:e6:
                    c6:c3:63:fe:a0:55:da:7a:f1:60:98:4d:26:ed:fa:
                    70:2d
                Exponent: 65537 (0x10001)
        X509v3 extensions:
            X509v3 Key Usage: 
                Digital Signature, Key Encipherment
            X509v3 Basic Constraints: 
                CA:FALSE
            Netscape Cert Type: 
                SSL Server
            Netscape Comment: 
                OpenSSL Generated Server Certificate
            X509v3 Subject Key Identifier: 
                53:3F:ED:5D:09:07:B3:65:7B:AB:45:C9:24:5B:09:77:80:0A:96:ED
            X509v3 Authority Key Identifier: 
                keyid:F4:A7:C0:CC:91:46:AF:64:F3:91:F2:27:F8:C8:B2:6F:8A:87:32:73
                DirName:/C=DE/ST=Hessen/O=privacyidea/CN=CA001
                serial:FB:C8:EB:AC:83:CD:12:07

            X509v3 Extended Key Usage: 
                TLS Web Server Authentication
    Signature Algorithm: sha1WithRSAEncryption
         14:71:fa:41:55:a4:43:77:64:0a:29:49:f4:ed:88:56:da:24:
         20:b8:48:82:7d:0d:c7:44:65:f2:b0:62:7b:62:a9:44:b9:cd:
         6c:35:92:38:af:3f:89:32:83:38:2d:18:f4:57:78:67:f5:e4:
         98:c9:7d:84:d3:59:17:40:4c:a9:88:79:43:7f:34:96:24:c6:
         af:cc:20:33:9f:9c:47:7c:20:d9:fc:e8:3e:3c:4d:72:4e:40:
         3f:4e:56:ef:0a:91:c3:01:c6:01:86:bb:b6:b5:a6:a9:1b:6a:
         0b:b3:07:09:26:0b:57:89:6b:cb:a5:81:0c:ad:1e:11:89:8b:
         db:83:1d:a4:c3:f3:8a:ba:37:44:86:04:8c:83:f0:04:d3:a7:
         bb:bc:1a:f9:a4:1a:fc:ed:f2:9b:05:3a:fd:2a:7d:c5:28:78:
         9d:e7:01:a5:3d:33:1c:9b:87:07:81:8a:9b:9f:3f:38:56:38:
         38:1f:7b:2b:00:7d:99:bb:72:50:ce:38:e8:03:e4:53:e7:b9:
         5b:fc:88:a7:51:fe:02:08:83:ee:9e:64:ca:16:cc:93:a2:6a:
         4b:58:de:39:60:28:7f:12:de:30:06:a5:95:4e:54:45:f7:e3:
         c1:22:57:c5:54:7f:d8:7b:9a:5e:34:4b:9c:f1:14:08:50:32:
         c4:59:33:22
-----BEGIN CERTIFICATE-----
MIIEJjCCAw6gAwIBAgIEEAAAxzANBgkqhkiG9w0BAQUFADBEMQswCQYDVQQGEwJE
RTEPMA0GA1UECAwGSGVzc2VuMRQwEgYDVQQKDAtwcml2YWN5aWRlYTEOMAwGA1UE
AwwFQ0EwMDEwHhcNMTYwMzI0MjIwMzQwWhcNMTcwMzI0MjIwMzQwWjBUMQswCQYD
VQQGEwJERTEPMA0GA1UECAwGSGVzc2VuMRQwEgYDVQQKDAtwcml2YWN5aWRlYTEe
MBwGA1UEAwwVcmVxdWVzdGVyLmxvY2FsZG9tYWluMIIBIjANBgkqhkiG9w0BAQEF
AAOCAQ8AMIIBCgKCAQEAzb4UT/rOAT9CIhsdnK/dktJ/22y3PjlDQ2sTA/EF9Ad0
vHZpKAuvGY7X/OPNxljyyn8IbVP8BwJEJMa0NEyMBP4zDkDiILoCc1r39U9jbszG
tt9UHTc5fVE2Jl+93D+oi2uirrad1iHn30G4eigqaEjKqC3t4elGXlpybbSEOIeR
/ZQRCyiExsIvKvsB+TZ6CXXRM4g8c0FbyL+UiXCh8MC5LlBTHrEXZGn0LYHgqQ0O
Mum6VYqF8RtvSXm0f4jDDT5UiJs9HziMBPPuamMr9cbbtIOqxHhBOn1L4cg+ccob
YVnqxsTKMl7J6b8SKebGw2P+oFXaevFgmE0m7fpwLQIDAQABo4IBDjCCAQowCwYD
VR0PBAQDAgWgMAkGA1UdEwQCMAAwEQYJYIZIAYb4QgEBBAQDAgZAMDMGCWCGSAGG
+EIBDQQmFiRPcGVuU1NMIEdlbmVyYXRlZCBTZXJ2ZXIgQ2VydGlmaWNhdGUwHQYD
VR0OBBYEFFM/7V0JB7Nle6tFySRbCXeACpbtMHQGA1UdIwRtMGuAFPSnwMyRRq9k
85HyJ/jIsm+KhzJzoUikRjBEMQswCQYDVQQGEwJERTEPMA0GA1UECAwGSGVzc2Vu
MRQwEgYDVQQKDAtwcml2YWN5aWRlYTEOMAwGA1UEAwwFQ0EwMDGCCQD7yOusg80S
BzATBgNVHSUEDDAKBggrBgEFBQcDATANBgkqhkiG9w0BAQUFAAOCAQEAFHH6QVWk
Q3dkCilJ9O2IVtokILhIgn0Nx0Rl8rBie2KpRLnNbDWSOK8/iTKDOC0Y9Fd4Z/Xk
mMl9hNNZF0BMqYh5Q380liTGr8wgM5+cR3wg2fzoPjxNck5AP05W7wqRwwHGAYa7
trWmqRtqC7MHCSYLV4lry6WBDK0eEYmL24MdpMPziro3RIYEjIPwBNOnu7wa+aQa
/O3ymwU6/Sp9xSh4necBpT0zHJuHB4GKm58/OFY4OB97KwB9mbtyUM446APkU+e5
W/yIp1H+AgiD7p5kyhbMk6JqS1jeOWAofxLeMAallU5URffjwSJXxVR/2HuaXjRL
nPEUCFAyxFkzIg==
-----END CERTIFICATE-----
