Certificate:
    Data:
        Version: 3 (0x2)
        Serial Number: 268435665 (0x100000d1)
    Signature Algorithm: sha1WithRSAEncryption
        Issuer: C=DE, ST=Hessen, O=privacyidea, CN=CA001
        Validity
            Not Before: Feb 22 15:34:08 2016 GMT
            Not After : Feb 21 15:34:08 2017 GMT
        Subject: C=DE, ST=Hessen, O=privacyidea, CN=requester.localdomain
        Subject Public Key Info:
            Public Key Algorithm: rsaEncryption
                Public-Key: (2048 bit)
                Modulus:
                    00:cd:be:14:4f:fa:ce:01:3f:42:22:1b:1d:9c:af:
                    dd:92:d2:7f:db:6c:b7:3e:39:43:43:6b:13:03:f1:
                    05:f4:07:74:bc:76:69:28:0b:af:19:8e:d7:fc:e3:
                    cd:c6:58:f2:ca:7f:08:6d:53:fc:07:02:44:24:c6:
                    b4:34:4c:8c:04:fe:33:0e:40:e2:20:ba:02:73:5a:
                    f7:f5:4f:63:6e:cc:c6:b6:df:54:1d:37:39:7d:51:
                    36:26:5f:bd:dc:3f:a8:8b:6b:a2:ae:b6:9d:d6:21:
                    e7:df:41:b8:7a:28:2a:68:48:ca:a8:2d:ed:e1:e9:
                    46:5e:5a:72:6d:b4:84:38:87:91:fd:94:11:0b:28:
                    84:c6:c2:2f:2a:fb:01:f9:36:7a:09:75:d1:33:88:
                    3c:73:41:5b:c8:bf:94:89:70:a1:f0:c0:b9:2e:50:
                    53:1e:b1:17:64:69:f4:2d:81:e0:a9:0d:0e:32:e9:
                    ba:55:8a:85:f1:1b:6f:49:79:b4:7f:88:c3:0d:3e:
                    54:88:9b:3d:1f:38:8c:04:f3:ee:6a:63:2b:f5:c6:
                    db:b4:83:aa:c4:78:41:3a:7d:4b:e1:c8:3e:71:ca:
                    1b:61:59:ea:c6:c4:ca:32:5e:c9:e9:bf:12:29:e6:
                    c6:c3:63:fe:a0:55:da:7a:f1:60:98:4d:26:ed:fa:
                    70:2d
                Exponent: 65537 (0x10001)
        X509v3 extensions:
            X509v3 Key Usage: 
                Digital Signature, Key Encipherment
            X509v3 Basic Constraints: 
                CA:FALSE
            Netscape Cert Type: 
                SSL Server
            Netscape Comment: 
                OpenSSL Generated Server Certificate
            X509v3 Subject Key Identifier: 
                53:3F:ED:5D:09:07:B3:65:7B:AB:45:C9:24:5B:09:77:80:0A:96:ED
            X509v3 Authority Key Identifier: 
                keyid:F4:A7:C0:CC:91:46:AF:64:F3:91:F2:27:F8:C8:B2:6F:8A:87:32:73
                DirName:/C=DE/ST=Hessen/O=privacyidea/CN=CA001
                serial:FB:C8:EB:AC:83:CD:12:07

            X509v3 Extended Key Usage: 
                TLS Web Server Authentication
    Signature Algorithm: sha1WithRSAEncryption
         59:77:a9:20:c8:aa:52:50:30:3e:b5:d2:f7:e0:5e:af:51:a5:
         c4:43:58:25:36:79:e5:1b:03:41:82:4f:8d:eb:64:84:ec:ed:
         15:00:32:98:84:01:0c:6d:af:71:da:b3:2b:0c:88:7b:9c:f0:
         c5:90:37:cb:e8:a7:93:96:d5:49:c4:48:41:ee:23:af:de:51:
         d5:97:34:6b:a7:22:9d:be:94:1c:fc:e2:bd:cb:75:4f:2f:74:
         72:95:9b:9d:cf:dc:4a:b8:6a:79:84:81:56:2f:4e:1f:7e:0f:
         5d:a4:56:3f:72:69:9a:4f:77:f9:d3:24:8a:6f:b0:2d:d8:88:
         96:ee:bb:66:21:c5:38:62:91:87:af:64:a9:f8:ca:30:34:06:
         a6:94:a3:af:d2:31:c2:07:6d:07:c6:39:1d:43:2c:ee:ef:03:
         dd:a0:8b:48:ad:f2:dc:ef:2a:ff:12:34:66:ae:c5:7f:1d:b2:
         dc:a1:af:93:07:76:3e:46:3e:d7:52:6b:fd:64:89:d2:4d:ba:
         66:1a:54:67:34:9b:59:22:f4:a5:ff:3c:b0:cf:11:54:90:7b:
         20:9c:e7:e0:50:10:ff:5f:b5:e4:fd:0f:5f:45:a1:6e:74:97:
         a3:1b:71:92:b2:f0:63:11:f3:8b:fb:6c:f1:fe:b3:09:17:a1:
         fe:08:ac:a1
-----BEGIN CERTIFICATE-----
MIIEJjCCAw6gAwIBAgIEEAAA0TANBgkqhkiG9w0BAQUFADBEMQswCQYDVQQGEwJE
RTEPMA0GA1UECAwGSGVzc2VuMRQwEgYDVQQKDAtwcml2YWN5aWRlYTEOMAwGA1UE
AwwFQ0EwMDEwHhcNMTYwMjIyMTUzNDA4WhcNMTcwMjIxMTUzNDA4WjBUMQswCQYD
VQQGEwJERTEPMA0GA1UECAwGSGVzc2VuMRQwEgYDVQQKDAtwcml2YWN5aWRlYTEe
MBwGA1UEAwwVcmVxdWVzdGVyLmxvY2FsZG9tYWluMIIBIjANBgkqhkiG9w0BAQEF
AAOCAQ8AMIIBCgKCAQEAzb4UT/rOAT9CIhsdnK/dktJ/22y3PjlDQ2sTA/EF9Ad0
vHZpKAuvGY7X/OPNxljyyn8IbVP8BwJEJMa0NEyMBP4zDkDiILoCc1r39U9jbszG
tt9UHTc5fVE2Jl+93D+oi2uirrad1iHn30G4eigqaEjKqC3t4elGXlpybbSEOIeR
/ZQRCyiExsIvKvsB+TZ6CXXRM4g8c0FbyL+UiXCh8MC5LlBTHrEXZGn0LYHgqQ0O
Mum6VYqF8RtvSXm0f4jDDT5UiJs9HziMBPPuamMr9cbbtIOqxHhBOn1L4cg+ccob
YVnqxsTKMl7J6b8SKebGw2P+oFXaevFgmE0m7fpwLQIDAQABo4IBDjCCAQowCwYD
VR0PBAQDAgWgMAkGA1UdEwQCMAAwEQYJYIZIAYb4QgEBBAQDAgZAMDMGCWCGSAGG
+EIBDQQmFiRPcGVuU1NMIEdlbmVyYXRlZCBTZXJ2ZXIgQ2VydGlmaWNhdGUwHQYD
VR0OBBYEFFM/7V0JB7Nle6tFySRbCXeACpbtMHQGA1UdIwRtMGuAFPSnwMyRRq9k
85HyJ/jIsm+KhzJzoUikRjBEMQswCQYDVQQGEwJERTEPMA0GA1UECAwGSGVzc2Vu
MRQwEgYDVQQKDAtwcml2YWN5aWRlYTEOMAwGA1UEAwwFQ0EwMDGCCQD7yOusg80S
BzATBgNVHSUEDDAKBggrBgEFBQcDATANBgkqhkiG9w0BAQUFAAOCAQEAWXepIMiq
UlAwPrXS9+Ber1GlxENYJTZ55RsDQYJPjetkhOztFQAymIQBDG2vcdqzKwyIe5zw
xZA3y+ink5bVScRIQe4jr95R1Zc0a6cinb6UHPzivct1Ty90cpWbnc/cSrhqeYSB
Vi9OH34PXaRWP3Jpmk93+dMkim+wLdiIlu67ZiHFOGKRh69kqfjKMDQGppSjr9Ix
wgdtB8Y5HUMs7u8D3aCLSK3y3O8q/xI0Zq7Ffx2y3KGvkwd2PkY+11Jr/WSJ0k26
ZhpUZzSbWSL0pf88sM8RVJB7IJzn4FAQ/1+15P0PX0WhbnSXoxtxkrLwYxHzi/ts
8f6zCReh/gisoQ==
-----END CERTIFICATE-----
