Certificate:
    Data:
        Version: 3 (0x2)
        Serial Number: 268435668 (0x100000d4)
    Signature Algorithm: sha1WithRSAEncryption
        Issuer: C=DE, ST=Hessen, O=privacyidea, CN=CA001
        Validity
            Not Before: Sep 20 15:35:19 2015 GMT
            Not After : Sep 19 15:35:19 2016 GMT
        Subject: CN=Steve Test/emailAddress=steve@openssl.org
        Subject Public Key Info:
            Public Key Algorithm: rsaEncryption
                Public-Key: (2048 bit)
                Modulus:
                    00:d2:81:89:20:51:48:0f:73:f4:11:32:24:d5:1f:
                    1c:fd:5c:f5:b6:e6:c5:f0:52:81:dc:d2:af:66:4a:
                    7c:93:31:61:5c:af:d1:6d:06:70:03:60:7c:72:0c:
                    88:dd:49:cd:9e:02:6c:d2:5a:d7:53:0f:f3:da:be:
                    69:64:b5:0f:0c:00:e3:b3:50:47:a3:b3:9b:ba:13:
                    50:d6:58:5a:4b:ab:39:e0:11:ca:0a:27:67:03:78:
                    22:66:6d:92:1e:1b:5c:49:ae:e6:6b:d1:8e:3b:9d:
                    06:d3:c6:ac:4d:53:43:10:ab:e8:96:c1:87:82:97:
                    99:8f:20:d3:99:12:37:31:84:e1:8a:ff:29:03:5f:
                    22:90:3e:7f:9b:e0:20:c1:ad:dc:ae:4c:39:1a:31:
                    96:17:02:8c:b2:d9:b4:0d:20:12:9b:7d:86:54:fd:
                    33:fd:c1:2a:62:46:f8:60:96:cf:6e:01:6f:22:df:
                    13:47:e7:97:ec:05:72:23:a3:62:f8:fa:ef:ac:9c:
                    72:f0:37:cb:2f:37:cf:90:a8:27:51:86:c6:d7:78:
                    08:8f:7e:25:a2:15:70:a2:fb:1c:b6:15:5e:a0:97:
                    8b:81:4c:09:28:8a:27:3b:94:bc:71:db:5b:71:37:
                    9a:2b:16:e0:6f:b5:c9:f5:4b:4f:20:ba:65:cf:af:
                    ad:ad
                Exponent: 65537 (0x10001)
        X509v3 extensions:
            X509v3 Key Usage: 
                Digital Signature, Key Encipherment
            X509v3 Basic Constraints: 
                CA:FALSE
            Netscape Cert Type: 
                SSL Server
            Netscape Comment: 
                OpenSSL Generated Server Certificate
            X509v3 Subject Key Identifier: 
                E5:25:6D:3E:AF:0D:DD:3F:4C:F2:45:19:39:D5:14:DB:7E:9C:C0:AD
            X509v3 Authority Key Identifier: 
                keyid:F4:A7:C0:CC:91:46:AF:64:F3:91:F2:27:F8:C8:B2:6F:8A:87:32:73
                DirName:/C=DE/ST=Hessen/O=privacyidea/CN=CA001
                serial:FB:C8:EB:AC:83:CD:12:07

            X509v3 Extended Key Usage: 
                TLS Web Server Authentication
    Signature Algorithm: sha1WithRSAEncryption
         7a:32:e3:23:c0:72:bc:c7:08:6c:e4:53:1c:0a:c7:1f:d7:86:
         b0:54:65:da:95:93:af:8c:b5:cb:71:6c:c8:d7:3f:00:1a:a2:
         59:3a:45:3d:e7:83:4d:2b:d3:49:e7:c9:f6:01:57:6f:50:74:
         e3:e8:34:d9:04:75:cf:01:20:2b:1e:ac:7e:58:c7:19:0d:58:
         80:07:6e:5e:1b:f2:9c:fc:20:51:d2:3a:0c:1e:13:44:0a:af:
         6c:c5:4f:00:8c:7d:41:8b:34:3c:67:52:82:67:77:96:46:94:
         5a:a6:43:4b:40:48:c5:19:1d:02:dc:c1:3d:60:54:18:f4:b0:
         a2:8d:6c:2b:4a:4a:4d:5c:6d:78:d5:3f:3e:32:fb:ca:fd:c2:
         6c:a8:83:f7:e8:c2:04:43:44:6c:7a:5d:db:a9:7f:62:3b:01:
         36:13:3f:b1:03:f4:94:d7:65:f9:8b:fa:21:6c:03:10:2b:e6:
         00:b0:97:df:33:d4:31:8c:e8:2b:a7:ba:6a:88:ec:61:a6:7f:
         31:cb:8e:ea:bc:c5:f4:0d:45:ef:27:5d:a8:cb:f3:46:e3:ed:
         e5:09:3e:97:fb:12:cb:ba:58:f4:28:5e:b1:86:40:62:cc:9d:
         62:f0:40:7d:4b:45:e1:9a:75:6a:f7:70:d1:1d:33:f6:5d:ed:
         74:fb:20:01
-----BEGIN CERTIFICATE-----
MIIECTCCAvGgAwIBAgIEEAAA1DANBgkqhkiG9w0BAQUFADBEMQswCQYDVQQGEwJE
RTEPMA0GA1UECAwGSGVzc2VuMRQwEgYDVQQKDAtwcml2YWN5aWRlYTEOMAwGA1UE
AwwFQ0EwMDEwHhcNMTUwOTIwMTUzNTE5WhcNMTYwOTE5MTUzNTE5WjA3MRMwEQYD
VQQDEwpTdGV2ZSBUZXN0MSAwHgYJKoZIhvcNAQkBFhFzdGV2ZUBvcGVuc3NsLm9y
ZzCCASIwDQYJKoZIhvcNAQEBBQADggEPADCCAQoCggEBANKBiSBRSA9z9BEyJNUf
HP1c9bbmxfBSgdzSr2ZKfJMxYVyv0W0GcANgfHIMiN1JzZ4CbNJa11MP89q+aWS1
DwwA47NQR6Ozm7oTUNZYWkurOeARygonZwN4ImZtkh4bXEmu5mvRjjudBtPGrE1T
QxCr6JbBh4KXmY8g05kSNzGE4Yr/KQNfIpA+f5vgIMGt3K5MORoxlhcCjLLZtA0g
Ept9hlT9M/3BKmJG+GCWz24BbyLfE0fnl+wFciOjYvj676yccvA3yy83z5CoJ1GG
xtd4CI9+JaIVcKL7HLYVXqCXi4FMCSiKJzuUvHHbW3E3misW4G+1yfVLTyC6Zc+v
ra0CAwEAAaOCAQ4wggEKMAsGA1UdDwQEAwIFoDAJBgNVHRMEAjAAMBEGCWCGSAGG
+EIBAQQEAwIGQDAzBglghkgBhvhCAQ0EJhYkT3BlblNTTCBHZW5lcmF0ZWQgU2Vy
dmVyIENlcnRpZmljYXRlMB0GA1UdDgQWBBTlJW0+rw3dP0zyRRk51RTbfpzArTB0
BgNVHSMEbTBrgBT0p8DMkUavZPOR8if4yLJviocyc6FIpEYwRDELMAkGA1UEBhMC
REUxDzANBgNVBAgMBkhlc3NlbjEUMBIGA1UECgwLcHJpdmFjeWlkZWExDjAMBgNV
BAMMBUNBMDAxggkA+8jrrIPNEgcwEwYDVR0lBAwwCgYIKwYBBQUHAwEwDQYJKoZI
hvcNAQEFBQADggEBAHoy4yPAcrzHCGzkUxwKxx/XhrBUZdqVk6+MtctxbMjXPwAa
olk6RT3ng00r00nnyfYBV29QdOPoNNkEdc8BICserH5YxxkNWIAHbl4b8pz8IFHS
OgweE0QKr2zFTwCMfUGLNDxnUoJnd5ZGlFqmQ0tASMUZHQLcwT1gVBj0sKKNbCtK
Sk1cbXjVPz4y+8r9wmyog/fowgRDRGx6Xdupf2I7ATYTP7ED9JTXZfmL+iFsAxAr
5gCwl98z1DGM6CunumqI7GGmfzHLjuq8xfQNRe8nXajL80bj7eUJPpf7Esu6WPQo
XrGGQGLMnWLwQH1LReGadWr3cNEdM/Zd7XT7IAE=
-----END CERTIFICATE-----
