Certificate:
    Data:
        Version: 3 (0x2)
        Serial Number: 268435663 (0x100000cf)
    Signature Algorithm: sha1WithRSAEncryption
        Issuer: C=DE, ST=Hessen, O=privacyidea, CN=CA001
        Validity
            Not Before: Feb 22 15:31:36 2016 GMT
            Not After : Feb 21 15:31:36 2017 GMT
        Subject: C=DE, ST=Hessen, O=privacyidea, CN=usercert
        Subject Public Key Info:
            Public Key Algorithm: rsaEncryption
                Public-Key: (2048 bit)
                Modulus:
                    00:dc:2f:d1:5f:29:97:d4:7c:c3:53:c8:30:bd:4b:
                    67:70:2c:24:6b:b8:5e:eb:21:7a:48:12:56:7c:81:
                    5c:48:75:b6:68:eb:f6:f2:98:4e:50:51:d1:7f:6c:
                    73:f3:0a:a7:ae:be:48:5e:e5:d6:e1:d9:2a:7c:32:
                    6e:4e:fd:08:f6:5a:54:49:23:73:c3:b9:07:18:d1:
                    ef:b3:ac:f8:8a:dc:94:96:a4:90:3a:8e:74:df:e6:
                    0d:37:1b:bd:5b:b7:25:1a:56:39:da:6f:91:aa:5e:
                    1c:74:f3:f9:7c:14:01:83:12:65:76:c7:bb:fe:36:
                    5b:95:e9:72:65:83:ed:3e:98:30:71:fa:87:dd:a3:
                    36:5a:30:03:2e:26:e0:61:d1:bf:02:3f:b6:06:1f:
                    4a:89:28:1c:5c:a2:ff:4e:be:94:e6:8c:e0:da:82:
                    f1:9d:29:32:48:30:73:b4:04:f6:42:1e:be:f7:e2:
                    32:32:27:3c:9d:89:2f:70:3e:85:9a:6f:5c:c5:09:
                    c0:8c:32:2f:72:22:c9:d2:95:1f:b6:ac:72:60:72:
                    b7:82:4d:6b:ce:5b:e3:00:d0:d2:2f:58:c6:e0:10:
                    e5:51:ca:4d:3b:2e:e6:7e:ab:84:d6:56:f1:93:35:
                    a0:93:64:26:81:75:2f:91:b5:16:06:38:0b:db:cc:
                    2d:07
                Exponent: 65537 (0x10001)
        X509v3 extensions:
            X509v3 Key Usage: 
                Digital Signature, Key Encipherment
            X509v3 Basic Constraints: 
                CA:FALSE
            Netscape Cert Type: 
                SSL Server
            Netscape Comment: 
                OpenSSL Generated Server Certificate
            X509v3 Subject Key Identifier: 
                FC:14:D1:F0:4B:8D:00:90:F2:F5:B8:71:9E:4E:97:C3:92:54:AD:0B
            X509v3 Authority Key Identifier: 
                keyid:F4:A7:C0:CC:91:46:AF:64:F3:91:F2:27:F8:C8:B2:6F:8A:87:32:73
                DirName:/C=DE/ST=Hessen/O=privacyidea/CN=CA001
                serial:FB:C8:EB:AC:83:CD:12:07

            X509v3 Extended Key Usage: 
                TLS Web Server Authentication
    Signature Algorithm: sha1WithRSAEncryption
         b0:66:1e:24:c8:34:fe:c8:6f:a4:2c:cf:1a:aa:bc:38:2d:21:
         0e:a9:3b:0a:5f:c4:34:08:24:53:78:3f:32:9e:4e:af:c3:b3:
         6a:7c:51:5a:3e:0f:ca:73:89:4a:dc:33:41:cc:8f:8c:d6:53:
         1f:87:43:b1:8a:0d:ef:cc:bb:46:85:bb:3b:6b:da:8d:51:67:
         51:e1:cd:2a:e4:b4:67:d9:2a:16:34:5f:bd:99:7e:58:b6:a5:
         46:47:fa:2b:5c:a4:5a:1c:2f:57:59:fb:09:fb:49:c6:1a:2a:
         4a:24:b3:d1:87:6a:6e:a8:50:a0:86:88:57:2f:54:0e:74:2c:
         9c:0b:4d:c2:5a:63:6e:13:10:8b:cd:ad:73:69:6f:9c:22:66:
         cf:84:36:55:bb:28:07:75:4d:7b:61:31:03:e9:66:e2:ae:c1:
         2b:a9:15:6f:25:6d:88:e2:26:36:e7:fc:de:47:d4:a9:bf:07:
         d9:fc:e9:d3:79:1f:07:05:5d:4c:de:98:9e:8a:86:1b:65:0e:
         e8:a7:92:e6:4b:83:52:14:7b:20:f2:85:61:42:97:e5:c9:80:
         a6:0e:b0:36:31:5c:7f:db:0b:37:0e:dd:68:c8:c6:87:f3:4e:
         fc:a4:d5:76:3d:24:6f:76:c0:1c:76:bf:14:b1:5f:0e:6c:e3:
         9b:98:36:98
-----BEGIN CERTIFICATE-----
MIIEGTCCAwGgAwIBAgIEEAAAzzANBgkqhkiG9w0BAQUFADBEMQswCQYDVQQGEwJE
RTEPMA0GA1UECAwGSGVzc2VuMRQwEgYDVQQKDAtwcml2YWN5aWRlYTEOMAwGA1UE
AwwFQ0EwMDEwHhcNMTYwMjIyMTUzMTM2WhcNMTcwMjIxMTUzMTM2WjBHMQswCQYD
VQQGEwJERTEPMA0GA1UECAwGSGVzc2VuMRQwEgYDVQQKDAtwcml2YWN5aWRlYTER
MA8GA1UEAwwIdXNlcmNlcnQwggEiMA0GCSqGSIb3DQEBAQUAA4IBDwAwggEKAoIB
AQDcL9FfKZfUfMNTyDC9S2dwLCRruF7rIXpIElZ8gVxIdbZo6/bymE5QUdF/bHPz
Cqeuvkhe5dbh2Sp8Mm5O/Qj2WlRJI3PDuQcY0e+zrPiK3JSWpJA6jnTf5g03G71b
tyUaVjnab5GqXhx08/l8FAGDEmV2x7v+NluV6XJlg+0+mDBx+ofdozZaMAMuJuBh
0b8CP7YGH0qJKBxcov9OvpTmjODagvGdKTJIMHO0BPZCHr734jIyJzydiS9wPoWa
b1zFCcCMMi9yIsnSlR+2rHJgcreCTWvOW+MA0NIvWMbgEOVRyk07LuZ+q4TWVvGT
NaCTZCaBdS+RtRYGOAvbzC0HAgMBAAGjggEOMIIBCjALBgNVHQ8EBAMCBaAwCQYD
VR0TBAIwADARBglghkgBhvhCAQEEBAMCBkAwMwYJYIZIAYb4QgENBCYWJE9wZW5T
U0wgR2VuZXJhdGVkIFNlcnZlciBDZXJ0aWZpY2F0ZTAdBgNVHQ4EFgQU/BTR8EuN
AJDy9bhxnk6Xw5JUrQswdAYDVR0jBG0wa4AU9KfAzJFGr2TzkfIn+Miyb4qHMnOh
SKRGMEQxCzAJBgNVBAYTAkRFMQ8wDQYDVQQIDAZIZXNzZW4xFDASBgNVBAoMC3By
aXZhY3lpZGVhMQ4wDAYDVQQDDAVDQTAwMYIJAPvI66yDzRIHMBMGA1UdJQQMMAoG
CCsGAQUFBwMBMA0GCSqGSIb3DQEBBQUAA4IBAQCwZh4kyDT+yG+kLM8aqrw4LSEO
qTsKX8Q0CCRTeD8ynk6vw7NqfFFaPg/Kc4lK3DNBzI+M1lMfh0Oxig3vzLtGhbs7
a9qNUWdR4c0q5LRn2SoWNF+9mX5YtqVGR/orXKRaHC9XWfsJ+0nGGipKJLPRh2pu
qFCghohXL1QOdCycC03CWmNuExCLza1zaW+cImbPhDZVuygHdU17YTED6WbirsEr
qRVvJW2I4iY25/zeR9SpvwfZ/OnTeR8HBV1M3pieioYbZQ7op5LmS4NSFHsg8oVh
QpflyYCmDrA2MVx/2ws3Dt1oyMaH8078pNV2PSRvdsAcdr8UsV8ObOObmDaY
-----END CERTIFICATE-----
