Certificate:
    Data:
        Version: 3 (0x2)
        Serial Number: 268435675 (0x100000db)
    Signature Algorithm: sha1WithRSAEncryption
        Issuer: C=DE, ST=Hessen, O=privacyidea, CN=CA001
        Validity
            Not Before: Sep 20 15:49:58 2015 GMT
            Not After : Sep 19 15:49:58 2016 GMT
        Subject: C=DE, ST=Hessen, O=privacyidea, CN=requester.localdomain
        Subject Public Key Info:
            Public Key Algorithm: rsaEncryption
                Public-Key: (2048 bit)
                Modulus:
                    00:cd:be:14:4f:fa:ce:01:3f:42:22:1b:1d:9c:af:
                    dd:92:d2:7f:db:6c:b7:3e:39:43:43:6b:13:03:f1:
                    05:f4:07:74:bc:76:69:28:0b:af:19:8e:d7:fc:e3:
                    cd:c6:58:f2:ca:7f:08:6d:53:fc:07:02:44:24:c6:
                    b4:34:4c:8c:04:fe:33:0e:40:e2:20:ba:02:73:5a:
                    f7:f5:4f:63:6e:cc:c6:b6:df:54:1d:37:39:7d:51:
                    36:26:5f:bd:dc:3f:a8:8b:6b:a2:ae:b6:9d:d6:21:
                    e7:df:41:b8:7a:28:2a:68:48:ca:a8:2d:ed:e1:e9:
                    46:5e:5a:72:6d:b4:84:38:87:91:fd:94:11:0b:28:
                    84:c6:c2:2f:2a:fb:01:f9:36:7a:09:75:d1:33:88:
                    3c:73:41:5b:c8:bf:94:89:70:a1:f0:c0:b9:2e:50:
                    53:1e:b1:17:64:69:f4:2d:81:e0:a9:0d:0e:32:e9:
                    ba:55:8a:85:f1:1b:6f:49:79:b4:7f:88:c3:0d:3e:
                    54:88:9b:3d:1f:38:8c:04:f3:ee:6a:63:2b:f5:c6:
                    db:b4:83:aa:c4:78:41:3a:7d:4b:e1:c8:3e:71:ca:
                    1b:61:59:ea:c6:c4:ca:32:5e:c9:e9:bf:12:29:e6:
                    c6:c3:63:fe:a0:55:da:7a:f1:60:98:4d:26:ed:fa:
                    70:2d
                Exponent: 65537 (0x10001)
        X509v3 extensions:
            X509v3 Key Usage: 
                Digital Signature, Key Encipherment
            X509v3 Basic Constraints: 
                CA:FALSE
            Netscape Cert Type: 
                SSL Server
            Netscape Comment: 
                OpenSSL Generated Server Certificate
            X509v3 Subject Key Identifier: 
                53:3F:ED:5D:09:07:B3:65:7B:AB:45:C9:24:5B:09:77:80:0A:96:ED
            X509v3 Authority Key Identifier: 
                keyid:F4:A7:C0:CC:91:46:AF:64:F3:91:F2:27:F8:C8:B2:6F:8A:87:32:73
                DirName:/C=DE/ST=Hessen/O=privacyidea/CN=CA001
                serial:FB:C8:EB:AC:83:CD:12:07

            X509v3 Extended Key Usage: 
                TLS Web Server Authentication
    Signature Algorithm: sha1WithRSAEncryption
         2f:dc:47:19:57:7d:00:54:6f:db:39:fe:7e:78:9e:ba:fd:9f:
         55:9d:1e:c6:6f:1d:a4:2d:ea:2e:bb:c7:08:dd:67:b0:41:85:
         6b:f9:2b:ff:d1:2f:c7:f8:dc:a0:c5:01:67:81:61:44:ad:83:
         b8:2e:0c:d0:3e:8b:5b:e3:b3:dc:fb:43:60:0c:d0:c6:9e:b3:
         03:d0:09:7a:9a:a5:70:a0:45:9f:04:cf:7e:03:41:12:f0:cd:
         aa:26:8f:ea:c6:1b:01:b3:1f:93:da:04:2d:63:ad:bd:2b:be:
         d4:d1:10:80:e0:10:18:94:2a:e7:bc:65:41:30:ac:9c:b5:f8:
         73:46:b7:3c:97:b2:bf:c9:22:59:da:85:19:6f:bb:0c:26:0b:
         83:bd:8e:51:a9:39:d9:74:78:f6:af:bc:f5:13:12:dc:63:87:
         95:f8:1f:32:b3:40:7a:ab:62:3c:25:1e:4a:3d:5c:ac:32:04:
         96:72:20:90:be:54:12:11:54:02:28:58:22:94:76:71:10:19:
         35:95:45:d9:3e:f0:92:7e:95:2b:e1:55:39:39:18:ea:f1:9b:
         c3:a9:de:ab:dc:28:39:36:e7:34:1a:4e:24:4d:ee:20:6b:f1:
         b8:e0:9b:26:c6:0e:34:a7:67:84:a1:fa:09:de:ef:64:0b:01:
         4f:e3:f8:c4
-----BEGIN CERTIFICATE-----
MIIEJjCCAw6gAwIBAgIEEAAA2zANBgkqhkiG9w0BAQUFADBEMQswCQYDVQQGEwJE
RTEPMA0GA1UECAwGSGVzc2VuMRQwEgYDVQQKDAtwcml2YWN5aWRlYTEOMAwGA1UE
AwwFQ0EwMDEwHhcNMTUwOTIwMTU0OTU4WhcNMTYwOTE5MTU0OTU4WjBUMQswCQYD
VQQGEwJERTEPMA0GA1UECAwGSGVzc2VuMRQwEgYDVQQKDAtwcml2YWN5aWRlYTEe
MBwGA1UEAwwVcmVxdWVzdGVyLmxvY2FsZG9tYWluMIIBIjANBgkqhkiG9w0BAQEF
AAOCAQ8AMIIBCgKCAQEAzb4UT/rOAT9CIhsdnK/dktJ/22y3PjlDQ2sTA/EF9Ad0
vHZpKAuvGY7X/OPNxljyyn8IbVP8BwJEJMa0NEyMBP4zDkDiILoCc1r39U9jbszG
tt9UHTc5fVE2Jl+93D+oi2uirrad1iHn30G4eigqaEjKqC3t4elGXlpybbSEOIeR
/ZQRCyiExsIvKvsB+TZ6CXXRM4g8c0FbyL+UiXCh8MC5LlBTHrEXZGn0LYHgqQ0O
Mum6VYqF8RtvSXm0f4jDDT5UiJs9HziMBPPuamMr9cbbtIOqxHhBOn1L4cg+ccob
YVnqxsTKMl7J6b8SKebGw2P+oFXaevFgmE0m7fpwLQIDAQABo4IBDjCCAQowCwYD
VR0PBAQDAgWgMAkGA1UdEwQCMAAwEQYJYIZIAYb4QgEBBAQDAgZAMDMGCWCGSAGG
+EIBDQQmFiRPcGVuU1NMIEdlbmVyYXRlZCBTZXJ2ZXIgQ2VydGlmaWNhdGUwHQYD
VR0OBBYEFFM/7V0JB7Nle6tFySRbCXeACpbtMHQGA1UdIwRtMGuAFPSnwMyRRq9k
85HyJ/jIsm+KhzJzoUikRjBEMQswCQYDVQQGEwJERTEPMA0GA1UECAwGSGVzc2Vu
MRQwEgYDVQQKDAtwcml2YWN5aWRlYTEOMAwGA1UEAwwFQ0EwMDGCCQD7yOusg80S
BzATBgNVHSUEDDAKBggrBgEFBQcDATANBgkqhkiG9w0BAQUFAAOCAQEAL9xHGVd9
AFRv2zn+fnieuv2fVZ0exm8dpC3qLrvHCN1nsEGFa/kr/9Evx/jcoMUBZ4FhRK2D
uC4M0D6LW+Oz3PtDYAzQxp6zA9AJepqlcKBFnwTPfgNBEvDNqiaP6sYbAbMfk9oE
LWOtvSu+1NEQgOAQGJQq57xlQTCsnLX4c0a3PJeyv8kiWdqFGW+7DCYLg72OUak5
2XR49q+89RMS3GOHlfgfMrNAeqtiPCUeSj1crDIElnIgkL5UEhFUAihYIpR2cRAZ
NZVF2T7wkn6VK+FVOTkY6vGbw6neq9woOTbnNBpOJE3uIGvxuOCbJsYONKdnhKH6
Cd7vZAsBT+P4xA==
-----END CERTIFICATE-----
