Certificate:
    Data:
        Version: 3 (0x2)
        Serial Number: 268435662 (0x100000ce)
    Signature Algorithm: sha1WithRSAEncryption
        Issuer: C=DE, ST=Hessen, O=privacyidea, CN=CA001
        Validity
            Not Before: Feb 22 15:31:36 2016 GMT
            Not After : Feb 21 15:31:36 2017 GMT
        Subject: C=DE, ST=Hessen, O=privacyidea, CN=requester.localdomain
        Subject Public Key Info:
            Public Key Algorithm: rsaEncryption
                Public-Key: (2048 bit)
                Modulus:
                    00:cd:be:14:4f:fa:ce:01:3f:42:22:1b:1d:9c:af:
                    dd:92:d2:7f:db:6c:b7:3e:39:43:43:6b:13:03:f1:
                    05:f4:07:74:bc:76:69:28:0b:af:19:8e:d7:fc:e3:
                    cd:c6:58:f2:ca:7f:08:6d:53:fc:07:02:44:24:c6:
                    b4:34:4c:8c:04:fe:33:0e:40:e2:20:ba:02:73:5a:
                    f7:f5:4f:63:6e:cc:c6:b6:df:54:1d:37:39:7d:51:
                    36:26:5f:bd:dc:3f:a8:8b:6b:a2:ae:b6:9d:d6:21:
                    e7:df:41:b8:7a:28:2a:68:48:ca:a8:2d:ed:e1:e9:
                    46:5e:5a:72:6d:b4:84:38:87:91:fd:94:11:0b:28:
                    84:c6:c2:2f:2a:fb:01:f9:36:7a:09:75:d1:33:88:
                    3c:73:41:5b:c8:bf:94:89:70:a1:f0:c0:b9:2e:50:
                    53:1e:b1:17:64:69:f4:2d:81:e0:a9:0d:0e:32:e9:
                    ba:55:8a:85:f1:1b:6f:49:79:b4:7f:88:c3:0d:3e:
                    54:88:9b:3d:1f:38:8c:04:f3:ee:6a:63:2b:f5:c6:
                    db:b4:83:aa:c4:78:41:3a:7d:4b:e1:c8:3e:71:ca:
                    1b:61:59:ea:c6:c4:ca:32:5e:c9:e9:bf:12:29:e6:
                    c6:c3:63:fe:a0:55:da:7a:f1:60:98:4d:26:ed:fa:
                    70:2d
                Exponent: 65537 (0x10001)
        X509v3 extensions:
            X509v3 Key Usage: 
                Digital Signature, Key Encipherment
            X509v3 Basic Constraints: 
                CA:FALSE
            Netscape Cert Type: 
                SSL Server
            Netscape Comment: 
                OpenSSL Generated Server Certificate
            X509v3 Subject Key Identifier: 
                53:3F:ED:5D:09:07:B3:65:7B:AB:45:C9:24:5B:09:77:80:0A:96:ED
            X509v3 Authority Key Identifier: 
                keyid:F4:A7:C0:CC:91:46:AF:64:F3:91:F2:27:F8:C8:B2:6F:8A:87:32:73
                DirName:/C=DE/ST=Hessen/O=privacyidea/CN=CA001
                serial:FB:C8:EB:AC:83:CD:12:07

            X509v3 Extended Key Usage: 
                TLS Web Server Authentication
    Signature Algorithm: sha1WithRSAEncryption
         50:2a:b6:f0:07:4e:50:c4:da:d4:b6:bd:4a:92:dd:9d:bc:12:
         43:d4:7e:7e:63:54:43:65:c5:a5:b2:cf:f3:cf:b3:3f:7c:f8:
         7b:54:5b:10:cf:44:34:02:5c:3c:37:0c:bc:6c:5e:e6:19:83:
         36:be:ed:d5:66:36:3e:4b:79:94:70:47:65:37:d0:0e:0b:16:
         29:a4:ef:7a:6d:95:84:5b:7b:66:51:1a:15:9e:6f:13:9b:fe:
         c9:42:82:2b:9d:f6:3e:c4:f8:70:7e:76:7c:b7:e2:e3:c0:91:
         89:be:3f:ae:aa:43:ba:29:cb:6e:cb:2a:ea:e1:b4:59:e9:29:
         be:08:0d:d4:86:0b:ba:46:d0:ee:da:56:51:38:f9:d1:bf:82:
         2a:c2:11:d2:cc:be:db:8d:7a:67:47:39:b5:a7:e7:35:b2:13:
         b6:3a:f7:b3:eb:6c:da:1e:58:46:83:ae:49:15:4d:3a:1d:24:
         85:32:4e:11:2f:b7:bc:e1:b0:08:37:1a:a9:82:c3:ff:52:48:
         c1:7c:c5:3c:18:fd:69:fb:54:49:82:9f:ad:cb:25:fb:cf:42:
         19:2d:3d:fe:8d:05:48:ea:f8:1b:70:bb:21:b2:ad:19:6b:f8:
         d9:70:13:d1:69:11:3d:8c:e8:f4:a8:1c:7b:3e:e9:05:7b:4b:
         07:4e:7a:08
-----BEGIN CERTIFICATE-----
MIIEJjCCAw6gAwIBAgIEEAAAzjANBgkqhkiG9w0BAQUFADBEMQswCQYDVQQGEwJE
RTEPMA0GA1UECAwGSGVzc2VuMRQwEgYDVQQKDAtwcml2YWN5aWRlYTEOMAwGA1UE
AwwFQ0EwMDEwHhcNMTYwMjIyMTUzMTM2WhcNMTcwMjIxMTUzMTM2WjBUMQswCQYD
VQQGEwJERTEPMA0GA1UECAwGSGVzc2VuMRQwEgYDVQQKDAtwcml2YWN5aWRlYTEe
MBwGA1UEAwwVcmVxdWVzdGVyLmxvY2FsZG9tYWluMIIBIjANBgkqhkiG9w0BAQEF
AAOCAQ8AMIIBCgKCAQEAzb4UT/rOAT9CIhsdnK/dktJ/22y3PjlDQ2sTA/EF9Ad0
vHZpKAuvGY7X/OPNxljyyn8IbVP8BwJEJMa0NEyMBP4zDkDiILoCc1r39U9jbszG
tt9UHTc5fVE2Jl+93D+oi2uirrad1iHn30G4eigqaEjKqC3t4elGXlpybbSEOIeR
/ZQRCyiExsIvKvsB+TZ6CXXRM4g8c0FbyL+UiXCh8MC5LlBTHrEXZGn0LYHgqQ0O
Mum6VYqF8RtvSXm0f4jDDT5UiJs9HziMBPPuamMr9cbbtIOqxHhBOn1L4cg+ccob
YVnqxsTKMl7J6b8SKebGw2P+oFXaevFgmE0m7fpwLQIDAQABo4IBDjCCAQowCwYD
VR0PBAQDAgWgMAkGA1UdEwQCMAAwEQYJYIZIAYb4QgEBBAQDAgZAMDMGCWCGSAGG
+EIBDQQmFiRPcGVuU1NMIEdlbmVyYXRlZCBTZXJ2ZXIgQ2VydGlmaWNhdGUwHQYD
VR0OBBYEFFM/7V0JB7Nle6tFySRbCXeACpbtMHQGA1UdIwRtMGuAFPSnwMyRRq9k
85HyJ/jIsm+KhzJzoUikRjBEMQswCQYDVQQGEwJERTEPMA0GA1UECAwGSGVzc2Vu
MRQwEgYDVQQKDAtwcml2YWN5aWRlYTEOMAwGA1UEAwwFQ0EwMDGCCQD7yOusg80S
BzATBgNVHSUEDDAKBggrBgEFBQcDATANBgkqhkiG9w0BAQUFAAOCAQEAUCq28AdO
UMTa1La9SpLdnbwSQ9R+fmNUQ2XFpbLP88+zP3z4e1RbEM9ENAJcPDcMvGxe5hmD
Nr7t1WY2Pkt5lHBHZTfQDgsWKaTvem2VhFt7ZlEaFZ5vE5v+yUKCK532PsT4cH52
fLfi48CRib4/rqpDuinLbssq6uG0WekpvggN1IYLukbQ7tpWUTj50b+CKsIR0sy+
2416Z0c5tafnNbITtjr3s+ts2h5YRoOuSRVNOh0khTJOES+3vOGwCDcaqYLD/1JI
wXzFPBj9aftUSYKfrcsl+89CGS09/o0FSOr4G3C7IbKtGWv42XAT0WkRPYzo9Kgc
ez7pBXtLB056CA==
-----END CERTIFICATE-----
