Certificate:
    Data:
        Version: 3 (0x2)
        Serial Number: 268435692 (0x100000ec)
    Signature Algorithm: sha1WithRSAEncryption
        Issuer: C=DE, ST=Hessen, O=privacyidea, CN=CA001
        Validity
            Not Before: Sep 20 16:58:13 2015 GMT
            Not After : Sep 19 16:58:13 2016 GMT
        Subject: CN=Steve Test/emailAddress=steve@openssl.org
        Subject Public Key Info:
            Public Key Algorithm: rsaEncryption
                Public-Key: (2048 bit)
                Modulus:
                    00:d2:81:89:20:51:48:0f:73:f4:11:32:24:d5:1f:
                    1c:fd:5c:f5:b6:e6:c5:f0:52:81:dc:d2:af:66:4a:
                    7c:93:31:61:5c:af:d1:6d:06:70:03:60:7c:72:0c:
                    88:dd:49:cd:9e:02:6c:d2:5a:d7:53:0f:f3:da:be:
                    69:64:b5:0f:0c:00:e3:b3:50:47:a3:b3:9b:ba:13:
                    50:d6:58:5a:4b:ab:39:e0:11:ca:0a:27:67:03:78:
                    22:66:6d:92:1e:1b:5c:49:ae:e6:6b:d1:8e:3b:9d:
                    06:d3:c6:ac:4d:53:43:10:ab:e8:96:c1:87:82:97:
                    99:8f:20:d3:99:12:37:31:84:e1:8a:ff:29:03:5f:
                    22:90:3e:7f:9b:e0:20:c1:ad:dc:ae:4c:39:1a:31:
                    96:17:02:8c:b2:d9:b4:0d:20:12:9b:7d:86:54:fd:
                    33:fd:c1:2a:62:46:f8:60:96:cf:6e:01:6f:22:df:
                    13:47:e7:97:ec:05:72:23:a3:62:f8:fa:ef:ac:9c:
                    72:f0:37:cb:2f:37:cf:90:a8:27:51:86:c6:d7:78:
                    08:8f:7e:25:a2:15:70:a2:fb:1c:b6:15:5e:a0:97:
                    8b:81:4c:09:28:8a:27:3b:94:bc:71:db:5b:71:37:
                    9a:2b:16:e0:6f:b5:c9:f5:4b:4f:20:ba:65:cf:af:
                    ad:ad
                Exponent: 65537 (0x10001)
        X509v3 extensions:
            X509v3 Key Usage: 
                Digital Signature, Key Encipherment
            X509v3 Basic Constraints: 
                CA:FALSE
            Netscape Cert Type: 
                SSL Server
            Netscape Comment: 
                OpenSSL Generated Server Certificate
            X509v3 Subject Key Identifier: 
                E5:25:6D:3E:AF:0D:DD:3F:4C:F2:45:19:39:D5:14:DB:7E:9C:C0:AD
            X509v3 Authority Key Identifier: 
                keyid:F4:A7:C0:CC:91:46:AF:64:F3:91:F2:27:F8:C8:B2:6F:8A:87:32:73
                DirName:/C=DE/ST=Hessen/O=privacyidea/CN=CA001
                serial:FB:C8:EB:AC:83:CD:12:07

            X509v3 Extended Key Usage: 
                TLS Web Server Authentication
    Signature Algorithm: sha1WithRSAEncryption
         04:27:cf:cd:ee:d6:b8:da:d0:c6:e2:54:5f:ef:b2:aa:c5:35:
         7c:84:0c:c8:45:40:6c:0b:47:2e:3e:c8:78:cd:35:37:39:5b:
         e9:f4:a5:1b:da:dd:2d:4c:d0:b9:0a:c9:9e:02:5f:cb:74:91:
         2b:67:67:eb:63:3d:44:18:52:e9:d0:61:47:c4:10:a0:71:ad:
         c7:54:6e:d9:09:16:26:f9:f8:40:60:2d:40:b8:79:bb:c9:8d:
         6f:8b:6d:ac:0e:6a:18:e4:cf:59:1c:ed:7b:fc:5b:c9:71:24:
         e5:14:1c:c8:98:b0:1e:c6:0a:02:5d:69:e4:4f:87:27:04:bf:
         9a:0c:22:09:e7:c9:78:7e:c9:8d:b2:83:1e:0e:8d:3c:d4:ce:
         26:22:7c:7d:c5:83:88:34:a5:8c:fb:c9:43:84:fa:9f:f7:08:
         ed:07:c1:a8:db:6d:18:f4:1d:84:1a:f8:9f:19:16:d5:13:93:
         8b:a2:b3:91:7a:60:62:32:9e:46:a2:63:21:60:aa:b0:44:f4:
         89:33:86:b6:15:c4:fa:c0:f6:74:75:6a:ad:3d:98:6e:bb:c9:
         58:78:53:d9:00:a4:6b:ca:60:32:4d:4f:52:c7:a7:d4:24:0a:
         f8:11:76:ed:20:9e:f6:ff:5d:0d:fe:b5:ae:15:71:ab:5f:7b:
         44:56:51:f3
-----BEGIN CERTIFICATE-----
MIIECTCCAvGgAwIBAgIEEAAA7DANBgkqhkiG9w0BAQUFADBEMQswCQYDVQQGEwJE
RTEPMA0GA1UECAwGSGVzc2VuMRQwEgYDVQQKDAtwcml2YWN5aWRlYTEOMAwGA1UE
AwwFQ0EwMDEwHhcNMTUwOTIwMTY1ODEzWhcNMTYwOTE5MTY1ODEzWjA3MRMwEQYD
VQQDEwpTdGV2ZSBUZXN0MSAwHgYJKoZIhvcNAQkBFhFzdGV2ZUBvcGVuc3NsLm9y
ZzCCASIwDQYJKoZIhvcNAQEBBQADggEPADCCAQoCggEBANKBiSBRSA9z9BEyJNUf
HP1c9bbmxfBSgdzSr2ZKfJMxYVyv0W0GcANgfHIMiN1JzZ4CbNJa11MP89q+aWS1
DwwA47NQR6Ozm7oTUNZYWkurOeARygonZwN4ImZtkh4bXEmu5mvRjjudBtPGrE1T
QxCr6JbBh4KXmY8g05kSNzGE4Yr/KQNfIpA+f5vgIMGt3K5MORoxlhcCjLLZtA0g
Ept9hlT9M/3BKmJG+GCWz24BbyLfE0fnl+wFciOjYvj676yccvA3yy83z5CoJ1GG
xtd4CI9+JaIVcKL7HLYVXqCXi4FMCSiKJzuUvHHbW3E3misW4G+1yfVLTyC6Zc+v
ra0CAwEAAaOCAQ4wggEKMAsGA1UdDwQEAwIFoDAJBgNVHRMEAjAAMBEGCWCGSAGG
+EIBAQQEAwIGQDAzBglghkgBhvhCAQ0EJhYkT3BlblNTTCBHZW5lcmF0ZWQgU2Vy
dmVyIENlcnRpZmljYXRlMB0GA1UdDgQWBBTlJW0+rw3dP0zyRRk51RTbfpzArTB0
BgNVHSMEbTBrgBT0p8DMkUavZPOR8if4yLJviocyc6FIpEYwRDELMAkGA1UEBhMC
REUxDzANBgNVBAgMBkhlc3NlbjEUMBIGA1UECgwLcHJpdmFjeWlkZWExDjAMBgNV
BAMMBUNBMDAxggkA+8jrrIPNEgcwEwYDVR0lBAwwCgYIKwYBBQUHAwEwDQYJKoZI
hvcNAQEFBQADggEBAAQnz83u1rja0MbiVF/vsqrFNXyEDMhFQGwLRy4+yHjNNTc5
W+n0pRva3S1M0LkKyZ4CX8t0kStnZ+tjPUQYUunQYUfEEKBxrcdUbtkJFib5+EBg
LUC4ebvJjW+LbawOahjkz1kc7Xv8W8lxJOUUHMiYsB7GCgJdaeRPhycEv5oMIgnn
yXh+yY2ygx4OjTzUziYifH3Fg4g0pYz7yUOE+p/3CO0HwajbbRj0HYQa+J8ZFtUT
k4uis5F6YGIynkaiYyFgqrBE9IkzhrYVxPrA9nR1aq09mG67yVh4U9kApGvKYDJN
T1LHp9QkCvgRdu0gnvb/XQ3+ta4Vcatfe0RWUfM=
-----END CERTIFICATE-----
