Certificate:
    Data:
        Version: 3 (0x2)
        Serial Number: 268435673 (0x100000d9)
    Signature Algorithm: sha1WithRSAEncryption
        Issuer: C=DE, ST=Hessen, O=privacyidea, CN=CA001
        Validity
            Not Before: Sep 20 15:49:12 2015 GMT
            Not After : Sep 19 15:49:12 2016 GMT
        Subject: C=DE, ST=Hessen, O=privacyidea, CN=usercert
        Subject Public Key Info:
            Public Key Algorithm: rsaEncryption
                Public-Key: (2048 bit)
                Modulus:
                    00:dc:2f:d1:5f:29:97:d4:7c:c3:53:c8:30:bd:4b:
                    67:70:2c:24:6b:b8:5e:eb:21:7a:48:12:56:7c:81:
                    5c:48:75:b6:68:eb:f6:f2:98:4e:50:51:d1:7f:6c:
                    73:f3:0a:a7:ae:be:48:5e:e5:d6:e1:d9:2a:7c:32:
                    6e:4e:fd:08:f6:5a:54:49:23:73:c3:b9:07:18:d1:
                    ef:b3:ac:f8:8a:dc:94:96:a4:90:3a:8e:74:df:e6:
                    0d:37:1b:bd:5b:b7:25:1a:56:39:da:6f:91:aa:5e:
                    1c:74:f3:f9:7c:14:01:83:12:65:76:c7:bb:fe:36:
                    5b:95:e9:72:65:83:ed:3e:98:30:71:fa:87:dd:a3:
                    36:5a:30:03:2e:26:e0:61:d1:bf:02:3f:b6:06:1f:
                    4a:89:28:1c:5c:a2:ff:4e:be:94:e6:8c:e0:da:82:
                    f1:9d:29:32:48:30:73:b4:04:f6:42:1e:be:f7:e2:
                    32:32:27:3c:9d:89:2f:70:3e:85:9a:6f:5c:c5:09:
                    c0:8c:32:2f:72:22:c9:d2:95:1f:b6:ac:72:60:72:
                    b7:82:4d:6b:ce:5b:e3:00:d0:d2:2f:58:c6:e0:10:
                    e5:51:ca:4d:3b:2e:e6:7e:ab:84:d6:56:f1:93:35:
                    a0:93:64:26:81:75:2f:91:b5:16:06:38:0b:db:cc:
                    2d:07
                Exponent: 65537 (0x10001)
        X509v3 extensions:
            X509v3 Key Usage: 
                Digital Signature, Key Encipherment
            X509v3 Basic Constraints: 
                CA:FALSE
            Netscape Cert Type: 
                SSL Server
            Netscape Comment: 
                OpenSSL Generated Server Certificate
            X509v3 Subject Key Identifier: 
                FC:14:D1:F0:4B:8D:00:90:F2:F5:B8:71:9E:4E:97:C3:92:54:AD:0B
            X509v3 Authority Key Identifier: 
                keyid:F4:A7:C0:CC:91:46:AF:64:F3:91:F2:27:F8:C8:B2:6F:8A:87:32:73
                DirName:/C=DE/ST=Hessen/O=privacyidea/CN=CA001
                serial:FB:C8:EB:AC:83:CD:12:07

            X509v3 Extended Key Usage: 
                TLS Web Server Authentication
    Signature Algorithm: sha1WithRSAEncryption
         13:fd:f1:1d:2a:e8:06:f6:df:bd:3d:04:52:bb:f5:07:ac:68:
         c3:ae:ac:e0:31:39:fe:b5:57:a9:77:c3:9f:b5:89:96:92:28:
         07:f6:45:b5:8b:02:69:43:84:56:a8:18:ac:64:e2:40:52:2f:
         3b:1b:3c:89:71:2e:6b:ed:9b:79:b2:97:92:57:7b:ea:03:77:
         0d:88:8a:79:0d:c0:d6:1e:2a:96:81:87:c9:f6:3e:17:03:f4:
         64:d4:10:19:3a:ee:b1:17:6c:06:8d:9f:36:f6:b8:7d:6c:eb:
         3d:86:b4:7f:b3:73:34:3f:c6:00:58:d2:d3:f3:13:42:32:50:
         62:4d:38:a9:23:08:90:e8:e5:71:22:a9:31:53:a2:85:fa:6a:
         93:c4:ad:5c:e8:d8:69:cd:93:cc:62:34:c1:c7:f9:f1:e1:9a:
         57:83:67:5c:41:bf:11:22:a5:8a:e1:97:67:9d:76:8b:bc:83:
         fc:60:a2:01:26:8a:5c:ee:61:d8:21:57:95:36:98:48:84:ad:
         5d:11:c1:79:45:bf:49:bf:e0:fc:7d:43:87:b5:6a:a7:39:4c:
         6e:02:8b:0a:e8:4f:04:00:66:6f:12:00:2f:ed:c3:d4:e7:2a:
         6b:b6:35:19:54:ae:66:c6:91:fa:37:1f:d5:70:54:d4:64:b6:
         2b:ab:30:d9
-----BEGIN CERTIFICATE-----
MIIEGTCCAwGgAwIBAgIEEAAA2TANBgkqhkiG9w0BAQUFADBEMQswCQYDVQQGEwJE
RTEPMA0GA1UECAwGSGVzc2VuMRQwEgYDVQQKDAtwcml2YWN5aWRlYTEOMAwGA1UE
AwwFQ0EwMDEwHhcNMTUwOTIwMTU0OTEyWhcNMTYwOTE5MTU0OTEyWjBHMQswCQYD
VQQGEwJERTEPMA0GA1UECAwGSGVzc2VuMRQwEgYDVQQKDAtwcml2YWN5aWRlYTER
MA8GA1UEAwwIdXNlcmNlcnQwggEiMA0GCSqGSIb3DQEBAQUAA4IBDwAwggEKAoIB
AQDcL9FfKZfUfMNTyDC9S2dwLCRruF7rIXpIElZ8gVxIdbZo6/bymE5QUdF/bHPz
Cqeuvkhe5dbh2Sp8Mm5O/Qj2WlRJI3PDuQcY0e+zrPiK3JSWpJA6jnTf5g03G71b
tyUaVjnab5GqXhx08/l8FAGDEmV2x7v+NluV6XJlg+0+mDBx+ofdozZaMAMuJuBh
0b8CP7YGH0qJKBxcov9OvpTmjODagvGdKTJIMHO0BPZCHr734jIyJzydiS9wPoWa
b1zFCcCMMi9yIsnSlR+2rHJgcreCTWvOW+MA0NIvWMbgEOVRyk07LuZ+q4TWVvGT
NaCTZCaBdS+RtRYGOAvbzC0HAgMBAAGjggEOMIIBCjALBgNVHQ8EBAMCBaAwCQYD
VR0TBAIwADARBglghkgBhvhCAQEEBAMCBkAwMwYJYIZIAYb4QgENBCYWJE9wZW5T
U0wgR2VuZXJhdGVkIFNlcnZlciBDZXJ0aWZpY2F0ZTAdBgNVHQ4EFgQU/BTR8EuN
AJDy9bhxnk6Xw5JUrQswdAYDVR0jBG0wa4AU9KfAzJFGr2TzkfIn+Miyb4qHMnOh
SKRGMEQxCzAJBgNVBAYTAkRFMQ8wDQYDVQQIDAZIZXNzZW4xFDASBgNVBAoMC3By
aXZhY3lpZGVhMQ4wDAYDVQQDDAVDQTAwMYIJAPvI66yDzRIHMBMGA1UdJQQMMAoG
CCsGAQUFBwMBMA0GCSqGSIb3DQEBBQUAA4IBAQAT/fEdKugG9t+9PQRSu/UHrGjD
rqzgMTn+tVepd8OftYmWkigH9kW1iwJpQ4RWqBisZOJAUi87GzyJcS5r7Zt5speS
V3vqA3cNiIp5DcDWHiqWgYfJ9j4XA/Rk1BAZOu6xF2wGjZ829rh9bOs9hrR/s3M0
P8YAWNLT8xNCMlBiTTipIwiQ6OVxIqkxU6KF+mqTxK1c6NhpzZPMYjTBx/nx4ZpX
g2dcQb8RIqWK4ZdnnXaLvIP8YKIBJopc7mHYIVeVNphIhK1dEcF5Rb9Jv+D8fUOH
tWqnOUxuAosK6E8EAGZvEgAv7cPU5yprtjUZVK5mxpH6Nx/VcFTUZLYrqzDZ
-----END CERTIFICATE-----
