Certificate:
    Data:
        Version: 3 (0x2)
        Serial Number: 268435674 (0x100000da)
    Signature Algorithm: sha1WithRSAEncryption
        Issuer: C=DE, ST=Hessen, O=privacyidea, CN=CA001
        Validity
            Not Before: Sep 20 15:49:12 2015 GMT
            Not After : Sep 19 15:49:12 2016 GMT
        Subject: CN=Steve Test/emailAddress=steve@openssl.org
        Subject Public Key Info:
            Public Key Algorithm: rsaEncryption
                Public-Key: (2048 bit)
                Modulus:
                    00:d2:81:89:20:51:48:0f:73:f4:11:32:24:d5:1f:
                    1c:fd:5c:f5:b6:e6:c5:f0:52:81:dc:d2:af:66:4a:
                    7c:93:31:61:5c:af:d1:6d:06:70:03:60:7c:72:0c:
                    88:dd:49:cd:9e:02:6c:d2:5a:d7:53:0f:f3:da:be:
                    69:64:b5:0f:0c:00:e3:b3:50:47:a3:b3:9b:ba:13:
                    50:d6:58:5a:4b:ab:39:e0:11:ca:0a:27:67:03:78:
                    22:66:6d:92:1e:1b:5c:49:ae:e6:6b:d1:8e:3b:9d:
                    06:d3:c6:ac:4d:53:43:10:ab:e8:96:c1:87:82:97:
                    99:8f:20:d3:99:12:37:31:84:e1:8a:ff:29:03:5f:
                    22:90:3e:7f:9b:e0:20:c1:ad:dc:ae:4c:39:1a:31:
                    96:17:02:8c:b2:d9:b4:0d:20:12:9b:7d:86:54:fd:
                    33:fd:c1:2a:62:46:f8:60:96:cf:6e:01:6f:22:df:
                    13:47:e7:97:ec:05:72:23:a3:62:f8:fa:ef:ac:9c:
                    72:f0:37:cb:2f:37:cf:90:a8:27:51:86:c6:d7:78:
                    08:8f:7e:25:a2:15:70:a2:fb:1c:b6:15:5e:a0:97:
                    8b:81:4c:09:28:8a:27:3b:94:bc:71:db:5b:71:37:
                    9a:2b:16:e0:6f:b5:c9:f5:4b:4f:20:ba:65:cf:af:
                    ad:ad
                Exponent: 65537 (0x10001)
        X509v3 extensions:
            X509v3 Key Usage: 
                Digital Signature, Key Encipherment
            X509v3 Basic Constraints: 
                CA:FALSE
            Netscape Cert Type: 
                SSL Server
            Netscape Comment: 
                OpenSSL Generated Server Certificate
            X509v3 Subject Key Identifier: 
                E5:25:6D:3E:AF:0D:DD:3F:4C:F2:45:19:39:D5:14:DB:7E:9C:C0:AD
            X509v3 Authority Key Identifier: 
                keyid:F4:A7:C0:CC:91:46:AF:64:F3:91:F2:27:F8:C8:B2:6F:8A:87:32:73
                DirName:/C=DE/ST=Hessen/O=privacyidea/CN=CA001
                serial:FB:C8:EB:AC:83:CD:12:07

            X509v3 Extended Key Usage: 
                TLS Web Server Authentication
    Signature Algorithm: sha1WithRSAEncryption
         14:41:57:a6:7e:a2:33:ca:a9:23:ac:56:b7:6a:7b:6b:a8:65:
         58:1b:5b:75:86:17:11:ea:49:24:db:4a:3b:63:ad:0d:d0:dd:
         35:e5:3f:07:8b:7b:5c:97:65:39:b9:ce:a8:8d:73:f0:2e:2d:
         01:30:2a:5e:95:8f:2c:ae:a5:10:88:26:41:c7:17:f5:67:70:
         ba:4b:0a:21:9e:34:91:6e:f0:1b:0e:0e:91:db:ab:4b:23:65:
         ec:62:57:63:d7:db:43:5e:b4:e7:75:90:e9:7c:7e:7d:f0:a4:
         b6:10:75:eb:93:a1:88:be:e8:c7:bb:d7:e7:a9:50:ba:f1:f8:
         10:24:ed:9c:5b:6e:3e:a9:e1:d3:49:15:44:c3:b3:e0:75:25:
         12:ce:58:9a:d5:11:39:4d:b4:9f:68:9c:2b:b1:e8:59:0b:42:
         5b:26:fc:6a:c5:de:c2:97:dd:c9:81:98:d5:d4:40:80:d5:38:
         c0:d8:b6:6a:7f:19:77:52:ff:1a:e6:d8:93:71:cf:95:13:54:
         16:f5:19:20:11:a0:9b:7c:c4:43:00:0a:c4:5d:1f:fe:61:6f:
         77:d8:d2:d2:dd:55:57:9c:44:17:2a:b5:42:24:da:67:29:1a:
         76:f0:f0:43:01:cd:0b:e0:63:97:ba:65:ae:e0:c6:68:f2:dc:
         b2:05:7b:0a
-----BEGIN CERTIFICATE-----
MIIECTCCAvGgAwIBAgIEEAAA2jANBgkqhkiG9w0BAQUFADBEMQswCQYDVQQGEwJE
RTEPMA0GA1UECAwGSGVzc2VuMRQwEgYDVQQKDAtwcml2YWN5aWRlYTEOMAwGA1UE
AwwFQ0EwMDEwHhcNMTUwOTIwMTU0OTEyWhcNMTYwOTE5MTU0OTEyWjA3MRMwEQYD
VQQDEwpTdGV2ZSBUZXN0MSAwHgYJKoZIhvcNAQkBFhFzdGV2ZUBvcGVuc3NsLm9y
ZzCCASIwDQYJKoZIhvcNAQEBBQADggEPADCCAQoCggEBANKBiSBRSA9z9BEyJNUf
HP1c9bbmxfBSgdzSr2ZKfJMxYVyv0W0GcANgfHIMiN1JzZ4CbNJa11MP89q+aWS1
DwwA47NQR6Ozm7oTUNZYWkurOeARygonZwN4ImZtkh4bXEmu5mvRjjudBtPGrE1T
QxCr6JbBh4KXmY8g05kSNzGE4Yr/KQNfIpA+f5vgIMGt3K5MORoxlhcCjLLZtA0g
Ept9hlT9M/3BKmJG+GCWz24BbyLfE0fnl+wFciOjYvj676yccvA3yy83z5CoJ1GG
xtd4CI9+JaIVcKL7HLYVXqCXi4FMCSiKJzuUvHHbW3E3misW4G+1yfVLTyC6Zc+v
ra0CAwEAAaOCAQ4wggEKMAsGA1UdDwQEAwIFoDAJBgNVHRMEAjAAMBEGCWCGSAGG
+EIBAQQEAwIGQDAzBglghkgBhvhCAQ0EJhYkT3BlblNTTCBHZW5lcmF0ZWQgU2Vy
dmVyIENlcnRpZmljYXRlMB0GA1UdDgQWBBTlJW0+rw3dP0zyRRk51RTbfpzArTB0
BgNVHSMEbTBrgBT0p8DMkUavZPOR8if4yLJviocyc6FIpEYwRDELMAkGA1UEBhMC
REUxDzANBgNVBAgMBkhlc3NlbjEUMBIGA1UECgwLcHJpdmFjeWlkZWExDjAMBgNV
BAMMBUNBMDAxggkA+8jrrIPNEgcwEwYDVR0lBAwwCgYIKwYBBQUHAwEwDQYJKoZI
hvcNAQEFBQADggEBABRBV6Z+ojPKqSOsVrdqe2uoZVgbW3WGFxHqSSTbSjtjrQ3Q
3TXlPweLe1yXZTm5zqiNc/AuLQEwKl6VjyyupRCIJkHHF/VncLpLCiGeNJFu8BsO
DpHbq0sjZexiV2PX20NetOd1kOl8fn3wpLYQdeuToYi+6Me71+epULrx+BAk7Zxb
bj6p4dNJFUTDs+B1JRLOWJrVETlNtJ9onCux6FkLQlsm/GrF3sKX3cmBmNXUQIDV
OMDYtmp/GXdS/xrm2JNxz5UTVBb1GSARoJt8xEMACsRdH/5hb3fY0tLdVVecRBcq
tUIk2mcpGnbw8EMBzQvgY5e6Za7gxmjy3LIFewo=
-----END CERTIFICATE-----
