Certificate:
    Data:
        Version: 3 (0x2)
        Serial Number: 268435657 (0x100000c9)
    Signature Algorithm: sha1WithRSAEncryption
        Issuer: C=DE, ST=Hessen, O=privacyidea, CN=CA001
        Validity
            Not Before: Mar 15 11:03:13 2016 GMT
            Not After : Mar 15 11:03:13 2017 GMT
        Subject: C=DE, ST=Hessen, O=privacyidea, CN=requester.localdomain
        Subject Public Key Info:
            Public Key Algorithm: rsaEncryption
                Public-Key: (2048 bit)
                Modulus:
                    00:cd:be:14:4f:fa:ce:01:3f:42:22:1b:1d:9c:af:
                    dd:92:d2:7f:db:6c:b7:3e:39:43:43:6b:13:03:f1:
                    05:f4:07:74:bc:76:69:28:0b:af:19:8e:d7:fc:e3:
                    cd:c6:58:f2:ca:7f:08:6d:53:fc:07:02:44:24:c6:
                    b4:34:4c:8c:04:fe:33:0e:40:e2:20:ba:02:73:5a:
                    f7:f5:4f:63:6e:cc:c6:b6:df:54:1d:37:39:7d:51:
                    36:26:5f:bd:dc:3f:a8:8b:6b:a2:ae:b6:9d:d6:21:
                    e7:df:41:b8:7a:28:2a:68:48:ca:a8:2d:ed:e1:e9:
                    46:5e:5a:72:6d:b4:84:38:87:91:fd:94:11:0b:28:
                    84:c6:c2:2f:2a:fb:01:f9:36:7a:09:75:d1:33:88:
                    3c:73:41:5b:c8:bf:94:89:70:a1:f0:c0:b9:2e:50:
                    53:1e:b1:17:64:69:f4:2d:81:e0:a9:0d:0e:32:e9:
                    ba:55:8a:85:f1:1b:6f:49:79:b4:7f:88:c3:0d:3e:
                    54:88:9b:3d:1f:38:8c:04:f3:ee:6a:63:2b:f5:c6:
                    db:b4:83:aa:c4:78:41:3a:7d:4b:e1:c8:3e:71:ca:
                    1b:61:59:ea:c6:c4:ca:32:5e:c9:e9:bf:12:29:e6:
                    c6:c3:63:fe:a0:55:da:7a:f1:60:98:4d:26:ed:fa:
                    70:2d
                Exponent: 65537 (0x10001)
        X509v3 extensions:
            X509v3 Key Usage: 
                Digital Signature, Key Encipherment
            X509v3 Basic Constraints: 
                CA:FALSE
            Netscape Cert Type: 
                SSL Server
            Netscape Comment: 
                OpenSSL Generated Server Certificate
            X509v3 Subject Key Identifier: 
                53:3F:ED:5D:09:07:B3:65:7B:AB:45:C9:24:5B:09:77:80:0A:96:ED
            X509v3 Authority Key Identifier: 
                keyid:F4:A7:C0:CC:91:46:AF:64:F3:91:F2:27:F8:C8:B2:6F:8A:87:32:73
                DirName:/C=DE/ST=Hessen/O=privacyidea/CN=CA001
                serial:FB:C8:EB:AC:83:CD:12:07

            X509v3 Extended Key Usage: 
                TLS Web Server Authentication
    Signature Algorithm: sha1WithRSAEncryption
         10:19:51:52:6c:dd:ec:0d:d3:dc:d4:46:54:43:34:dc:29:bf:
         d5:78:b3:16:f3:47:9d:db:1e:4d:b1:ea:1b:4e:37:31:b5:49:
         36:6b:9e:fe:d9:7b:68:93:13:97:90:f2:0f:76:51:ad:29:5a:
         b6:4a:31:05:02:50:a6:f5:b3:e8:0b:e9:df:da:2c:3d:1b:ef:
         d1:54:d7:32:f4:d0:ee:68:5c:fa:81:d8:d4:04:d7:c7:f5:89:
         a7:9a:5b:2b:73:0c:31:1d:c2:b7:f4:36:8c:3f:e7:da:f6:19:
         c0:cd:6e:0d:94:d2:fa:86:1b:2f:84:11:50:2f:e6:34:8f:03:
         b1:52:48:8f:3b:5a:f2:b3:67:36:94:83:9c:8b:bb:0f:fc:36:
         97:a5:dc:c8:a3:84:18:76:53:ba:1a:42:34:23:21:b1:a3:4a:
         78:fa:73:b8:19:3f:e9:35:bd:27:9b:cb:2e:36:9c:33:ce:8f:
         c8:28:83:2b:46:c0:65:5f:08:43:3f:da:6d:b3:1a:43:14:6d:
         86:db:d7:ac:fc:10:9c:4e:62:e7:7e:db:6e:54:6c:00:96:62:
         3f:00:4f:5f:8e:22:67:48:e5:65:13:eb:5b:f9:71:11:e5:10:
         7d:c9:6f:52:af:1d:7f:ec:82:bb:15:6b:ff:9e:26:79:08:67:
         cc:50:0c:c9
-----BEGIN CERTIFICATE-----
MIIEJjCCAw6gAwIBAgIEEAAAyTANBgkqhkiG9w0BAQUFADBEMQswCQYDVQQGEwJE
RTEPMA0GA1UECAwGSGVzc2VuMRQwEgYDVQQKDAtwcml2YWN5aWRlYTEOMAwGA1UE
AwwFQ0EwMDEwHhcNMTYwMzE1MTEwMzEzWhcNMTcwMzE1MTEwMzEzWjBUMQswCQYD
VQQGEwJERTEPMA0GA1UECAwGSGVzc2VuMRQwEgYDVQQKDAtwcml2YWN5aWRlYTEe
MBwGA1UEAwwVcmVxdWVzdGVyLmxvY2FsZG9tYWluMIIBIjANBgkqhkiG9w0BAQEF
AAOCAQ8AMIIBCgKCAQEAzb4UT/rOAT9CIhsdnK/dktJ/22y3PjlDQ2sTA/EF9Ad0
vHZpKAuvGY7X/OPNxljyyn8IbVP8BwJEJMa0NEyMBP4zDkDiILoCc1r39U9jbszG
tt9UHTc5fVE2Jl+93D+oi2uirrad1iHn30G4eigqaEjKqC3t4elGXlpybbSEOIeR
/ZQRCyiExsIvKvsB+TZ6CXXRM4g8c0FbyL+UiXCh8MC5LlBTHrEXZGn0LYHgqQ0O
Mum6VYqF8RtvSXm0f4jDDT5UiJs9HziMBPPuamMr9cbbtIOqxHhBOn1L4cg+ccob
YVnqxsTKMl7J6b8SKebGw2P+oFXaevFgmE0m7fpwLQIDAQABo4IBDjCCAQowCwYD
VR0PBAQDAgWgMAkGA1UdEwQCMAAwEQYJYIZIAYb4QgEBBAQDAgZAMDMGCWCGSAGG
+EIBDQQmFiRPcGVuU1NMIEdlbmVyYXRlZCBTZXJ2ZXIgQ2VydGlmaWNhdGUwHQYD
VR0OBBYEFFM/7V0JB7Nle6tFySRbCXeACpbtMHQGA1UdIwRtMGuAFPSnwMyRRq9k
85HyJ/jIsm+KhzJzoUikRjBEMQswCQYDVQQGEwJERTEPMA0GA1UECAwGSGVzc2Vu
MRQwEgYDVQQKDAtwcml2YWN5aWRlYTEOMAwGA1UEAwwFQ0EwMDGCCQD7yOusg80S
BzATBgNVHSUEDDAKBggrBgEFBQcDATANBgkqhkiG9w0BAQUFAAOCAQEAEBlRUmzd
7A3T3NRGVEM03Cm/1XizFvNHndseTbHqG043MbVJNmue/tl7aJMTl5DyD3ZRrSla
tkoxBQJQpvWz6Avp39osPRvv0VTXMvTQ7mhc+oHY1ATXx/WJp5pbK3MMMR3Ct/Q2
jD/n2vYZwM1uDZTS+oYbL4QRUC/mNI8DsVJIjzta8rNnNpSDnIu7D/w2l6XcyKOE
GHZTuhpCNCMhsaNKePpzuBk/6TW9J5vLLjacM86PyCiDK0bAZV8IQz/abbMaQxRt
htvXrPwQnE5i537bblRsAJZiPwBPX44iZ0jlZRPrW/lxEeUQfclvUq8df+yCuxVr
/54meQhnzFAMyQ==
-----END CERTIFICATE-----
