Certificate:
    Data:
        Version: 3 (0x2)
        Serial Number: 268435658 (0x100000ca)
    Signature Algorithm: sha1WithRSAEncryption
        Issuer: C=DE, ST=Hessen, O=privacyidea, CN=CA001
        Validity
            Not Before: Mar 15 11:04:22 2016 GMT
            Not After : Mar 15 11:04:22 2017 GMT
        Subject: C=DE, ST=Hessen, O=privacyidea, CN=requester.localdomain
        Subject Public Key Info:
            Public Key Algorithm: rsaEncryption
                Public-Key: (2048 bit)
                Modulus:
                    00:cd:be:14:4f:fa:ce:01:3f:42:22:1b:1d:9c:af:
                    dd:92:d2:7f:db:6c:b7:3e:39:43:43:6b:13:03:f1:
                    05:f4:07:74:bc:76:69:28:0b:af:19:8e:d7:fc:e3:
                    cd:c6:58:f2:ca:7f:08:6d:53:fc:07:02:44:24:c6:
                    b4:34:4c:8c:04:fe:33:0e:40:e2:20:ba:02:73:5a:
                    f7:f5:4f:63:6e:cc:c6:b6:df:54:1d:37:39:7d:51:
                    36:26:5f:bd:dc:3f:a8:8b:6b:a2:ae:b6:9d:d6:21:
                    e7:df:41:b8:7a:28:2a:68:48:ca:a8:2d:ed:e1:e9:
                    46:5e:5a:72:6d:b4:84:38:87:91:fd:94:11:0b:28:
                    84:c6:c2:2f:2a:fb:01:f9:36:7a:09:75:d1:33:88:
                    3c:73:41:5b:c8:bf:94:89:70:a1:f0:c0:b9:2e:50:
                    53:1e:b1:17:64:69:f4:2d:81:e0:a9:0d:0e:32:e9:
                    ba:55:8a:85:f1:1b:6f:49:79:b4:7f:88:c3:0d:3e:
                    54:88:9b:3d:1f:38:8c:04:f3:ee:6a:63:2b:f5:c6:
                    db:b4:83:aa:c4:78:41:3a:7d:4b:e1:c8:3e:71:ca:
                    1b:61:59:ea:c6:c4:ca:32:5e:c9:e9:bf:12:29:e6:
                    c6:c3:63:fe:a0:55:da:7a:f1:60:98:4d:26:ed:fa:
                    70:2d
                Exponent: 65537 (0x10001)
        X509v3 extensions:
            X509v3 Key Usage: 
                Digital Signature, Key Encipherment
            X509v3 Basic Constraints: 
                CA:FALSE
            Netscape Cert Type: 
                SSL Server
            Netscape Comment: 
                OpenSSL Generated Server Certificate
            X509v3 Subject Key Identifier: 
                53:3F:ED:5D:09:07:B3:65:7B:AB:45:C9:24:5B:09:77:80:0A:96:ED
            X509v3 Authority Key Identifier: 
                keyid:F4:A7:C0:CC:91:46:AF:64:F3:91:F2:27:F8:C8:B2:6F:8A:87:32:73
                DirName:/C=DE/ST=Hessen/O=privacyidea/CN=CA001
                serial:FB:C8:EB:AC:83:CD:12:07

            X509v3 Extended Key Usage: 
                TLS Web Server Authentication
    Signature Algorithm: sha1WithRSAEncryption
         5e:6c:c4:dd:df:66:f5:54:10:63:8c:7a:08:2a:fb:2d:6d:f2:
         da:8c:2f:b9:71:d4:46:88:65:ef:f6:9a:83:83:39:b5:7e:9a:
         26:90:59:ab:3b:be:98:83:b1:37:b7:ac:05:9a:31:31:4e:d2:
         f8:f9:01:20:d8:ae:b7:82:f4:a9:6b:e8:66:07:77:45:6b:e0:
         0d:bd:7b:54:15:0f:83:d9:4d:48:e6:29:34:1d:d5:73:c4:07:
         41:5e:d5:a4:e9:8d:30:1b:56:82:92:41:34:b1:10:a8:cd:9e:
         b6:36:4b:96:c9:f1:5b:53:ff:49:50:9a:b9:ab:bc:9b:c4:95:
         d4:06:e0:60:a7:ad:32:90:f8:23:9a:16:fd:41:02:12:d5:85:
         9c:e8:f4:93:89:b6:4d:3d:10:f4:68:ef:8d:8e:c6:bd:cc:86:
         ba:28:ba:36:c6:08:78:c8:36:ae:68:d7:1b:48:a9:6a:08:56:
         a3:d3:4f:39:89:e2:c1:db:f1:d4:b6:7f:5f:aa:78:0d:88:24:
         45:70:a7:c9:a4:8c:39:2d:2d:13:cd:2b:63:40:e2:b7:ca:2a:
         0a:66:6f:13:0b:c7:9b:21:28:98:9e:19:57:df:74:d2:52:f9:
         49:b0:61:5c:2d:fc:5b:88:c3:bd:95:51:0e:3b:90:54:95:c9:
         e2:28:76:ff
-----BEGIN CERTIFICATE-----
MIIEJjCCAw6gAwIBAgIEEAAAyjANBgkqhkiG9w0BAQUFADBEMQswCQYDVQQGEwJE
RTEPMA0GA1UECAwGSGVzc2VuMRQwEgYDVQQKDAtwcml2YWN5aWRlYTEOMAwGA1UE
AwwFQ0EwMDEwHhcNMTYwMzE1MTEwNDIyWhcNMTcwMzE1MTEwNDIyWjBUMQswCQYD
VQQGEwJERTEPMA0GA1UECAwGSGVzc2VuMRQwEgYDVQQKDAtwcml2YWN5aWRlYTEe
MBwGA1UEAwwVcmVxdWVzdGVyLmxvY2FsZG9tYWluMIIBIjANBgkqhkiG9w0BAQEF
AAOCAQ8AMIIBCgKCAQEAzb4UT/rOAT9CIhsdnK/dktJ/22y3PjlDQ2sTA/EF9Ad0
vHZpKAuvGY7X/OPNxljyyn8IbVP8BwJEJMa0NEyMBP4zDkDiILoCc1r39U9jbszG
tt9UHTc5fVE2Jl+93D+oi2uirrad1iHn30G4eigqaEjKqC3t4elGXlpybbSEOIeR
/ZQRCyiExsIvKvsB+TZ6CXXRM4g8c0FbyL+UiXCh8MC5LlBTHrEXZGn0LYHgqQ0O
Mum6VYqF8RtvSXm0f4jDDT5UiJs9HziMBPPuamMr9cbbtIOqxHhBOn1L4cg+ccob
YVnqxsTKMl7J6b8SKebGw2P+oFXaevFgmE0m7fpwLQIDAQABo4IBDjCCAQowCwYD
VR0PBAQDAgWgMAkGA1UdEwQCMAAwEQYJYIZIAYb4QgEBBAQDAgZAMDMGCWCGSAGG
+EIBDQQmFiRPcGVuU1NMIEdlbmVyYXRlZCBTZXJ2ZXIgQ2VydGlmaWNhdGUwHQYD
VR0OBBYEFFM/7V0JB7Nle6tFySRbCXeACpbtMHQGA1UdIwRtMGuAFPSnwMyRRq9k
85HyJ/jIsm+KhzJzoUikRjBEMQswCQYDVQQGEwJERTEPMA0GA1UECAwGSGVzc2Vu
MRQwEgYDVQQKDAtwcml2YWN5aWRlYTEOMAwGA1UEAwwFQ0EwMDGCCQD7yOusg80S
BzATBgNVHSUEDDAKBggrBgEFBQcDATANBgkqhkiG9w0BAQUFAAOCAQEAXmzE3d9m
9VQQY4x6CCr7LW3y2owvuXHURohl7/aag4M5tX6aJpBZqzu+mIOxN7esBZoxMU7S
+PkBINiut4L0qWvoZgd3RWvgDb17VBUPg9lNSOYpNB3Vc8QHQV7VpOmNMBtWgpJB
NLEQqM2etjZLlsnxW1P/SVCauau8m8SV1AbgYKetMpD4I5oW/UECEtWFnOj0k4m2
TT0Q9GjvjY7GvcyGuii6NsYIeMg2rmjXG0ipaghWo9NPOYniwdvx1LZ/X6p4DYgk
RXCnyaSMOS0tE80rY0Dit8oqCmZvEwvHmyEomJ4ZV9900lL5SbBhXC38W4jDvZVR
DjuQVJXJ4ih2/w==
-----END CERTIFICATE-----
