Certificate:
    Data:
        Version: 3 (0x2)
        Serial Number: 268435669 (0x100000d5)
    Signature Algorithm: sha1WithRSAEncryption
        Issuer: C=DE, ST=Hessen, O=privacyidea, CN=CA001
        Validity
            Not Before: Sep 20 15:38:37 2015 GMT
            Not After : Sep 19 15:38:37 2016 GMT
        Subject: C=DE, ST=Hessen, O=privacyidea, CN=requester.localdomain
        Subject Public Key Info:
            Public Key Algorithm: rsaEncryption
                Public-Key: (2048 bit)
                Modulus:
                    00:cd:be:14:4f:fa:ce:01:3f:42:22:1b:1d:9c:af:
                    dd:92:d2:7f:db:6c:b7:3e:39:43:43:6b:13:03:f1:
                    05:f4:07:74:bc:76:69:28:0b:af:19:8e:d7:fc:e3:
                    cd:c6:58:f2:ca:7f:08:6d:53:fc:07:02:44:24:c6:
                    b4:34:4c:8c:04:fe:33:0e:40:e2:20:ba:02:73:5a:
                    f7:f5:4f:63:6e:cc:c6:b6:df:54:1d:37:39:7d:51:
                    36:26:5f:bd:dc:3f:a8:8b:6b:a2:ae:b6:9d:d6:21:
                    e7:df:41:b8:7a:28:2a:68:48:ca:a8:2d:ed:e1:e9:
                    46:5e:5a:72:6d:b4:84:38:87:91:fd:94:11:0b:28:
                    84:c6:c2:2f:2a:fb:01:f9:36:7a:09:75:d1:33:88:
                    3c:73:41:5b:c8:bf:94:89:70:a1:f0:c0:b9:2e:50:
                    53:1e:b1:17:64:69:f4:2d:81:e0:a9:0d:0e:32:e9:
                    ba:55:8a:85:f1:1b:6f:49:79:b4:7f:88:c3:0d:3e:
                    54:88:9b:3d:1f:38:8c:04:f3:ee:6a:63:2b:f5:c6:
                    db:b4:83:aa:c4:78:41:3a:7d:4b:e1:c8:3e:71:ca:
                    1b:61:59:ea:c6:c4:ca:32:5e:c9:e9:bf:12:29:e6:
                    c6:c3:63:fe:a0:55:da:7a:f1:60:98:4d:26:ed:fa:
                    70:2d
                Exponent: 65537 (0x10001)
        X509v3 extensions:
            X509v3 Key Usage: 
                Digital Signature, Key Encipherment
            X509v3 Basic Constraints: 
                CA:FALSE
            Netscape Cert Type: 
                SSL Server
            Netscape Comment: 
                OpenSSL Generated Server Certificate
            X509v3 Subject Key Identifier: 
                53:3F:ED:5D:09:07:B3:65:7B:AB:45:C9:24:5B:09:77:80:0A:96:ED
            X509v3 Authority Key Identifier: 
                keyid:F4:A7:C0:CC:91:46:AF:64:F3:91:F2:27:F8:C8:B2:6F:8A:87:32:73
                DirName:/C=DE/ST=Hessen/O=privacyidea/CN=CA001
                serial:FB:C8:EB:AC:83:CD:12:07

            X509v3 Extended Key Usage: 
                TLS Web Server Authentication
    Signature Algorithm: sha1WithRSAEncryption
         55:5a:fb:08:57:28:8f:6b:70:81:1c:50:59:08:2f:a9:f7:33:
         8e:b7:2e:48:79:de:f6:17:ec:34:0d:5d:4f:ac:7f:be:55:5e:
         bf:e9:ff:d2:34:c4:c1:0c:66:0a:f7:83:c1:db:c3:eb:01:57:
         45:d0:19:85:10:ef:12:e0:43:95:0d:93:49:73:d8:86:90:41:
         06:36:1f:99:b0:35:aa:6c:10:4f:b4:33:b3:14:9d:2e:d4:d9:
         9f:21:35:31:2f:45:f4:da:71:3d:3b:d5:34:d9:02:b9:87:6d:
         3e:f8:4e:aa:55:a0:53:d8:1c:5b:e3:c6:68:ce:55:d7:03:ad:
         15:24:19:4c:59:87:cd:58:ea:20:ba:d6:2c:57:03:39:e9:e0:
         ca:1e:70:10:11:8f:36:d8:97:6a:21:1a:55:fe:90:fb:84:ac:
         75:bd:ff:aa:37:06:c4:ec:df:75:19:7d:bc:d0:61:b5:b7:58:
         da:dd:b7:8d:51:db:15:70:6b:26:4f:65:50:f7:a4:e7:a0:3c:
         e6:1e:91:98:a0:69:66:21:7b:bf:30:72:64:ad:a6:d5:46:40:
         be:94:95:59:ce:9b:b2:48:32:cf:cf:fc:c7:e9:39:ed:bd:8f:
         ba:75:25:54:fc:26:87:63:15:73:30:77:93:52:05:36:41:c2:
         1c:4c:7a:5e
-----BEGIN CERTIFICATE-----
MIIEJjCCAw6gAwIBAgIEEAAA1TANBgkqhkiG9w0BAQUFADBEMQswCQYDVQQGEwJE
RTEPMA0GA1UECAwGSGVzc2VuMRQwEgYDVQQKDAtwcml2YWN5aWRlYTEOMAwGA1UE
AwwFQ0EwMDEwHhcNMTUwOTIwMTUzODM3WhcNMTYwOTE5MTUzODM3WjBUMQswCQYD
VQQGEwJERTEPMA0GA1UECAwGSGVzc2VuMRQwEgYDVQQKDAtwcml2YWN5aWRlYTEe
MBwGA1UEAwwVcmVxdWVzdGVyLmxvY2FsZG9tYWluMIIBIjANBgkqhkiG9w0BAQEF
AAOCAQ8AMIIBCgKCAQEAzb4UT/rOAT9CIhsdnK/dktJ/22y3PjlDQ2sTA/EF9Ad0
vHZpKAuvGY7X/OPNxljyyn8IbVP8BwJEJMa0NEyMBP4zDkDiILoCc1r39U9jbszG
tt9UHTc5fVE2Jl+93D+oi2uirrad1iHn30G4eigqaEjKqC3t4elGXlpybbSEOIeR
/ZQRCyiExsIvKvsB+TZ6CXXRM4g8c0FbyL+UiXCh8MC5LlBTHrEXZGn0LYHgqQ0O
Mum6VYqF8RtvSXm0f4jDDT5UiJs9HziMBPPuamMr9cbbtIOqxHhBOn1L4cg+ccob
YVnqxsTKMl7J6b8SKebGw2P+oFXaevFgmE0m7fpwLQIDAQABo4IBDjCCAQowCwYD
VR0PBAQDAgWgMAkGA1UdEwQCMAAwEQYJYIZIAYb4QgEBBAQDAgZAMDMGCWCGSAGG
+EIBDQQmFiRPcGVuU1NMIEdlbmVyYXRlZCBTZXJ2ZXIgQ2VydGlmaWNhdGUwHQYD
VR0OBBYEFFM/7V0JB7Nle6tFySRbCXeACpbtMHQGA1UdIwRtMGuAFPSnwMyRRq9k
85HyJ/jIsm+KhzJzoUikRjBEMQswCQYDVQQGEwJERTEPMA0GA1UECAwGSGVzc2Vu
MRQwEgYDVQQKDAtwcml2YWN5aWRlYTEOMAwGA1UEAwwFQ0EwMDGCCQD7yOusg80S
BzATBgNVHSUEDDAKBggrBgEFBQcDATANBgkqhkiG9w0BAQUFAAOCAQEAVVr7CFco
j2twgRxQWQgvqfczjrcuSHne9hfsNA1dT6x/vlVev+n/0jTEwQxmCveDwdvD6wFX
RdAZhRDvEuBDlQ2TSXPYhpBBBjYfmbA1qmwQT7QzsxSdLtTZnyE1MS9F9NpxPTvV
NNkCuYdtPvhOqlWgU9gcW+PGaM5V1wOtFSQZTFmHzVjqILrWLFcDOengyh5wEBGP
NtiXaiEaVf6Q+4Ssdb3/qjcGxOzfdRl9vNBhtbdY2t23jVHbFXBrJk9lUPek56A8
5h6RmKBpZiF7vzByZK2m1UZAvpSVWc6bskgyz8/8x+k57b2PunUlVPwmh2MVczB3
k1IFNkHCHEx6Xg==
-----END CERTIFICATE-----
