Certificate:
    Data:
        Version: 3 (0x2)
        Serial Number: 268435682 (0x100000e2)
    Signature Algorithm: sha1WithRSAEncryption
        Issuer: C=DE, ST=Hessen, O=privacyidea, CN=CA001
        Validity
            Not Before: Sep 20 15:57:47 2015 GMT
            Not After : Sep 19 15:57:47 2016 GMT
        Subject: CN=selfservice,CN=user,O=realm1/emailAddress=meine
        Subject Public Key Info:
            Public Key Algorithm: rsaEncryption
                Public-Key: (2048 bit)
                Modulus:
                    00:cf:3c:d4:33:0e:12:c4:e6:da:cd:b6:56:a1:1c:
                    26:bb:26:1c:8a:4a:73:a8:58:8a:b6:1e:b3:8b:99:
                    d2:1d:07:c2:92:89:79:c0:69:d8:c8:df:28:61:98:
                    1e:b3:fe:ae:2b:bd:78:a9:f7:6e:47:dc:a3:a0:16:
                    8c:85:02:c1:4e:92:fd:72:6e:f0:c8:03:29:9b:b8:
                    00:6e:c0:83:95:c8:34:20:36:9c:b3:e5:e4:e6:76:
                    73:a3:1a:ad:40:96:e0:53:54:00:ec:76:79:9a:c6:
                    0d:7e:b6:bd:29:ec:83:f3:cb:89:a4:cb:6c:00:ba:
                    0c:c5:78:0f:ff:69:b8:94:f4:04:70:43:3f:d8:9e:
                    d7:a7:fb:5d:ce:75:8e:da:e7:c4:07:b1:9d:de:6f:
                    88:4b:b6:4d:9a:cf:f9:bc:fa:9f:cd:32:6d:f6:3a:
                    0b:0d:23:42:78:ec:97:42:bf:0e:4d:60:56:e1:d3:
                    02:f2:19:cb:84:57:90:e5:70:a1:a2:83:35:86:e2:
                    da:86:9f:f9:8a:c4:79:b3:52:28:da:cb:bb:34:ca:
                    d3:da:91:4a:cf:8d:76:a2:b2:6b:9b:f9:96:fd:09:
                    2a:da:11:23:4d:f0:cb:d6:b2:b1:0e:12:6c:9a:19:
                    65:98:87:ca:e4:ee:24:ce:44:ac:90:8f:9d:1b:c5:
                    2a:9d
                Exponent: 65537 (0x10001)
        X509v3 extensions:
            X509v3 Key Usage: 
                Digital Signature, Key Encipherment
            X509v3 Basic Constraints: 
                CA:FALSE
            Netscape Cert Type: 
                SSL Server
            Netscape Comment: 
                OpenSSL Generated Server Certificate
            X509v3 Subject Key Identifier: 
                4D:07:90:AD:FF:1D:0D:E7:1A:DD:D6:2E:FA:BA:34:CB:AA:1F:24:C6
            X509v3 Authority Key Identifier: 
                keyid:F4:A7:C0:CC:91:46:AF:64:F3:91:F2:27:F8:C8:B2:6F:8A:87:32:73
                DirName:/C=DE/ST=Hessen/O=privacyidea/CN=CA001
                serial:FB:C8:EB:AC:83:CD:12:07

            X509v3 Extended Key Usage: 
                TLS Web Server Authentication
    Signature Algorithm: sha1WithRSAEncryption
         4a:bc:bc:ae:da:71:9b:cd:7d:3d:2d:b2:77:5f:c3:64:35:de:
         3f:87:e7:81:42:91:20:2c:e3:dc:b4:a6:55:dc:ad:b9:68:5f:
         17:d4:c2:49:61:15:49:61:e0:75:e6:91:79:5a:5a:32:8f:6a:
         28:f3:fc:ab:7d:b9:9f:36:ae:64:15:2e:76:cc:04:d4:13:f9:
         38:e3:83:8f:5d:34:a5:01:a2:a8:1b:ce:8c:07:1d:81:d0:00:
         53:6f:43:63:0f:3b:51:e8:95:1f:9d:63:19:a3:32:44:1d:94:
         01:85:e1:2e:a0:45:2f:b4:b8:82:e4:b3:5e:83:11:3f:33:c1:
         f4:4e:9f:d9:86:80:d6:25:9c:35:9a:41:96:17:50:e1:be:a9:
         72:ea:ac:3e:b5:8b:89:12:67:dd:14:33:8e:04:2e:69:1d:f3:
         b5:10:b7:38:d7:e8:77:d8:1d:0a:40:e4:45:8b:2b:d1:6b:7f:
         49:3e:6d:05:39:53:ec:f8:c3:a2:a0:8e:cc:95:f0:77:1b:1b:
         1f:d7:6c:e0:53:ca:de:8e:54:59:22:64:e4:82:1e:75:e3:fb:
         c0:ad:46:d7:ef:92:36:39:f2:7d:7f:43:5c:02:7d:b1:43:7a:
         5d:e8:08:d6:15:7c:dd:1e:37:5c:19:4c:65:19:91:3b:10:71:
         08:ce:41:6e
-----BEGIN CERTIFICATE-----
MIIEDzCCAvegAwIBAgIEEAAA4jANBgkqhkiG9w0BAQUFADBEMQswCQYDVQQGEwJE
RTEPMA0GA1UECAwGSGVzc2VuMRQwEgYDVQQKDAtwcml2YWN5aWRlYTEOMAwGA1UE
AwwFQ0EwMDEwHhcNMTUwOTIwMTU1NzQ3WhcNMTYwOTE5MTU1NzQ3WjA9MSUwIwYD
VQQDExxzZWxmc2VydmljZSxDTj11c2VyLE89cmVhbG0xMRQwEgYJKoZIhvcNAQkB
FgVtZWluZTCCASIwDQYJKoZIhvcNAQEBBQADggEPADCCAQoCggEBAM881DMOEsTm
2s22VqEcJrsmHIpKc6hYirYes4uZ0h0HwpKJecBp2MjfKGGYHrP+riu9eKn3bkfc
o6AWjIUCwU6S/XJu8MgDKZu4AG7Ag5XINCA2nLPl5OZ2c6MarUCW4FNUAOx2eZrG
DX62vSnsg/PLiaTLbAC6DMV4D/9puJT0BHBDP9ie16f7Xc51jtrnxAexnd5viEu2
TZrP+bz6n80ybfY6Cw0jQnjsl0K/Dk1gVuHTAvIZy4RXkOVwoaKDNYbi2oaf+YrE
ebNSKNrLuzTK09qRSs+NdqKya5v5lv0JKtoRI03wy9aysQ4SbJoZZZiHyuTuJM5E
rJCPnRvFKp0CAwEAAaOCAQ4wggEKMAsGA1UdDwQEAwIFoDAJBgNVHRMEAjAAMBEG
CWCGSAGG+EIBAQQEAwIGQDAzBglghkgBhvhCAQ0EJhYkT3BlblNTTCBHZW5lcmF0
ZWQgU2VydmVyIENlcnRpZmljYXRlMB0GA1UdDgQWBBRNB5Ct/x0N5xrd1i76ujTL
qh8kxjB0BgNVHSMEbTBrgBT0p8DMkUavZPOR8if4yLJviocyc6FIpEYwRDELMAkG
A1UEBhMCREUxDzANBgNVBAgMBkhlc3NlbjEUMBIGA1UECgwLcHJpdmFjeWlkZWEx
DjAMBgNVBAMMBUNBMDAxggkA+8jrrIPNEgcwEwYDVR0lBAwwCgYIKwYBBQUHAwEw
DQYJKoZIhvcNAQEFBQADggEBAEq8vK7acZvNfT0tsndfw2Q13j+H54FCkSAs49y0
plXcrbloXxfUwklhFUlh4HXmkXlaWjKPaijz/Kt9uZ82rmQVLnbMBNQT+Tjjg49d
NKUBoqgbzowHHYHQAFNvQ2MPO1HolR+dYxmjMkQdlAGF4S6gRS+0uILks16DET8z
wfROn9mGgNYlnDWaQZYXUOG+qXLqrD61i4kSZ90UM44ELmkd87UQtzjX6HfYHQpA
5EWLK9Frf0k+bQU5U+z4w6KgjsyV8HcbGx/XbOBTyt6OVFkiZOSCHnXj+8CtRtfv
kjY58n1/Q1wCfbFDel3oCNYVfN0eN1wZTGUZkTsQcQjOQW4=
-----END CERTIFICATE-----
