Certificate:
    Data:
        Version: 3 (0x2)
        Serial Number: 268435676 (0x100000dc)
    Signature Algorithm: sha1WithRSAEncryption
        Issuer: C=DE, ST=Hessen, O=privacyidea, CN=CA001
        Validity
            Not Before: Sep 20 15:50:53 2015 GMT
            Not After : Sep 19 15:50:53 2016 GMT
        Subject: CN=selfservice,CN=user,O=realm1/emailAddress=meine
        Subject Public Key Info:
            Public Key Algorithm: rsaEncryption
                Public-Key: (2048 bit)
                Modulus:
                    00:cf:3c:d4:33:0e:12:c4:e6:da:cd:b6:56:a1:1c:
                    26:bb:26:1c:8a:4a:73:a8:58:8a:b6:1e:b3:8b:99:
                    d2:1d:07:c2:92:89:79:c0:69:d8:c8:df:28:61:98:
                    1e:b3:fe:ae:2b:bd:78:a9:f7:6e:47:dc:a3:a0:16:
                    8c:85:02:c1:4e:92:fd:72:6e:f0:c8:03:29:9b:b8:
                    00:6e:c0:83:95:c8:34:20:36:9c:b3:e5:e4:e6:76:
                    73:a3:1a:ad:40:96:e0:53:54:00:ec:76:79:9a:c6:
                    0d:7e:b6:bd:29:ec:83:f3:cb:89:a4:cb:6c:00:ba:
                    0c:c5:78:0f:ff:69:b8:94:f4:04:70:43:3f:d8:9e:
                    d7:a7:fb:5d:ce:75:8e:da:e7:c4:07:b1:9d:de:6f:
                    88:4b:b6:4d:9a:cf:f9:bc:fa:9f:cd:32:6d:f6:3a:
                    0b:0d:23:42:78:ec:97:42:bf:0e:4d:60:56:e1:d3:
                    02:f2:19:cb:84:57:90:e5:70:a1:a2:83:35:86:e2:
                    da:86:9f:f9:8a:c4:79:b3:52:28:da:cb:bb:34:ca:
                    d3:da:91:4a:cf:8d:76:a2:b2:6b:9b:f9:96:fd:09:
                    2a:da:11:23:4d:f0:cb:d6:b2:b1:0e:12:6c:9a:19:
                    65:98:87:ca:e4:ee:24:ce:44:ac:90:8f:9d:1b:c5:
                    2a:9d
                Exponent: 65537 (0x10001)
        X509v3 extensions:
            X509v3 Key Usage: 
                Digital Signature, Key Encipherment
            X509v3 Basic Constraints: 
                CA:FALSE
            Netscape Cert Type: 
                SSL Server
            Netscape Comment: 
                OpenSSL Generated Server Certificate
            X509v3 Subject Key Identifier: 
                4D:07:90:AD:FF:1D:0D:E7:1A:DD:D6:2E:FA:BA:34:CB:AA:1F:24:C6
            X509v3 Authority Key Identifier: 
                keyid:F4:A7:C0:CC:91:46:AF:64:F3:91:F2:27:F8:C8:B2:6F:8A:87:32:73
                DirName:/C=DE/ST=Hessen/O=privacyidea/CN=CA001
                serial:FB:C8:EB:AC:83:CD:12:07

            X509v3 Extended Key Usage: 
                TLS Web Server Authentication
    Signature Algorithm: sha1WithRSAEncryption
         55:df:7a:f7:d3:9c:9e:c1:90:0e:9b:e2:27:f9:6e:d9:c1:f8:
         ad:1d:d1:35:a2:11:c4:fb:84:93:0f:21:04:fc:23:ec:3a:b4:
         a8:74:7c:35:05:f1:7a:8b:f4:f4:a0:89:f2:aa:55:fc:8d:2b:
         75:84:bf:3e:4e:de:e0:e5:26:be:42:09:43:c0:3e:d2:66:ee:
         41:63:40:27:02:07:53:56:e8:6e:31:3d:f4:6e:3d:c4:6d:09:
         61:69:6d:c6:e9:db:19:aa:c8:7c:3e:4f:f9:d8:cc:c4:ec:ed:
         40:96:8d:38:9e:d0:aa:1f:55:c5:2c:ce:99:ce:ee:f0:d0:8b:
         68:bf:b1:65:06:4f:27:3e:ec:ee:e9:5e:91:36:3b:76:c9:13:
         39:95:aa:8b:fa:2d:45:cf:95:5d:d2:cd:75:21:bc:85:47:ea:
         34:98:6e:25:b2:69:b8:7e:ee:68:1a:03:8c:7e:5a:ee:5e:7e:
         86:fc:cd:4e:33:32:1c:ba:12:3b:6e:08:8e:ea:a4:2e:a5:bc:
         64:09:f4:5e:18:f4:0a:3c:b1:0c:62:30:8d:b6:74:de:ca:65:
         fa:7a:eb:23:3d:e3:2d:9c:c6:ac:54:00:19:37:27:20:b1:8b:
         64:9e:ba:2a:a6:4d:14:88:cb:20:05:28:24:f7:14:f1:07:85:
         2b:31:25:ec
-----BEGIN CERTIFICATE-----
MIIEDzCCAvegAwIBAgIEEAAA3DANBgkqhkiG9w0BAQUFADBEMQswCQYDVQQGEwJE
RTEPMA0GA1UECAwGSGVzc2VuMRQwEgYDVQQKDAtwcml2YWN5aWRlYTEOMAwGA1UE
AwwFQ0EwMDEwHhcNMTUwOTIwMTU1MDUzWhcNMTYwOTE5MTU1MDUzWjA9MSUwIwYD
VQQDExxzZWxmc2VydmljZSxDTj11c2VyLE89cmVhbG0xMRQwEgYJKoZIhvcNAQkB
FgVtZWluZTCCASIwDQYJKoZIhvcNAQEBBQADggEPADCCAQoCggEBAM881DMOEsTm
2s22VqEcJrsmHIpKc6hYirYes4uZ0h0HwpKJecBp2MjfKGGYHrP+riu9eKn3bkfc
o6AWjIUCwU6S/XJu8MgDKZu4AG7Ag5XINCA2nLPl5OZ2c6MarUCW4FNUAOx2eZrG
DX62vSnsg/PLiaTLbAC6DMV4D/9puJT0BHBDP9ie16f7Xc51jtrnxAexnd5viEu2
TZrP+bz6n80ybfY6Cw0jQnjsl0K/Dk1gVuHTAvIZy4RXkOVwoaKDNYbi2oaf+YrE
ebNSKNrLuzTK09qRSs+NdqKya5v5lv0JKtoRI03wy9aysQ4SbJoZZZiHyuTuJM5E
rJCPnRvFKp0CAwEAAaOCAQ4wggEKMAsGA1UdDwQEAwIFoDAJBgNVHRMEAjAAMBEG
CWCGSAGG+EIBAQQEAwIGQDAzBglghkgBhvhCAQ0EJhYkT3BlblNTTCBHZW5lcmF0
ZWQgU2VydmVyIENlcnRpZmljYXRlMB0GA1UdDgQWBBRNB5Ct/x0N5xrd1i76ujTL
qh8kxjB0BgNVHSMEbTBrgBT0p8DMkUavZPOR8if4yLJviocyc6FIpEYwRDELMAkG
A1UEBhMCREUxDzANBgNVBAgMBkhlc3NlbjEUMBIGA1UECgwLcHJpdmFjeWlkZWEx
DjAMBgNVBAMMBUNBMDAxggkA+8jrrIPNEgcwEwYDVR0lBAwwCgYIKwYBBQUHAwEw
DQYJKoZIhvcNAQEFBQADggEBAFXfevfTnJ7BkA6b4if5btnB+K0d0TWiEcT7hJMP
IQT8I+w6tKh0fDUF8XqL9PSgifKqVfyNK3WEvz5O3uDlJr5CCUPAPtJm7kFjQCcC
B1NW6G4xPfRuPcRtCWFpbcbp2xmqyHw+T/nYzMTs7UCWjTie0KofVcUszpnO7vDQ
i2i/sWUGTyc+7O7pXpE2O3bJEzmVqov6LUXPlV3SzXUhvIVH6jSYbiWyabh+7mga
A4x+Wu5efob8zU4zMhy6EjtuCI7qpC6lvGQJ9F4Y9Ao8sQxiMI22dN7KZfp66yM9
4y2cxqxUABk3JyCxi2SeuiqmTRSIyyAFKCT3FPEHhSsxJew=
-----END CERTIFICATE-----
