Certificate:
    Data:
        Version: 3 (0x2)
        Serial Number: 268435654 (0x100000c6)
    Signature Algorithm: sha1WithRSAEncryption
        Issuer: C=DE, ST=Hessen, O=privacyidea, CN=CA001
        Validity
            Not Before: Mar 24 22:01:09 2016 GMT
            Not After : Mar 24 22:01:09 2017 GMT
        Subject: CN=Steve Test/emailAddress=steve@openssl.org
        Subject Public Key Info:
            Public Key Algorithm: rsaEncryption
                Public-Key: (2048 bit)
                Modulus:
                    00:d2:81:89:20:51:48:0f:73:f4:11:32:24:d5:1f:
                    1c:fd:5c:f5:b6:e6:c5:f0:52:81:dc:d2:af:66:4a:
                    7c:93:31:61:5c:af:d1:6d:06:70:03:60:7c:72:0c:
                    88:dd:49:cd:9e:02:6c:d2:5a:d7:53:0f:f3:da:be:
                    69:64:b5:0f:0c:00:e3:b3:50:47:a3:b3:9b:ba:13:
                    50:d6:58:5a:4b:ab:39:e0:11:ca:0a:27:67:03:78:
                    22:66:6d:92:1e:1b:5c:49:ae:e6:6b:d1:8e:3b:9d:
                    06:d3:c6:ac:4d:53:43:10:ab:e8:96:c1:87:82:97:
                    99:8f:20:d3:99:12:37:31:84:e1:8a:ff:29:03:5f:
                    22:90:3e:7f:9b:e0:20:c1:ad:dc:ae:4c:39:1a:31:
                    96:17:02:8c:b2:d9:b4:0d:20:12:9b:7d:86:54:fd:
                    33:fd:c1:2a:62:46:f8:60:96:cf:6e:01:6f:22:df:
                    13:47:e7:97:ec:05:72:23:a3:62:f8:fa:ef:ac:9c:
                    72:f0:37:cb:2f:37:cf:90:a8:27:51:86:c6:d7:78:
                    08:8f:7e:25:a2:15:70:a2:fb:1c:b6:15:5e:a0:97:
                    8b:81:4c:09:28:8a:27:3b:94:bc:71:db:5b:71:37:
                    9a:2b:16:e0:6f:b5:c9:f5:4b:4f:20:ba:65:cf:af:
                    ad:ad
                Exponent: 65537 (0x10001)
        X509v3 extensions:
            X509v3 Key Usage: 
                Digital Signature, Key Encipherment
            X509v3 Basic Constraints: 
                CA:FALSE
            Netscape Cert Type: 
                SSL Server
            Netscape Comment: 
                OpenSSL Generated Server Certificate
            X509v3 Subject Key Identifier: 
                E5:25:6D:3E:AF:0D:DD:3F:4C:F2:45:19:39:D5:14:DB:7E:9C:C0:AD
            X509v3 Authority Key Identifier: 
                keyid:F4:A7:C0:CC:91:46:AF:64:F3:91:F2:27:F8:C8:B2:6F:8A:87:32:73
                DirName:/C=DE/ST=Hessen/O=privacyidea/CN=CA001
                serial:FB:C8:EB:AC:83:CD:12:07

            X509v3 Extended Key Usage: 
                TLS Web Server Authentication
    Signature Algorithm: sha1WithRSAEncryption
         5f:ba:66:dd:a8:11:3c:b6:fc:8d:5b:ec:59:66:37:95:ac:d1:
         f3:73:0d:ab:ed:09:a4:1c:42:d1:0b:d1:6a:eb:bb:a7:9b:93:
         c0:ab:db:e3:d0:e7:f0:86:11:cd:64:bf:cb:30:4b:7f:bf:03:
         4e:f8:37:44:08:08:0a:49:a5:65:9f:da:9b:31:92:78:1c:6e:
         d7:c1:91:4e:2f:60:d0:94:b0:be:65:07:7b:15:ff:d8:de:14:
         ae:c7:4c:13:8f:96:ca:69:55:62:c2:c2:32:47:8a:8c:11:cb:
         42:51:86:df:96:50:3f:26:5d:7b:24:f8:69:83:eb:47:83:d8:
         b1:ef:4c:4e:2b:bf:cc:50:c4:c3:b6:4a:71:f5:a6:88:f0:1e:
         5b:c6:03:b7:61:62:26:72:6e:94:19:e8:1b:9f:5e:0d:89:55:
         f3:f7:00:b9:38:2a:ba:a2:19:7f:a9:35:58:a3:0a:fb:2c:56:
         7f:c6:e1:b8:74:76:c7:7a:6b:52:42:f0:b7:49:ff:be:98:59:
         3b:8c:33:f3:e2:de:b1:b9:a1:47:8d:fc:7d:fe:0f:a8:f4:e8:
         05:49:2c:d3:e8:91:c1:2a:cc:8c:93:fe:34:9f:2d:40:fa:2b:
         34:fd:77:96:42:5d:40:73:9a:bb:61:75:51:d3:eb:61:7b:21:
         39:63:81:0b
-----BEGIN CERTIFICATE-----
MIIECTCCAvGgAwIBAgIEEAAAxjANBgkqhkiG9w0BAQUFADBEMQswCQYDVQQGEwJE
RTEPMA0GA1UECAwGSGVzc2VuMRQwEgYDVQQKDAtwcml2YWN5aWRlYTEOMAwGA1UE
AwwFQ0EwMDEwHhcNMTYwMzI0MjIwMTA5WhcNMTcwMzI0MjIwMTA5WjA3MRMwEQYD
VQQDEwpTdGV2ZSBUZXN0MSAwHgYJKoZIhvcNAQkBFhFzdGV2ZUBvcGVuc3NsLm9y
ZzCCASIwDQYJKoZIhvcNAQEBBQADggEPADCCAQoCggEBANKBiSBRSA9z9BEyJNUf
HP1c9bbmxfBSgdzSr2ZKfJMxYVyv0W0GcANgfHIMiN1JzZ4CbNJa11MP89q+aWS1
DwwA47NQR6Ozm7oTUNZYWkurOeARygonZwN4ImZtkh4bXEmu5mvRjjudBtPGrE1T
QxCr6JbBh4KXmY8g05kSNzGE4Yr/KQNfIpA+f5vgIMGt3K5MORoxlhcCjLLZtA0g
Ept9hlT9M/3BKmJG+GCWz24BbyLfE0fnl+wFciOjYvj676yccvA3yy83z5CoJ1GG
xtd4CI9+JaIVcKL7HLYVXqCXi4FMCSiKJzuUvHHbW3E3misW4G+1yfVLTyC6Zc+v
ra0CAwEAAaOCAQ4wggEKMAsGA1UdDwQEAwIFoDAJBgNVHRMEAjAAMBEGCWCGSAGG
+EIBAQQEAwIGQDAzBglghkgBhvhCAQ0EJhYkT3BlblNTTCBHZW5lcmF0ZWQgU2Vy
dmVyIENlcnRpZmljYXRlMB0GA1UdDgQWBBTlJW0+rw3dP0zyRRk51RTbfpzArTB0
BgNVHSMEbTBrgBT0p8DMkUavZPOR8if4yLJviocyc6FIpEYwRDELMAkGA1UEBhMC
REUxDzANBgNVBAgMBkhlc3NlbjEUMBIGA1UECgwLcHJpdmFjeWlkZWExDjAMBgNV
BAMMBUNBMDAxggkA+8jrrIPNEgcwEwYDVR0lBAwwCgYIKwYBBQUHAwEwDQYJKoZI
hvcNAQEFBQADggEBAF+6Zt2oETy2/I1b7FlmN5Ws0fNzDavtCaQcQtEL0Wrru6eb
k8Cr2+PQ5/CGEc1kv8swS3+/A074N0QICApJpWWf2psxkngcbtfBkU4vYNCUsL5l
B3sV/9jeFK7HTBOPlsppVWLCwjJHiowRy0JRht+WUD8mXXsk+GmD60eD2LHvTE4r
v8xQxMO2SnH1pojwHlvGA7dhYiZybpQZ6BufXg2JVfP3ALk4KrqiGX+pNVijCvss
Vn/G4bh0dsd6a1JC8LdJ/76YWTuMM/Pi3rG5oUeN/H3+D6j06AVJLNPokcEqzIyT
/jSfLUD6KzT9d5ZCXUBzmrthdVHT62F7ITljgQs=
-----END CERTIFICATE-----
