Certificate:
    Data:
        Version: 3 (0x2)
        Serial Number: 268435685 (0x100000e5)
    Signature Algorithm: sha1WithRSAEncryption
        Issuer: C=DE, ST=Hessen, O=privacyidea, CN=CA001
        Validity
            Not Before: Sep 20 16:44:50 2015 GMT
            Not After : Sep 19 16:44:50 2016 GMT
        Subject: C=DE, ST=Hessen, O=privacyidea, CN=usercert
        Subject Public Key Info:
            Public Key Algorithm: rsaEncryption
                Public-Key: (2048 bit)
                Modulus:
                    00:dc:2f:d1:5f:29:97:d4:7c:c3:53:c8:30:bd:4b:
                    67:70:2c:24:6b:b8:5e:eb:21:7a:48:12:56:7c:81:
                    5c:48:75:b6:68:eb:f6:f2:98:4e:50:51:d1:7f:6c:
                    73:f3:0a:a7:ae:be:48:5e:e5:d6:e1:d9:2a:7c:32:
                    6e:4e:fd:08:f6:5a:54:49:23:73:c3:b9:07:18:d1:
                    ef:b3:ac:f8:8a:dc:94:96:a4:90:3a:8e:74:df:e6:
                    0d:37:1b:bd:5b:b7:25:1a:56:39:da:6f:91:aa:5e:
                    1c:74:f3:f9:7c:14:01:83:12:65:76:c7:bb:fe:36:
                    5b:95:e9:72:65:83:ed:3e:98:30:71:fa:87:dd:a3:
                    36:5a:30:03:2e:26:e0:61:d1:bf:02:3f:b6:06:1f:
                    4a:89:28:1c:5c:a2:ff:4e:be:94:e6:8c:e0:da:82:
                    f1:9d:29:32:48:30:73:b4:04:f6:42:1e:be:f7:e2:
                    32:32:27:3c:9d:89:2f:70:3e:85:9a:6f:5c:c5:09:
                    c0:8c:32:2f:72:22:c9:d2:95:1f:b6:ac:72:60:72:
                    b7:82:4d:6b:ce:5b:e3:00:d0:d2:2f:58:c6:e0:10:
                    e5:51:ca:4d:3b:2e:e6:7e:ab:84:d6:56:f1:93:35:
                    a0:93:64:26:81:75:2f:91:b5:16:06:38:0b:db:cc:
                    2d:07
                Exponent: 65537 (0x10001)
        X509v3 extensions:
            X509v3 Key Usage: 
                Digital Signature, Key Encipherment
            X509v3 Basic Constraints: 
                CA:FALSE
            Netscape Cert Type: 
                SSL Server
            Netscape Comment: 
                OpenSSL Generated Server Certificate
            X509v3 Subject Key Identifier: 
                FC:14:D1:F0:4B:8D:00:90:F2:F5:B8:71:9E:4E:97:C3:92:54:AD:0B
            X509v3 Authority Key Identifier: 
                keyid:F4:A7:C0:CC:91:46:AF:64:F3:91:F2:27:F8:C8:B2:6F:8A:87:32:73
                DirName:/C=DE/ST=Hessen/O=privacyidea/CN=CA001
                serial:FB:C8:EB:AC:83:CD:12:07

            X509v3 Extended Key Usage: 
                TLS Web Server Authentication
    Signature Algorithm: sha1WithRSAEncryption
         76:6a:ea:77:5a:5f:86:09:68:63:e4:16:bc:66:7f:6f:a0:17:
         94:5d:36:e7:c1:1e:14:80:b6:fb:d8:5b:db:ca:98:b8:e3:dc:
         8b:59:de:f8:82:67:45:46:07:30:48:7d:86:6d:43:e2:56:72:
         d7:fc:a8:65:f8:14:4c:66:75:9f:17:04:ae:a2:84:df:5c:26:
         b7:4c:48:28:aa:29:70:7a:44:ea:63:b7:dc:c4:dc:c5:2f:a8:
         ff:89:28:2b:ca:ff:f8:e2:d8:43:03:17:70:f0:f7:09:b2:0b:
         9e:99:82:a6:f2:a5:f5:99:b1:2c:b6:94:8f:ce:36:05:61:1c:
         be:76:e9:8f:9b:a3:67:4c:62:9e:71:81:39:f8:04:42:d6:5e:
         af:58:d6:6b:d9:a3:fd:db:f8:4b:98:e2:4c:80:a1:9a:6c:d0:
         73:d5:c2:d1:71:79:b3:ab:e5:c1:07:79:6e:00:56:ec:77:11:
         96:02:2e:5d:71:b4:93:73:43:a2:8a:7b:8f:0a:a0:4a:db:df:
         db:0c:47:45:fd:ab:08:ab:ae:3f:ea:8d:cc:2c:81:4b:36:54:
         b4:7c:7e:e4:82:f1:f2:fe:0c:63:58:37:77:74:41:a8:d5:02:
         d2:ac:e4:e3:97:2f:71:a4:b9:85:43:ca:e5:62:95:e7:e7:25:
         6a:40:9b:be
-----BEGIN CERTIFICATE-----
MIIEGTCCAwGgAwIBAgIEEAAA5TANBgkqhkiG9w0BAQUFADBEMQswCQYDVQQGEwJE
RTEPMA0GA1UECAwGSGVzc2VuMRQwEgYDVQQKDAtwcml2YWN5aWRlYTEOMAwGA1UE
AwwFQ0EwMDEwHhcNMTUwOTIwMTY0NDUwWhcNMTYwOTE5MTY0NDUwWjBHMQswCQYD
VQQGEwJERTEPMA0GA1UECAwGSGVzc2VuMRQwEgYDVQQKDAtwcml2YWN5aWRlYTER
MA8GA1UEAwwIdXNlcmNlcnQwggEiMA0GCSqGSIb3DQEBAQUAA4IBDwAwggEKAoIB
AQDcL9FfKZfUfMNTyDC9S2dwLCRruF7rIXpIElZ8gVxIdbZo6/bymE5QUdF/bHPz
Cqeuvkhe5dbh2Sp8Mm5O/Qj2WlRJI3PDuQcY0e+zrPiK3JSWpJA6jnTf5g03G71b
tyUaVjnab5GqXhx08/l8FAGDEmV2x7v+NluV6XJlg+0+mDBx+ofdozZaMAMuJuBh
0b8CP7YGH0qJKBxcov9OvpTmjODagvGdKTJIMHO0BPZCHr734jIyJzydiS9wPoWa
b1zFCcCMMi9yIsnSlR+2rHJgcreCTWvOW+MA0NIvWMbgEOVRyk07LuZ+q4TWVvGT
NaCTZCaBdS+RtRYGOAvbzC0HAgMBAAGjggEOMIIBCjALBgNVHQ8EBAMCBaAwCQYD
VR0TBAIwADARBglghkgBhvhCAQEEBAMCBkAwMwYJYIZIAYb4QgENBCYWJE9wZW5T
U0wgR2VuZXJhdGVkIFNlcnZlciBDZXJ0aWZpY2F0ZTAdBgNVHQ4EFgQU/BTR8EuN
AJDy9bhxnk6Xw5JUrQswdAYDVR0jBG0wa4AU9KfAzJFGr2TzkfIn+Miyb4qHMnOh
SKRGMEQxCzAJBgNVBAYTAkRFMQ8wDQYDVQQIDAZIZXNzZW4xFDASBgNVBAoMC3By
aXZhY3lpZGVhMQ4wDAYDVQQDDAVDQTAwMYIJAPvI66yDzRIHMBMGA1UdJQQMMAoG
CCsGAQUFBwMBMA0GCSqGSIb3DQEBBQUAA4IBAQB2aup3Wl+GCWhj5Ba8Zn9voBeU
XTbnwR4UgLb72Fvbypi449yLWd74gmdFRgcwSH2GbUPiVnLX/Khl+BRMZnWfFwSu
ooTfXCa3TEgoqilwekTqY7fcxNzFL6j/iSgryv/44thDAxdw8PcJsguemYKm8qX1
mbEstpSPzjYFYRy+dumPm6NnTGKecYE5+ARC1l6vWNZr2aP92/hLmOJMgKGabNBz
1cLRcXmzq+XBB3luAFbsdxGWAi5dcbSTc0OiinuPCqBK29/bDEdF/asIq64/6o3M
LIFLNlS0fH7kgvHy/gxjWDd3dEGo1QLSrOTjly9xpLmFQ8rlYpXn5yVqQJu+
-----END CERTIFICATE-----
