Certificate:
    Data:
        Version: 3 (0x2)
        Serial Number: 268435686 (0x100000e6)
    Signature Algorithm: sha1WithRSAEncryption
        Issuer: C=DE, ST=Hessen, O=privacyidea, CN=CA001
        Validity
            Not Before: Sep 20 16:44:50 2015 GMT
            Not After : Sep 19 16:44:50 2016 GMT
        Subject: CN=Steve Test/emailAddress=steve@openssl.org
        Subject Public Key Info:
            Public Key Algorithm: rsaEncryption
                Public-Key: (2048 bit)
                Modulus:
                    00:d2:81:89:20:51:48:0f:73:f4:11:32:24:d5:1f:
                    1c:fd:5c:f5:b6:e6:c5:f0:52:81:dc:d2:af:66:4a:
                    7c:93:31:61:5c:af:d1:6d:06:70:03:60:7c:72:0c:
                    88:dd:49:cd:9e:02:6c:d2:5a:d7:53:0f:f3:da:be:
                    69:64:b5:0f:0c:00:e3:b3:50:47:a3:b3:9b:ba:13:
                    50:d6:58:5a:4b:ab:39:e0:11:ca:0a:27:67:03:78:
                    22:66:6d:92:1e:1b:5c:49:ae:e6:6b:d1:8e:3b:9d:
                    06:d3:c6:ac:4d:53:43:10:ab:e8:96:c1:87:82:97:
                    99:8f:20:d3:99:12:37:31:84:e1:8a:ff:29:03:5f:
                    22:90:3e:7f:9b:e0:20:c1:ad:dc:ae:4c:39:1a:31:
                    96:17:02:8c:b2:d9:b4:0d:20:12:9b:7d:86:54:fd:
                    33:fd:c1:2a:62:46:f8:60:96:cf:6e:01:6f:22:df:
                    13:47:e7:97:ec:05:72:23:a3:62:f8:fa:ef:ac:9c:
                    72:f0:37:cb:2f:37:cf:90:a8:27:51:86:c6:d7:78:
                    08:8f:7e:25:a2:15:70:a2:fb:1c:b6:15:5e:a0:97:
                    8b:81:4c:09:28:8a:27:3b:94:bc:71:db:5b:71:37:
                    9a:2b:16:e0:6f:b5:c9:f5:4b:4f:20:ba:65:cf:af:
                    ad:ad
                Exponent: 65537 (0x10001)
        X509v3 extensions:
            X509v3 Key Usage: 
                Digital Signature, Key Encipherment
            X509v3 Basic Constraints: 
                CA:FALSE
            Netscape Cert Type: 
                SSL Server
            Netscape Comment: 
                OpenSSL Generated Server Certificate
            X509v3 Subject Key Identifier: 
                E5:25:6D:3E:AF:0D:DD:3F:4C:F2:45:19:39:D5:14:DB:7E:9C:C0:AD
            X509v3 Authority Key Identifier: 
                keyid:F4:A7:C0:CC:91:46:AF:64:F3:91:F2:27:F8:C8:B2:6F:8A:87:32:73
                DirName:/C=DE/ST=Hessen/O=privacyidea/CN=CA001
                serial:FB:C8:EB:AC:83:CD:12:07

            X509v3 Extended Key Usage: 
                TLS Web Server Authentication
    Signature Algorithm: sha1WithRSAEncryption
         7b:57:66:cf:82:73:2b:4a:65:16:c7:d1:7f:20:57:ac:f8:08:
         e9:b5:e7:5d:f1:3e:47:0b:44:5b:5a:75:87:07:33:ed:e2:59:
         5a:ad:58:b0:d8:c9:5f:7c:dc:69:08:1f:ce:6d:4d:87:9a:98:
         65:58:2a:b5:00:f6:95:dd:c4:50:ed:1a:f6:78:53:18:8b:ed:
         30:09:fe:08:0e:80:d7:cf:57:09:0f:0d:72:59:90:eb:ed:b0:
         8d:f0:9a:89:14:06:5e:2c:e9:3e:58:f4:9f:38:7d:53:f6:d8:
         5e:f5:0d:4c:8a:9c:0b:ad:b1:0f:a7:1b:2d:39:ee:b9:8f:3d:
         02:b3:c7:ad:a5:0f:8d:f3:26:c1:1e:0f:d6:a2:99:6f:50:49:
         de:42:79:36:e6:6e:cf:75:65:51:cd:8f:6f:b1:50:69:d1:94:
         f7:6c:3d:e6:c9:3a:0c:1e:0c:bd:35:44:ed:a9:50:08:11:00:
         42:74:86:11:8a:e7:45:11:d3:d3:ce:c2:c1:b3:15:a9:d4:3d:
         7a:60:ff:b5:d6:8a:3a:d5:73:67:1b:9e:3e:b2:af:9b:bb:d4:
         76:b9:fe:f4:3e:33:3f:2d:6f:19:f7:86:f4:cd:2f:e6:f8:88:
         ca:80:ce:0e:12:10:7c:00:f5:af:be:07:19:b7:08:19:cd:82:
         7c:80:f9:6c
-----BEGIN CERTIFICATE-----
MIIECTCCAvGgAwIBAgIEEAAA5jANBgkqhkiG9w0BAQUFADBEMQswCQYDVQQGEwJE
RTEPMA0GA1UECAwGSGVzc2VuMRQwEgYDVQQKDAtwcml2YWN5aWRlYTEOMAwGA1UE
AwwFQ0EwMDEwHhcNMTUwOTIwMTY0NDUwWhcNMTYwOTE5MTY0NDUwWjA3MRMwEQYD
VQQDEwpTdGV2ZSBUZXN0MSAwHgYJKoZIhvcNAQkBFhFzdGV2ZUBvcGVuc3NsLm9y
ZzCCASIwDQYJKoZIhvcNAQEBBQADggEPADCCAQoCggEBANKBiSBRSA9z9BEyJNUf
HP1c9bbmxfBSgdzSr2ZKfJMxYVyv0W0GcANgfHIMiN1JzZ4CbNJa11MP89q+aWS1
DwwA47NQR6Ozm7oTUNZYWkurOeARygonZwN4ImZtkh4bXEmu5mvRjjudBtPGrE1T
QxCr6JbBh4KXmY8g05kSNzGE4Yr/KQNfIpA+f5vgIMGt3K5MORoxlhcCjLLZtA0g
Ept9hlT9M/3BKmJG+GCWz24BbyLfE0fnl+wFciOjYvj676yccvA3yy83z5CoJ1GG
xtd4CI9+JaIVcKL7HLYVXqCXi4FMCSiKJzuUvHHbW3E3misW4G+1yfVLTyC6Zc+v
ra0CAwEAAaOCAQ4wggEKMAsGA1UdDwQEAwIFoDAJBgNVHRMEAjAAMBEGCWCGSAGG
+EIBAQQEAwIGQDAzBglghkgBhvhCAQ0EJhYkT3BlblNTTCBHZW5lcmF0ZWQgU2Vy
dmVyIENlcnRpZmljYXRlMB0GA1UdDgQWBBTlJW0+rw3dP0zyRRk51RTbfpzArTB0
BgNVHSMEbTBrgBT0p8DMkUavZPOR8if4yLJviocyc6FIpEYwRDELMAkGA1UEBhMC
REUxDzANBgNVBAgMBkhlc3NlbjEUMBIGA1UECgwLcHJpdmFjeWlkZWExDjAMBgNV
BAMMBUNBMDAxggkA+8jrrIPNEgcwEwYDVR0lBAwwCgYIKwYBBQUHAwEwDQYJKoZI
hvcNAQEFBQADggEBAHtXZs+CcytKZRbH0X8gV6z4COm1513xPkcLRFtadYcHM+3i
WVqtWLDYyV983GkIH85tTYeamGVYKrUA9pXdxFDtGvZ4UxiL7TAJ/ggOgNfPVwkP
DXJZkOvtsI3wmokUBl4s6T5Y9J84fVP22F71DUyKnAutsQ+nGy057rmPPQKzx62l
D43zJsEeD9aimW9QSd5CeTbmbs91ZVHNj2+xUGnRlPdsPebJOgweDL01RO2pUAgR
AEJ0hhGK50UR09POwsGzFanUPXpg/7XWijrVc2cbnj6yr5u71Ha5/vQ+Mz8tbxn3
hvTNL+b4iMqAzg4SEHwA9a++Bxm3CBnNgnyA+Ww=
-----END CERTIFICATE-----
