Certificate:
    Data:
        Version: 3 (0x2)
        Serial Number: 268435653 (0x100000c5)
    Signature Algorithm: sha1WithRSAEncryption
        Issuer: C=DE, ST=Hessen, O=privacyidea, CN=CA001
        Validity
            Not Before: Mar 24 22:01:09 2016 GMT
            Not After : Mar 24 22:01:09 2017 GMT
        Subject: C=DE, ST=Hessen, O=privacyidea, CN=usercert
        Subject Public Key Info:
            Public Key Algorithm: rsaEncryption
                Public-Key: (2048 bit)
                Modulus:
                    00:dc:2f:d1:5f:29:97:d4:7c:c3:53:c8:30:bd:4b:
                    67:70:2c:24:6b:b8:5e:eb:21:7a:48:12:56:7c:81:
                    5c:48:75:b6:68:eb:f6:f2:98:4e:50:51:d1:7f:6c:
                    73:f3:0a:a7:ae:be:48:5e:e5:d6:e1:d9:2a:7c:32:
                    6e:4e:fd:08:f6:5a:54:49:23:73:c3:b9:07:18:d1:
                    ef:b3:ac:f8:8a:dc:94:96:a4:90:3a:8e:74:df:e6:
                    0d:37:1b:bd:5b:b7:25:1a:56:39:da:6f:91:aa:5e:
                    1c:74:f3:f9:7c:14:01:83:12:65:76:c7:bb:fe:36:
                    5b:95:e9:72:65:83:ed:3e:98:30:71:fa:87:dd:a3:
                    36:5a:30:03:2e:26:e0:61:d1:bf:02:3f:b6:06:1f:
                    4a:89:28:1c:5c:a2:ff:4e:be:94:e6:8c:e0:da:82:
                    f1:9d:29:32:48:30:73:b4:04:f6:42:1e:be:f7:e2:
                    32:32:27:3c:9d:89:2f:70:3e:85:9a:6f:5c:c5:09:
                    c0:8c:32:2f:72:22:c9:d2:95:1f:b6:ac:72:60:72:
                    b7:82:4d:6b:ce:5b:e3:00:d0:d2:2f:58:c6:e0:10:
                    e5:51:ca:4d:3b:2e:e6:7e:ab:84:d6:56:f1:93:35:
                    a0:93:64:26:81:75:2f:91:b5:16:06:38:0b:db:cc:
                    2d:07
                Exponent: 65537 (0x10001)
        X509v3 extensions:
            X509v3 Key Usage: 
                Digital Signature, Key Encipherment
            X509v3 Basic Constraints: 
                CA:FALSE
            Netscape Cert Type: 
                SSL Server
            Netscape Comment: 
                OpenSSL Generated Server Certificate
            X509v3 Subject Key Identifier: 
                FC:14:D1:F0:4B:8D:00:90:F2:F5:B8:71:9E:4E:97:C3:92:54:AD:0B
            X509v3 Authority Key Identifier: 
                keyid:F4:A7:C0:CC:91:46:AF:64:F3:91:F2:27:F8:C8:B2:6F:8A:87:32:73
                DirName:/C=DE/ST=Hessen/O=privacyidea/CN=CA001
                serial:FB:C8:EB:AC:83:CD:12:07

            X509v3 Extended Key Usage: 
                TLS Web Server Authentication
    Signature Algorithm: sha1WithRSAEncryption
         52:ee:3c:b6:a9:b2:1e:f1:80:b5:9f:ee:33:b8:bf:8b:d5:f0:
         48:e6:1e:3c:b0:b7:82:09:c7:60:5a:95:36:bd:76:d5:3a:6d:
         3b:f6:86:16:eb:25:02:a0:f7:e5:19:e1:cb:b0:f4:b4:49:28:
         65:39:8d:c1:93:e5:36:2c:2d:05:5b:20:6c:42:23:ea:01:af:
         ae:b1:7e:e3:fa:35:da:72:a7:0e:35:10:b2:1f:2c:1a:a3:b6:
         20:09:dc:75:df:04:d6:4d:01:d6:b1:55:cc:a8:53:00:f5:62:
         ed:ca:7e:47:4d:fe:8b:90:b8:b5:18:f2:07:20:e7:7a:47:fb:
         27:78:71:07:25:96:ee:c3:e3:d1:95:77:45:4f:e1:7f:bf:e2:
         93:2c:b3:31:98:2e:cd:65:33:8c:cd:f7:9a:48:f3:e0:4e:5e:
         88:65:3e:e6:23:19:2a:08:35:80:24:a7:62:2b:0f:75:7b:86:
         96:89:cd:a4:9c:13:4e:d4:b5:97:03:c5:e3:6e:23:20:84:59:
         ef:69:36:3a:ca:c5:74:69:5d:31:30:e3:ee:3f:e5:5d:2a:21:
         4c:e9:0c:43:78:73:7c:8c:3d:23:85:d9:89:b1:58:4e:3c:4b:
         f2:29:b6:97:2f:8c:16:95:6b:da:fc:2b:bf:91:51:22:b1:44:
         dc:5e:13:8a
-----BEGIN CERTIFICATE-----
MIIEGTCCAwGgAwIBAgIEEAAAxTANBgkqhkiG9w0BAQUFADBEMQswCQYDVQQGEwJE
RTEPMA0GA1UECAwGSGVzc2VuMRQwEgYDVQQKDAtwcml2YWN5aWRlYTEOMAwGA1UE
AwwFQ0EwMDEwHhcNMTYwMzI0MjIwMTA5WhcNMTcwMzI0MjIwMTA5WjBHMQswCQYD
VQQGEwJERTEPMA0GA1UECAwGSGVzc2VuMRQwEgYDVQQKDAtwcml2YWN5aWRlYTER
MA8GA1UEAwwIdXNlcmNlcnQwggEiMA0GCSqGSIb3DQEBAQUAA4IBDwAwggEKAoIB
AQDcL9FfKZfUfMNTyDC9S2dwLCRruF7rIXpIElZ8gVxIdbZo6/bymE5QUdF/bHPz
Cqeuvkhe5dbh2Sp8Mm5O/Qj2WlRJI3PDuQcY0e+zrPiK3JSWpJA6jnTf5g03G71b
tyUaVjnab5GqXhx08/l8FAGDEmV2x7v+NluV6XJlg+0+mDBx+ofdozZaMAMuJuBh
0b8CP7YGH0qJKBxcov9OvpTmjODagvGdKTJIMHO0BPZCHr734jIyJzydiS9wPoWa
b1zFCcCMMi9yIsnSlR+2rHJgcreCTWvOW+MA0NIvWMbgEOVRyk07LuZ+q4TWVvGT
NaCTZCaBdS+RtRYGOAvbzC0HAgMBAAGjggEOMIIBCjALBgNVHQ8EBAMCBaAwCQYD
VR0TBAIwADARBglghkgBhvhCAQEEBAMCBkAwMwYJYIZIAYb4QgENBCYWJE9wZW5T
U0wgR2VuZXJhdGVkIFNlcnZlciBDZXJ0aWZpY2F0ZTAdBgNVHQ4EFgQU/BTR8EuN
AJDy9bhxnk6Xw5JUrQswdAYDVR0jBG0wa4AU9KfAzJFGr2TzkfIn+Miyb4qHMnOh
SKRGMEQxCzAJBgNVBAYTAkRFMQ8wDQYDVQQIDAZIZXNzZW4xFDASBgNVBAoMC3By
aXZhY3lpZGVhMQ4wDAYDVQQDDAVDQTAwMYIJAPvI66yDzRIHMBMGA1UdJQQMMAoG
CCsGAQUFBwMBMA0GCSqGSIb3DQEBBQUAA4IBAQBS7jy2qbIe8YC1n+4zuL+L1fBI
5h48sLeCCcdgWpU2vXbVOm079oYW6yUCoPflGeHLsPS0SShlOY3Bk+U2LC0FWyBs
QiPqAa+usX7j+jXacqcONRCyHywao7YgCdx13wTWTQHWsVXMqFMA9WLtyn5HTf6L
kLi1GPIHIOd6R/sneHEHJZbuw+PRlXdFT+F/v+KTLLMxmC7NZTOMzfeaSPPgTl6I
ZT7mIxkqCDWAJKdiKw91e4aWic2knBNO1LWXA8XjbiMghFnvaTY6ysV0aV0xMOPu
P+VdKiFM6QxDeHN8jD0jhdmJsVhOPEvyKbaXL4wWlWva/Cu/kVEisUTcXhOK
-----END CERTIFICATE-----
