(dp0
S'totalTime'
p1
F1461271437.155543
sS'setrecordTime'
p2
F0.0003180503845214844
sS'saveTime'
p3
F9.608268737792969e-05
sS'connectTime'
p4
F0.002279996871948242
sS'gatherTime'
p5
F0.0008800029754638672
sS'runTime'
p6
F0.45556116104125977
sS'initialTime'
p7
F1.4066696166992188e-05
sS'createTime'
p8
F0.0027332305908203125
s.