ccopy_reg
_reconstructor
p1
(copengrid.library.houseprint
Houseprint
p2
c__builtin__
object
p3
NtRp4
(dp5
S'sensorcols'
p6
(dp7
I1
I36
sI2
I38
sI3
I40
sI4
I42
sI5
I44
sI6
I46
ssS'sensoramount'
p8
I6
sS'fluksosensors'
p9
(dp10
S'FL03001554'
p11
(dp12
I1
(dp13
S'Function'
p14
S'smart-main'
p15
sS'Type'
p16
S'electricity'
p17
sS'Token'
p18
S'1b97a72e6b0301c689cd9c1c7391a76d'
p19
sS'Sensor'
p20
S'f1aacb5468d0faf00afc771571bcf9ad'
p21
ssI2
NsI3
NsI4
(dp22
g14
S'gas_boven'
p23
sg16
S'gas'
p24
sg18
S'83baf2c8c70f2fa35d9b73a9725e7e86'
p25
sg20
S'47e36532b3bf49ee4eb7203eee2aa8fb'
p26
ssI5
(dp27
g14
S'water'
p28
sg16
S'water'
p29
sg18
S'2c50663acf2ecc22eccb4eccd7439123'
p30
sg20
S'2ba9ab3baf898d7abd9254603ee76287'
p31
ssI6
NssS'FL02000678'
p32
(dp33
I1
(dp34
g14
S'Gas'
p35
sg16
S'gas'
p36
sg18
S'7ced40aa674022433dafcde0112f1760'
p37
sg20
S'a5c7faf24bf77ccb13f59e5d87731524'
p38
ssI2
(dp39
g14
S'Main'
p40
sg16
S'electricity'
p41
sg18
S'821ccdeb482adf52dc9d540c38b16b13'
p42
sg20
S'c1a78eacaa6a82d3257a278d3e99088a'
p43
ssI3
(dp44
g14
S'Solar'
p45
sg16
S'electricity'
p46
sg18
S'3f6fcf31d73697082c9c50ff9d419756'
p47
sg20
S'06686f304bd7c72a86c3810d2965f4a2'
p48
ssI4
(dp49
g14
S'Test'
p50
sg16
S'electricity'
p51
sg18
S'568a9656e5f68f142b0ec1338a1dcc08'
p52
sg20
S'8520ae493bcc57574e09b6ff7b13be76'
p53
ssI5
NsI6
NssS'FL03001441'
p54
(dp55
I1
(dp56
g14
S'Netaansluiting'
p57
sg16
S'electricity'
p58
sg18
S'65d056785481a89c5c13b559f25042e0'
p59
sg20
S'81fb589c911e808daa96a2064bebed41'
p60
ssI2
(dp61
g14
S'Gas'
p62
sg16
S'gas'
p63
sg18
S'7ef8759d669eaa3a46b2a74a029e9845'
p64
sg20
S'212ce724e124fbde0fb649396375d099'
p65
ssI3
(dp66
g14
S'Water'
p67
sg16
S'water'
p68
sg18
S'64ed4c3548ccfce3bdda8ef4087f90d2'
p69
sg20
S'c57f45b21e2ec21ab427f172478e1ca4'
p70
ssI4
(dp71
g14
S'sub'
p72
sg16
S'electricity'
p73
sg18
S'aabaeb135a2d81544796afff5b75d91c'
p74
sg20
S'156e0abc64b00c5e98dbd3c17883b5f6'
p75
ssI5
(dp76
g14
S'PV'
p77
sg16
S'electricity'
p78
sg18
S'dc6f16f6d4bbf5e9ee996b9f46e18bbd'
p79
sg20
S'e5306ee3a4235498592fc89ee0ede353'
p80
ssI6
NssS'FL03001525'
p81
(dp82
I1
(dp83
g14
S'cold'
p84
sg16
S'water'
p85
sg18
S'7bfdc1065f99e2a8a0dea7a9c5065e59'
p86
sg20
S'1a5c55ec176d24483572aca420ac59b5'
p87
ssI2
(dp88
g14
S'smart-main'
p89
sg16
S'electricity'
p90
sg18
S'90f8b6e08f8ad0e0feb0875660c12b5d'
p91
sg20
S'39b4908eee6b07ca8b226698263bedd3'
p92
ssI3
(dp93
g14
S'smart-main'
p94
sg16
S'gas'
p95
sg18
S'0015cc5842a6294067a0809201673414'
p96
sg20
S'1fd6e92d38ccc7ea87793119b7888eec'
p97
ssI4
(dp98
g14
S'Main'
p99
sg16
S'electricity'
p100
sg18
S'711887d337abc26a4605c3f9c5eddcb1'
p101
sg20
S'4d23c511766514749bc84e29af6f444e'
p102
ssI5
(dp103
g14
S'Main'
p104
sg16
S'gas'
p105
sg18
S'55d4d0b6247b859b43e391ab9d06ef1a'
p106
sg20
S'ba14f92064072f9783baf27f45a147b4'
p107
ssI6
NssS'FL03001561'
p108
(dp109
I1
(dp110
g14
S'Elec'
p111
sg16
S'electricity'
p112
sg18
S'1348aa6c06e90b8a5e5629d26ac85ed0'
p113
sg20
S'e1dec16012edc11de998aeaa317274d7'
p114
ssI2
(dp115
g14
S'Electricity'
p116
sg16
S'electricity'
p117
sg18
S'f4a345cf51ecca09c0cd3baef98b089e'
p118
sg20
S'3aa40023a1683bfec0f01cce8d45fc70'
p119
ssI3
(dp120
g14
S'Gas'
p121
sg16
S'gas'
p122
sg18
S'dbab68027fe7c8844e168a1dfa3d8c40'
p123
sg20
S'313b78fec4f845be91c328ee2f92c6d4'
p124
ssI4
(dp125
g14
S'smart-main'
p126
sg16
S'electricity'
p127
sg18
S'26c486874990dced562c584d5bf47844'
p128
sg20
S'447e0cfd031cf4fd4f56c69cc96ef133'
p129
ssI5
(dp130
g14
S'smart-main'
p131
sg16
S'gas'
p132
sg18
S'5d0c3cc4c39f033864d743bd6f4ede20'
p133
sg20
S'051a928dd04ca55e0411bd6f07e05c04'
p134
ssI6
(dp135
g14
S'Water'
p136
sg16
S'water'
p137
sg18
S'f99d1f6fecca7a137ef4d2cf01d7ef4b'
p138
sg20
S'b28509eb97137e723995838c393d49df'
p139
sssS'FL03001560'
p140
(dp141
I1
(dp142
g14
S'Elektriciteit'
p143
sg16
S'electricity'
p144
sg18
S'a6e1a499ced9754fd9123907fbb6492d'
p145
sg20
S'9afa3357cee100c6a8a5059c63e29295'
p146
ssI2
(dp147
g14
S'Water'
p148
sg16
S'water'
p149
sg18
S'3b44142664a789f37c228e6b4afb90ac'
p150
sg20
S'a8054ca7865584e69a7c946aeea1e13c'
p151
ssI3
NsI4
NsI5
NsI6
NssS'FL03001566'
p152
(dp153
I1
(dp154
g14
S'Elect'
p155
sg16
S'electricity'
p156
sg18
S'9cb1d5bde31a75287f9617f4e536690a'
p157
sg20
S'99d7f090c9b191e31067a5fa922da025'
p158
ssI2
(dp159
g14
S'elect'
p160
sg16
S'electricity'
p161
sg18
S'8488d3012cf1357244e9fe5b8b91e0d5'
p162
sg20
S'dfb719cc8240de810862228a7d1f37f3'
p163
ssI3
(dp164
g14
S'Electricity'
p165
sg16
S'electricity'
p166
sg18
S'dd4aca7fd98792585a678280a850e8ac'
p167
sg20
S'2dd0f6942224767b18a411415f67b423'
p168
ssI4
(dp169
g14
S'Gas'
p170
sg16
S'gas'
p171
sg18
S'd378c99b8b1dcae010674782280c256c'
p172
sg20
S'd4b28740c7ee7a98f94a4d23d794af79'
p173
ssI5
NsI6
NssS'FL03001549'
p174
(dp175
I1
(dp176
g14
S'Current'
p177
sg16
S'electricity'
p178
sg18
S'52dbb787248e7068a8e906cd7e13c06f'
p179
sg20
S'fad495c097e2d8f2c041c0f00c553139'
p180
ssI2
NsI3
NsI4
NsI5
NsI6
NssS'FL03001251'
p181
(dp182
I1
(dp183
g14
S'Gas'
p184
sg16
S'gas'
p185
sg18
S'b61a314062344dbf6f66e7512168eeb7'
p186
sg20
S'd23028c01bea77170d8d8ee6254a5a2c'
p187
ssI2
(dp188
g14
S'Main'
p189
sg16
S'electricity'
p190
sg18
S'7d964f8a361a1273594161c67a8ac31e'
p191
sg20
S'214ef2d3533899dbf633caeb32e80483'
p192
ssI3
(dp193
g14
S'Solar'
p194
sg16
S'electricity'
p195
sg18
S'4ae1fd4214245d65319162c6321d076e'
p196
sg20
S'894589249d671d09a7950cc435bd604c'
p197
ssI4
(dp198
g14
S'Water'
p199
sg16
S'water'
p200
sg18
S'73e0b81374908cc111a04bf031af8747'
p201
sg20
S'a519ce042e8748570d3a91cfca16a747'
p202
ssI5
NsI6
NssS'FL02000628'
p203
(dp204
I1
(dp205
g14
S'consumption'
p206
sg16
S'electricity'
p207
sg18
S'04c5081d44ff178394aad3ae7e4f7777'
p208
sg20
S'0fb0f4af3c2b95158fba7977f42dacd8'
p209
ssI2
(dp210
g14
S'PV'
p211
sg16
S'electricity'
p212
sg18
S'84ae82ed610ed1b12c9133ea2b465792'
p213
sg20
S'03227d69f8b8c3668c720ecbe2af6c17'
p214
ssI3
NsI4
NsI5
NsI6
NssS'FL02000449'
p215
(dp216
I1
(dp217
g14
S'Elektriciteitsme'
p218
sg16
S'electricity'
p219
sg18
S'512df3830ecab95a9219542c5b511c58'
p220
sg20
S'da9b57fb091b50f984d539077340ec94'
p221
ssI2
NsI3
NsI4
NsI5
NsI6
NssS'FL03001556'
p222
(dp223
I1
(dp224
g14
S'elec_main'
p225
sg16
S'electricity'
p226
sg18
S'e16d9c9543572906a11649d92f902226'
p227
sg20
S'1a1dac9c2ac155f95c58bf1d4f4b7d01'
p228
ssI2
(dp229
g14
S'PV1'
p230
sg16
S'electricity'
p231
sg18
S'e1d66809cd16c789bfdf51d424ef4085'
p232
sg20
S'7d91f092ae6a01ff3670ac003ea0eadc'
p233
ssI3
(dp234
g14
S'PV2'
p235
sg16
S'electricity'
p236
sg18
S'd456f9017ef033ea48d7c46512dc82f1'
p237
sg20
S'cdd4808a8d0a228ba16fba7c66dda81a'
p238
ssI4
(dp239
g14
S'Water'
p240
sg16
S'water'
p241
sg18
S'7d2346026064a8699bede9cf4e21d5f5'
p242
sg20
S'2923b75daf93e539e37ce5177c0008c5'
p243
ssI5
NsI6
NssS'FL03001552'
p244
(dp245
I1
(dp246
g14
S'Gas'
p247
sg16
S'gas'
p248
sg18
S'412dbfb671b64603ddb90232a221a457'
p249
sg20
S'a6028457292f1866b468b63adcc82ee3'
p250
ssI2
(dp251
g14
S'Main'
p252
sg16
S'electricity'
p253
sg18
S'8bf357390aa2c340075d9cf51e0c78e8'
p254
sg20
S'53b1eb0479c83dee927fff10b0cb0fe6'
p255
ssI3
(dp256
g14
S'smart-main'
p257
sg16
S'electricity'
p258
sg18
S'ad3f5422d7d0bdb71d9439a25e8c0cfb'
p259
sg20
S'7fae5d2f0354bd3f3681881918a253c8'
p260
ssI4
(dp261
g14
S'smart-main'
p262
sg16
S'gas'
p263
sg18
S'b18d856c36bd640a5e41e152e4dd415d'
p264
sg20
S'29ba25498c657eda0cdd34bf22d3f9e4'
p265
ssI5
(dp266
g14
S'Solar'
p267
sg16
S'electricity'
p268
sg18
S'01668fb3dc66c8f3fc48a39a6fbb6a79'
p269
sg20
S'e8fa1a454e137aa36c1adfd9de94406b'
p270
ssI6
(dp271
g14
S'Water'
p272
sg16
S'water'
p273
sg18
S'4e70eba8cb79a168f6348233d8104de5'
p274
sg20
S'661684d35cd07dfc657a60b844860785'
p275
sssS'FL03001553'
p276
(dp277
I1
(dp278
g14
S'Total'
p279
sg16
S'electricity'
p280
sg18
S'54cee2d1f22cdcf5ecdb46a7d80bd2dd'
p281
sg20
S'b325dbc1a0d62c99a50609e919b9ea06'
p282
ssI2
(dp283
g14
S'HOTWATER'
p284
sg16
S'electricity'
p285
sg18
S'c889dfe4104104dc6eb965659f423c4e'
p286
sg20
S'dd169cdc4479f7206007b536659e987e'
p287
ssI3
(dp288
g14
S'HEATING'
p289
sg16
S'electricity'
p290
sg18
S'66c29336fc21327297a383193c4a65b7'
p291
sg20
S'18345d8b39d2b98cde9f652b533f4280'
p292
ssI4
(dp293
g14
S'HEATING'
p294
sg16
S'electricity'
p295
sg18
S'1b9e8f06bd67a5a26425a57b981a7c7c'
p296
sg20
S'ad322ec64956ed232cb94a72517004ab'
p297
ssI5
NsI6
NssS'FL03001550'
p298
(dp299
I1
(dp300
g14
S'KK_elec_tot'
p301
sg16
S'electricity'
p302
sg18
S'5f93b8e46fc7ba68466db308f49ccad4'
p303
sg20
S'565de0a7dc64d8370aa321491217b85f'
p304
ssI2
(dp305
g14
S'smart-main'
p306
sg16
S'electricity'
p307
sg18
S'9a07ca09799ecfb59563cc760582f31f'
p308
sg20
S'f447ab4a5940898104e951924357938c'
p309
ssI3
(dp310
g14
S'smart-main'
p311
sg16
S'gas'
p312
sg18
S'0aba67523a951d66ff23bbc3108745c3'
p313
sg20
S'0a556d75eeb1b5783d7ebfab2e309cb7'
p314
ssI4
NsI5
NsI6
NssS'FL03001577'
p315
(dp316
I1
(dp317
g14
S'Compteur'
p318
sg16
S'gas'
p319
sg18
S'53618423da8d1b79068214639b597bb9'
p320
sg20
S'4fed53d0c00bbffc26b23366441578f7'
p321
ssI2
NsI3
NsI4
NsI5
NsI6
NssS'FL03001570'
p322
(dp323
I1
(dp324
g14
S'electricity_heat'
p325
sg16
S'electricity'
p326
sg18
S'895bbd6858e534aa2a0ebdd4155ab797'
p327
sg20
S'56f28789f52236df4647d06111ff515a'
p328
ssI2
(dp329
g14
S'electricity_tot'
p330
sg16
S'electricity'
p331
sg18
S'cccf535e298d18959a42ab670a4a04a1'
p332
sg20
S'ce8ab098fc7479dcb3699f307c8e88a7'
p333
ssI3
(dp334
g14
S'gas'
p335
sg16
S'gas'
p336
sg18
S'eb11d91053cf077bef7f3f95660d035a'
p337
sg20
S'd5a747b86224834f745f4c9775d70241'
p338
ssI4
(dp339
g14
S'smart-main'
p340
sg16
S'electricity'
p341
sg18
S'12b43d3dac7c9b5acf095ec172bec023'
p342
sg20
S'22d9c9028430b3578b60805c9611e1a3'
p343
ssI5
(dp344
g14
S'smart-main'
p345
sg16
S'gas'
p346
sg18
S'db4b32999010a6090a0c29392791bc39'
p347
sg20
S'3d75bed61ffb84766a84c107921e32b0'
p348
ssI6
(dp349
g14
S'water'
p350
sg16
S'water'
p351
sg18
S'fd796bf9e0dec7ef7ae3a74bc83fdc2a'
p352
sg20
S'4e63e6b6b5bdb137658d84a861593e5c'
p353
sssS'FL03001557'
p354
(dp355
I1
(dp356
g14
S'elektr_verbr_tot'
p357
sg16
S'electricity'
p358
sg18
S'16a4b73ee3e0a575a2a3ee6d394ab7a2'
p359
sg20
S'a7d523e79909ad098bccc337c5da84a0'
p360
ssI2
NsI3
NsI4
NsI5
NsI6
NssS'FL03001572'
p361
(dp362
I1
(dp363
g14
S'din-rail'
p364
sg16
S'electricity'
p365
sg18
S'04ba03ef0e7991146b081e48e79e87af'
p366
sg20
S'd209e2bbb35b82b83cc0de5e8b84a4ff'
p367
ssI2
NsI3
NsI4
NsI5
NsI6
NssS'FL03001573'
p368
(dp369
I1
(dp370
g14
S'electricity'
p371
sg16
S'electricity'
p372
sg18
S'aa9a35f3c821d1003a66b8cf40f4b9ff'
p373
sg20
S'b841eb895810525017ddc5d932d37eb7'
p374
ssI2
(dp375
g14
S'gas'
p376
sg16
S'gas'
p377
sg18
S'c35367baa2966aac93e9da0ff5d177c2'
p378
sg20
S'1e1e43f5edb4d5e43ab721c391410cde'
p379
ssI3
(dp380
g14
S'smart-main'
p381
sg16
S'electricity'
p382
sg18
S'b88dd5915cd7cead006c3d7b38d6a285'
p383
sg20
S'bfaaaac6bc4844f89aa9da85958ed575'
p384
ssI4
(dp385
g14
S'smart-main'
p386
sg16
S'gas'
p387
sg18
S'1befe2009abb524a3e7af27203963663'
p388
sg20
S'185ce03278a9ad44c6cab22869d26e11'
p389
ssI5
(dp390
g14
S'water'
p391
sg16
S'water'
p392
sg18
S'cded1844d5a700781f5382974edf1543'
p393
sg20
S'36dac700f81c6be9ca233e6534182ed4'
p394
ssI6
NssS'FL03001578'
p395
(dp396
I1
(dp397
g14
S'Elec'
p398
sg16
S'electricity'
p399
sg18
S'a029d65e6fb1b1882dee91e34ce0420a'
p400
sg20
S'74145ec34006d589c6737342ae48be2d'
p401
ssI2
NsI3
NsI4
NsI5
NsI6
NssS'FL03001579'
p402
(dp403
I1
(dp404
g14
S'Gasmeter'
p405
sg16
S'gas'
p406
sg18
S'bb8cc3fd74dc412c498ecdab6957df2d'
p407
sg20
S'2e2e42c92da420eba8fb9aeea78376fc'
p408
ssI2
(dp409
g14
S'heat'
p410
sg16
S'gas'
p411
sg18
S'eb162c9c0c02637b858beb01e5c4d57e'
p412
sg20
S'62597ad3e7b8a543db2a574bf5d4685b'
p413
ssI3
(dp414
g14
S'smart-main'
p415
sg16
S'electricity'
p416
sg18
S'ffcba0400079df95c11c73644c18b2f6'
p417
sg20
S'3efc7ca36068816f069db24fcfa90de0'
p418
ssI4
(dp419
g14
S'smart-main'
p420
sg16
S'gas'
p421
sg18
S'0b75537375f5a78bd7962950f6b3b2bf'
p422
sg20
S'33e3e6e333de61d67a40e564baad101b'
p423
ssI5
(dp424
g14
S'water'
p425
sg16
S'water'
p426
sg18
S'6678a4a03fca8f0ef24aa48c1a828925'
p427
sg20
S'a926bc966f178fc5d507a569a5bfc3d7'
p428
ssI6
NsssS'cellvalues'
p429
(lp430
(lp431
S'25'
p432
aS'Your email address'
p433
aS'Person 1'
p434
aS'Person 2'
p435
aS'Person 3'
p436
aS'Person 4'
p437
aS'Person 5'
p438
aS'Person 6'
p439
aS'Person 7'
p440
aS'Person 8'
p441
aS'Construction year'
p442
aS'K-level'
p443
aS'E-level'
p444
aS'EPC certificate'
p445
aS'Size of your house'
p446
aS'For heating my house, I use [Natural gas]'
p447
aS'For heating my house, I use [Fuel]'
p448
aS'For heating my house, I use [Electricity - heat pump]'
p449
aS'For heating my house, I use [Electricity - resistance]'
p450
aS'For heating my house, I use [Electricity - local/movable heater (eg. in bathroom)]'
p451
aS'For heating my house, I use [Wood - blocks]'
p452
aS'For heating my house, I use [Wood - pellets]'
p453
aS'For heating my house, I use [Solar thermal system]'
p454
aS'For the production of domestic hot water, I use [Natural gas]'
p455
aS'For the production of domestic hot water, I use [Fuel]'
p456
aS'For the production of domestic hot water, I use [Electricity - heat pump]'
p457
aS'For the production of domestic hot water, I use [Electricity - resistance]'
p458
aS'For the production of domestic hot water, I use [Wood - blocks]'
p459
aS'For the production of domestic hot water, I use [Wood - pellets]'
p460
aS'For the production of domestic hot water, I use [Solar thermal system]'
p461
aS'For the production of domestic hot water, I use [Coal (really really ?)]'
p462
aS'How many water tap points do you have in total?'
p463
aS'How many hot water tap points do you have in total?'
p464
aS'For cooking, I use'
p465
aS'Fluksometer serial number'
p466
aS'Sensor 1'
p467
aS'Sensortype 1'
p468
aS'Sensor 2'
p469
aS'Sensortype 2'
p470
aS'Sensor 3'
p471
aS'Sensortype 3'
p472
aS'Sensor 4'
p473
aS'Sensortype 4'
p474
aS'Sensor 5'
p475
aS'Sensortype 5'
p476
aS'Sensor 6'
p477
aS'Sensortype 6'
p478
aS''
aS''
aS''
aS''
aS''
aS''
aS''
aS''
aS''
aS''
aS''
aS''
aS''
aS''
aS''
aS''
aS'Do you have a photovoltaic (PV) system?'
p479
aS'If you have a PV system, does your fluksometer measure your net consumption, or the result of consumption and production?'
p480
aS'Do you use rainwater for any of the following applications?'
p481
aS'Postcode'
p482
aa(lp483
S''
aS''
aS''
aS''
aS''
aS''
aS''
aS''
aS''
aS''
aS''
aS''
aS''
aS''
aS''
aS''
aS''
aS''
aS''
aS''
aS''
aS''
aS''
aS''
aS''
aS''
aS''
aS''
aS''
aS''
aS''
aS''
aS''
aS''
aS''
aS''
aS''
aS''
aS''
aS''
aS''
aS''
aS''
aS''
aS''
aS''
aS''
aS''
aS''
aS''
aS''
aS''
aS''
aS''
aS''
aS''
aS''
aS''
aS''
aS''
aS''
aS''
aS''
aS''
aS''
aS''
aS''
aa(lp484
S''
aS''
aS''
aS''
aS''
aS''
aS''
aS''
aS''
aS''
aS''
aS''
aS''
aS''
aS''
aS''
aS''
aS''
aS''
aS''
aS''
aS''
aS''
aS''
aS''
aS''
aS''
aS''
aS''
aS''
aS''
aS''
aS''
aS''
aS''
aS''
aS''
aS''
aS''
aS''
aS''
aS''
aS''
aS''
aS''
aS''
aS''
aS''
aS''
aS''
aS''
aS''
aS''
aS''
aS''
aS''
aS''
aS''
aS''
aS''
aS''
aS''
aS''
aS''
aS''
aS''
aS''
aa(lp485
S''
aS''
aS''
aS''
aS''
aS''
aS''
aS''
aS''
aS''
aS''
aS''
aS''
aS''
aS''
aS''
aS''
aS''
aS''
aS''
aS''
aS''
aS''
aS''
aS''
aS''
aS''
aS''
aS''
aS''
aS''
aS''
aS''
aS''
aS''
aS''
aS''
aS''
aS''
aS''
aS''
aS''
aS''
aS''
aS''
aS''
aS''
aS''
aS''
aS''
aS''
aS''
aS''
aS''
aS''
aS''
aS''
aS''
aS''
aS''
aS''
aS''
aS''
aS''
aS''
aS''
aS''
aa(lp486
S''
aS''
aS''
aS''
aS''
aS''
aS''
aS''
aS''
aS''
aS''
aS''
aS''
aS''
aS''
aS''
aS''
aS''
aS''
aS''
aS''
aS''
aS''
aS''
aS''
aS''
aS''
aS''
aS''
aS''
aS''
aS''
aS''
aS''
aS''
aS''
aS''
aS''
aS''
aS''
aS''
aS''
aS''
aS''
aS''
aS''
aS''
aS''
aS''
aS''
aS''
aS''
aS''
aS''
aS''
aS''
aS''
aS''
aS''
aS''
aS''
aS''
aS''
aS''
aS''
aS''
aS''
aa(lp487
S''
aS''
aS''
aS''
aS''
aS''
aS''
aS''
aS''
aS''
aS''
aS''
aS''
aS''
aS''
aS''
aS''
aS''
aS''
aS''
aS''
aS''
aS''
aS''
aS''
aS''
aS''
aS''
aS''
aS''
aS''
aS''
aS''
aS''
aS''
aS''
aS''
aS''
aS''
aS''
aS''
aS''
aS''
aS''
aS''
aS''
aS''
aS''
aS''
aS''
aS''
aS''
aS''
aS''
aS''
aS''
aS''
aS''
aS''
aS''
aS''
aS''
aS''
aS''
aS''
aS''
aS''
aa(lp488
S''
aS''
aS''
aS''
aS''
aS''
aS''
aS''
aS''
aS''
aS''
aS''
aS''
aS''
aS''
aS''
aS''
aS''
aS''
aS''
aS''
aS''
aS''
aS''
aS''
aS''
aS''
aS''
aS''
aS''
aS''
aS''
aS''
aS''
aS''
aS''
aS''
aS''
aS''
aS''
aS''
aS''
aS''
aS''
aS''
aS''
aS''
aS''
aS''
aS''
aS''
aS''
aS''
aS''
aS''
aS''
aS''
aS''
aS''
aS''
aS''
aS''
aS''
aS''
aS''
aS''
aS''
aa(lp489
S''
aS''
aS''
aS''
aS''
aS''
aS''
aS''
aS''
aS''
aS''
aS''
aS''
aS''
aS''
aS''
aS''
aS''
aS''
aS''
aS''
aS''
aS''
aS''
aS''
aS''
aS''
aS''
aS''
aS''
aS''
aS''
aS''
aS''
aS''
aS''
aS''
aS''
aS''
aS''
aS''
aS''
aS''
aS''
aS''
aS''
aS''
aS''
aS''
aS''
aS''
aS''
aS''
aS''
aS''
aS''
aS''
aS''
aS''
aS''
aS''
aS''
aS''
aS''
aS''
aS''
aS''
aa(lp490
S''
aS''
aS''
aS''
aS''
aS''
aS''
aS''
aS''
aS''
aS''
aS''
aS''
aS''
aS''
aS''
aS''
aS''
aS''
aS''
aS''
aS''
aS''
aS''
aS''
aS''
aS''
aS''
aS''
aS''
aS''
aS''
aS''
aS''
aS''
aS''
aS''
aS''
aS''
aS''
aS''
aS''
aS''
aS''
aS''
aS''
aS''
aS''
aS''
aS''
aS''
aS''
aS''
aS''
aS''
aS''
aS''
aS''
aS''
aS''
aS''
aS''
aS''
aS''
aS''
aS''
aS''
aa(lp491
S'12/28/2013 10:18:24'
p492
aS''
aS'1974'
p493
aS'1978'
p494
aS'2006'
p495
aS'2008'
p496
aS'2009'
p497
aS''
aS''
aS''
aS'1913'
p498
aS''
aS''
aS'263'
p499
aS'160'
p500
aS'YES'
p501
aS''
aS''
aS''
aS''
aS'YES'
p502
aS''
aS''
aS'YES'
p503
aS''
aS''
aS''
aS''
aS''
aS''
aS''
aS'7'
aS'6'
aS'Electricity'
p504
aS'FL03001552'
p505
aS'a6028457292f1866b468b63adcc82ee3        412dbfb671b64603ddb90232a221a457        gas        Gas'
p506
aS'gridGas'
p507
aS'53b1eb0479c83dee927fff10b0cb0fe6        8bf357390aa2c340075d9cf51e0c78e8        electricity        Main'
p508
aS'gridNet'
p509
aS'7fae5d2f0354bd3f3681881918a253c8        ad3f5422d7d0bdb71d9439a25e8c0cfb        electricity        smart-main'
p510
aS''
aS'29ba25498c657eda0cdd34bf22d3f9e4        b18d856c36bd640a5e41e152e4dd415d        gas        smart-main'
p511
aS''
aS'e8fa1a454e137aa36c1adfd9de94406b        01668fb3dc66c8f3fc48a39a6fbb6a79        electricity        Solar'
p512
aS'pvProd'
p513
aS'661684d35cd07dfc657a60b844860785        4e70eba8cb79a168f6348233d8104de5        water        Water'
p514
aS'gridWater'
p515
aS''
aS''
aS''
aS''
aS''
aS''
aS''
aS''
aS''
aS''
aS''
aS''
aS''
aS''
aS''
aS''
aS''
aS''
aS''
aS''
aa(lp516
S'12/29/2013 1:20:17'
p517
aS''
aS'1975'
p518
aS'1977'
p519
aS'2006'
p520
aS'2007'
p521
aS'2010'
p522
aS''
aS''
aS''
aS'1900'
p523
aS''
aS''
aS'222'
p524
aS'200'
p525
aS'YES'
p526
aS''
aS''
aS''
aS''
aS''
aS''
aS''
aS'YES'
p527
aS''
aS''
aS''
aS''
aS''
aS'YES'
p528
aS''
aS'7'
aS'7'
aS'Natural gas'
p529
aS'FL03001561'
p530
aS'e1dec16012edc11de998aeaa317274d7 1348aa6c06e90b8a5e5629d26ac85ed0 electricity Elec studio '
p531
aS'gridImport'
p532
aS'3aa40023a1683bfec0f01cce8d45fc70 f4a345cf51ecca09c0cd3baef98b089e electricity Electricity home '
p533
aS'gridImport'
p534
aS'313b78fec4f845be91c328ee2f92c6d4 dbab68027fe7c8844e168a1dfa3d8c40 gas Gas house '
p535
aS'gridGas'
p536
aS'447e0cfd031cf4fd4f56c69cc96ef133 26c486874990dced562c584d5bf47844 electricity smart-main '
p537
aS''
aS'051a928dd04ca55e0411bd6f07e05c04 5d0c3cc4c39f033864d743bd6f4ede20 gas smart-main '
p538
aS''
aS'b28509eb97137e723995838c393d49df f99d1f6fecca7a137ef4d2cf01d7ef4b water Water house '
p539
aS'gridWater'
p540
aS''
aS''
aS''
aS''
aS''
aS''
aS''
aS''
aS''
aS''
aS''
aS''
aS''
aS''
aS''
aS''
aS''
aS''
aS'Toilet, Outdoors (watering the garden, washing your car, ...), Washing machine'
p541
aS''
aa(lp542
S'12/29/2013 9:31:58'
p543
aS''
aS'1980'
p544
aS'1980'
p545
aS'2012'
p546
aS''
aS''
aS''
aS''
aS''
aS'2010'
p547
aS'44'
p548
aS'73'
p549
aS'102.27'
p550
aS'341'
p551
aS'YES'
p552
aS''
aS'YES'
p553
aS''
aS''
aS''
aS''
aS''
aS'YES'
p554
aS''
aS''
aS''
aS''
aS''
aS''
aS''
aS'10'
p555
aS'6'
aS'Electricity'
p556
aS'FL02000449'
p557
aS'da9b57fb091b50f984d539077340ec94\t512df3830ecab95a9219542c5b511c58\telectricity\tElektriciteitsme'
p558
aS'gridImport'
p559
aS''
aS''
aS''
aS''
aS''
aS''
aS''
aS''
aS''
aS''
aS''
aS''
aS''
aS''
aS''
aS''
aS''
aS''
aS''
aS''
aS''
aS''
aS''
aS''
aS''
aS''
aS'no'
p560
aS''
aS'Toilet, Washing machine'
p561
aS''
aa(lp562
S'12/29/2013 19:48:19'
p563
aS''
aS'1982'
p564
aS'1984'
p565
aS'2010'
p566
aS''
aS''
aS''
aS''
aS''
aS'1950'
p567
aS'216'
p568
aS''
aS''
aS'165'
p569
aS''
aS'YES'
p570
aS''
aS''
aS''
aS''
aS''
aS''
aS''
aS'YES'
p571
aS''
aS''
aS''
aS''
aS''
aS''
aS'5'
aS'2'
aS'Natural gas'
p572
aS'FL03001566'
p573
aS'99d7f090c9b191e31067a5fa922da025\t9cb1d5bde31a75287f9617f4e536690a\telectricity\tElect phase2'
p574
aS'gridSub'
p575
aS'dfb719cc8240de810862228a7d1f37f3\t8488d3012cf1357244e9fe5b8b91e0d5\telectricity\telect phase3'
p576
aS'gridSub'
p577
aS'2dd0f6942224767b18a411415f67b423\tdd4aca7fd98792585a678280a850e8ac\telectricity\tElectricity'
p578
aS'gridImport'
p579
aS'd4b28740c7ee7a98f94a4d23d794af79\td378c99b8b1dcae010674782280c256c\tgas\tGas'
p580
aS'gridGas'
p581
aS''
aS''
aS''
aS''
aS''
aS''
aS''
aS''
aS''
aS''
aS''
aS''
aS''
aS''
aS''
aS''
aS''
aS''
aS''
aS''
aS'no'
p582
aS''
aS''
aS''
aa(lp583
S'12/30/2013 9:13:21'
p584
aS''
aS'1984'
p585
aS'1985'
p586
aS''
aS''
aS''
aS''
aS''
aS''
aS'1918'
p587
aS''
aS''
aS''
aS'76'
p588
aS'YES'
p589
aS''
aS''
aS''
aS'YES'
p590
aS''
aS''
aS''
aS'YES'
p591
aS''
aS''
aS''
aS''
aS''
aS''
aS''
aS'4'
aS'3'
aS'Electricity'
p592
aS'FL03001578'
p593
aS'74145ec34006d589c6737342ae48be2d a029d65e6fb1b1882dee91e34ce0420a electricity Elec GDC30 1er '
p594
aS'gridImport'
p595
aS''
aS''
aS''
aS''
aS''
aS''
aS''
aS''
aS''
aS''
aS''
aS''
aS''
aS''
aS''
aS''
aS''
aS''
aS''
aS''
aS''
aS''
aS''
aS''
aS''
aS''
aS'no'
p596
aS''
aS''
aS''
aa(lp597
S'jo'
p598
aS''
aS'1978'
p599
aS'1979'
p600
aS'2008'
p601
aS'2010'
p602
aS'2013'
p603
aS''
aS''
aS''
aS'1952'
p604
aS''
aS''
aS''
aS'160'
p605
aS'YES'
p606
aS''
aS''
aS''
aS'YES'
p607
aS'YES'
p608
aS''
aS''
aS'YES'
p609
aS''
aS''
aS''
aS''
aS''
aS'YES'
p610
aS''
aS'3'
aS'3'
aS'Natural gas'
p611
aS'FL03001577'
p612
aS'4fed53d0c00bbffc26b23366441578f7\t53618423da8d1b79068214639b597bb9\tgas\tCompteur gaz'
p613
aS'gridGas'
p614
aS''
aS''
aS''
aS''
aS''
aS''
aS''
aS''
aS''
aS''
aS''
aS''
aS''
aS''
aS''
aS''
aS''
aS''
aS''
aS''
aS''
aS''
aS''
aS''
aS''
aS''
aS'no'
p615
aS''
aS''
aS''
aa(lp616
S'12/30/2013 11:41:35'
p617
aS''
aS'1972'
p618
aS'1974'
p619
aS'1999'
p620
aS'2001'
p621
aS''
aS''
aS''
aS''
aS''
aS''
aS''
aS''
aS'180'
p622
aS'YES'
p623
aS''
aS''
aS''
aS''
aS''
aS''
aS''
aS'YES'
p624
aS''
aS''
aS''
aS''
aS''
aS''
aS''
aS'7'
aS'6'
aS'Natural gas'
p625
aS'FL03001573'
p626
aS'b841eb895810525017ddc5d932d37eb7\taa9a35f3c821d1003a66b8cf40f4b9ff\telectricity\telectricity'
p627
aS'gridImport'
p628
aS'1e1e43f5edb4d5e43ab721c391410cde\tc35367baa2966aac93e9da0ff5d177c2\tgas\tgas'
p629
aS'gridGas'
p630
aS'bfaaaac6bc4844f89aa9da85958ed575\tb88dd5915cd7cead006c3d7b38d6a285\telectricity\tsmart-main'
p631
aS''
aS'185ce03278a9ad44c6cab22869d26e11\t1befe2009abb524a3e7af27203963663\tgas\tsmart-main'
p632
aS''
aS'36dac700f81c6be9ca233e6534182ed4\tcded1844d5a700781f5382974edf1543\twater\twater'
p633
aS'gridWater'
p634
aS''
aS''
aS''
aS''
aS''
aS''
aS''
aS''
aS''
aS''
aS''
aS''
aS''
aS''
aS''
aS''
aS''
aS''
aS'no'
p635
aS''
aS''
aS''
aa(lp636
S'12/30/2013 18:13:23'
p637
aS''
aS'1975'
p638
aS'1973'
p639
aS'2004'
p640
aS'2005'
p641
aS'2005'
p642
aS''
aS''
aS''
aS'1989'
p643
aS''
aS''
aS''
aS'180'
p644
aS''
aS''
aS''
aS'YES'
p645
aS'YES'
p646
aS'YES'
p647
aS''
aS''
aS''
aS''
aS''
aS'YES'
p648
aS''
aS''
aS''
aS''
aS'15'
p649
aS'9'
aS'Electricity'
p650
aS'FL03001553'
p651
aS'b325dbc1a0d62c99a50609e919b9ea06\t54cee2d1f22cdcf5ecdb46a7d80bd2dd\telectricity\tTotal Electric'
p652
aS'gridImport'
p653
aS'dd169cdc4479f7206007b536659e987e\tc889dfe4104104dc6eb965659f423c4e\telectricity\tHOTWATER'
p654
aS'gridSub'
p655
aS'18345d8b39d2b98cde9f652b533f4280\t66c29336fc21327297a383193c4a65b7\telectricity\tHEATING GF'
p656
aS'gridSub'
p657
aS'ad322ec64956ed232cb94a72517004ab        1b9e8f06bd67a5a26425a57b981a7c7c        electricity        HEATING 1F'
p658
aS'gridSub'
p659
aS''
aS''
aS''
aS''
aS''
aS''
aS''
aS''
aS''
aS''
aS''
aS''
aS''
aS''
aS''
aS''
aS''
aS''
aS''
aS''
aS'yes'
p660
aS'Net consumption'
p661
aS''
aS''
aa(lp662
S'7/5/2014 21:23:33'
p663
aS''
aS'1977'
p664
aS'1978'
p665
aS'2006'
p666
aS'2008'
p667
aS''
aS''
aS''
aS''
aS'1930'
p668
aS''
aS''
aS''
aS'140'
p669
aS''
aS'YES'
p670
aS''
aS''
aS'YES'
p671
aS''
aS''
aS''
aS''
aS''
aS''
aS'YES'
p672
aS''
aS''
aS''
aS''
aS'6'
aS'4'
aS'Electricity'
p673
aS'FL03001556'
p674
aS'1a1dac9c2ac155f95c58bf1d4f4b7d01\te16d9c9543572906a11649d92f902226\telectricity\telec_main'
p675
aS'gridNet'
p676
aS'7d91f092ae6a01ff3670ac003ea0eadc\te1d66809cd16c789bfdf51d424ef4085\telectricity\tPV1'
p677
aS'pvProd'
p678
aS'cdd4808a8d0a228ba16fba7c66dda81a\td456f9017ef033ea48d7c46512dc82f1\telectricity\tPV2'
p679
aS'pvProd'
p680
aS'2923b75daf93e539e37ce5177c0008c5\t7d2346026064a8699bede9cf4e21d5f5\twater\tWater'
p681
aS'gridWater'
p682
aS''
aS''
aS''
aS''
aS''
aS''
aS''
aS''
aS''
aS''
aS''
aS''
aS''
aS''
aS''
aS''
aS''
aS''
aS''
aS''
aS'yes'
p683
aS'Resulting consumption'
p684
aS''
aS'3370'
p685
aa(lp686
S'1/1/2014 21:27:09'
p687
aS''
aS''
aS''
aS''
aS''
aS''
aS''
aS''
aS''
aS''
aS''
aS''
aS''
aS''
aS'YES'
p688
aS''
aS''
aS''
aS''
aS''
aS''
aS''
aS''
aS''
aS''
aS''
aS''
aS''
aS''
aS''
aS''
aS''
aS''
aS'FL03001550'
p689
aS'565de0a7dc64d8370aa321491217b85f\t5f93b8e46fc7ba68466db308f49ccad4\telectricity\tKK_elec_tot'
p690
aS'gridImport'
p691
aS'f447ab4a5940898104e951924357938c\t9a07ca09799ecfb59563cc760582f31f\telectricity\tsmart-main'
p692
aS''
aS'0a556d75eeb1b5783d7ebfab2e309cb7\t0aba67523a951d66ff23bbc3108745c3\tgas\tsmart-main'
p693
aS''
aS''
aS''
aS''
aS''
aS''
aS''
aS''
aS''
aS''
aS''
aS''
aS''
aS''
aS''
aS''
aS''
aS''
aS''
aS''
aS''
aS''
aS''
aS''
aS''
aS''
aS''
aa(lp694
S'1/5/2014 17:50:34'
p695
aS''
aS'1952'
p696
aS'1951'
p697
aS''
aS''
aS''
aS''
aS''
aS''
aS'1999'
p698
aS''
aS''
aS''
aS'270'
p699
aS''
aS'YES'
p700
aS'YES'
p701
aS''
aS''
aS''
aS''
aS''
aS''
aS'YES'
p702
aS'YES'
p703
aS''
aS''
aS''
aS''
aS''
aS'12'
p704
aS'9'
aS'Electricity'
p705
aS'FL02000628'
p706
aS'0fb0f4af3c2b95158fba7977f42dacd8\t04c5081d44ff178394aad3ae7e4f7777\telectricity\tconsumption'
p707
aS'gridNet'
p708
aS'03227d69f8b8c3668c720ecbe2af6c17\t84ae82ed610ed1b12c9133ea2b465792\t electricity\t PV'
p709
aS'pvProd'
p710
aS''
aS''
aS''
aS''
aS''
aS''
aS''
aS''
aS''
aS''
aS''
aS''
aS''
aS''
aS''
aS''
aS''
aS''
aS''
aS''
aS''
aS''
aS''
aS''
aS'yes'
p711
aS'Net consumption'
p712
aS'Toilet, Outdoors (watering the garden, washing your car, ...)'
p713
aS''
aa(lp714
S'1/5/2014 18:52:36'
p715
aS''
aS'1954'
p716
aS'1954'
p717
aS''
aS''
aS''
aS''
aS''
aS''
aS'1900'
p718
aS''
aS''
aS'423 (2011)'
p719
aS'220'
p720
aS'YES'
p721
aS''
aS''
aS''
aS'YES'
p722
aS'YES'
p723
aS''
aS''
aS'YES'
p724
aS''
aS''
aS''
aS''
aS''
aS''
aS''
aS'9'
aS'5'
aS'Butane or Propane bottles'
p725
aS'FL03001557'
p726
aS'a7d523e79909ad098bccc337c5da84a0\t16a4b73ee3e0a575a2a3ee6d394ab7a2\telectricity\telektr_verbr_tot'
p727
aS'gridImport'
p728
aS''
aS''
aS''
aS''
aS''
aS''
aS''
aS''
aS''
aS''
aS''
aS''
aS''
aS''
aS''
aS''
aS''
aS''
aS''
aS''
aS''
aS''
aS''
aS''
aS''
aS''
aS'no'
p729
aS''
aS'Outdoors (watering the garden, washing your car, ...)'
p730
aS''
aa(lp731
S'1/5/2014 22:18:02'
p732
aS''
aS'1977'
p733
aS'1977'
p734
aS'2006'
p735
aS'2008'
p736
aS'2010'
p737
aS''
aS''
aS''
aS'1998'
p738
aS''
aS''
aS''
aS'211'
p739
aS'YES'
p740
aS''
aS''
aS''
aS'YES'
p741
aS'YES'
p742
aS''
aS''
aS'YES'
p743
aS''
aS''
aS''
aS''
aS''
aS''
aS''
aS'8'
aS'6'
aS'Electricity'
p744
aS'FL03001560'
p745
aS'9afa3357cee100c6a8a5059c63e29295 a6e1a499ced9754fd9123907fbb6492d electricity Elektriciteit '
p746
aS'gridImport'
p747
aS'a8054ca7865584e69a7c946aeea1e13c 3b44142664a789f37c228e6b4afb90ac water Water '
p748
aS'gridWater'
p749
aS''
aS''
aS''
aS''
aS''
aS''
aS''
aS''
aS''
aS''
aS''
aS''
aS''
aS''
aS''
aS''
aS''
aS''
aS''
aS''
aS''
aS''
aS''
aS''
aS'no'
p750
aS''
aS'Outdoors (watering the garden, washing your car, ...)'
p751
aS''
aa(lp752
S'1/11/2014 18:05:08'
p753
aS''
aS'1941'
p754
aS'1954'
p755
aS'1988'
p756
aS'1980'
p757
aS''
aS''
aS''
aS''
aS''
aS''
aS''
aS''
aS''
aS''
aS'YES'
p758
aS''
aS''
aS'YES'
p759
aS''
aS''
aS''
aS''
aS'YES'
p760
aS''
aS''
aS''
aS''
aS'YES'
p761
aS''
aS''
aS''
aS'Natural gas'
p762
aS'FL03001549'
p763
aS'fad495c097e2d8f2c041c0f00c553139\t52dbb787248e7068a8e906cd7e13c06f\telectricity\tCurrent clamp'
p764
aS'gridImport'
p765
aS''
aS''
aS''
aS''
aS''
aS''
aS''
aS''
aS''
aS''
aS''
aS''
aS''
aS''
aS''
aS''
aS''
aS''
aS''
aS''
aS''
aS''
aS''
aS''
aS''
aS''
aS'no'
p766
aS''
aS''
aS''
aa(lp767
S'1/16/2014 22:11:49'
p768
aS''
aS'1984'
p769
aS'1984'
p770
aS'2014'
p771
aS''
aS''
aS''
aS''
aS''
aS'2012'
p772
aS'K33'
p773
aS'E45'
p774
aS''
aS'186'
p775
aS'YES'
p776
aS''
aS'YES'
p777
aS''
aS''
aS''
aS''
aS''
aS'YES'
p778
aS''
aS''
aS''
aS''
aS''
aS''
aS''
aS'7'
aS'6'
aS'Natural gas'
p779
aS'FL03001570'
p780
aS'56f28789f52236df4647d06111ff515a\t895bbd6858e534aa2a0ebdd4155ab797\telectricity\telectricity_heat'
p781
aS'gridSub'
p782
aS'ce8ab098fc7479dcb3699f307c8e88a7\tcccf535e298d18959a42ab670a4a04a1\telectricity\telectricity_tot'
p783
aS'gridImport'
p784
aS'd5a747b86224834f745f4c9775d70241\teb11d91053cf077bef7f3f95660d035a\tgas\tgas'
p785
aS'gridGas'
p786
aS'22d9c9028430b3578b60805c9611e1a3\t12b43d3dac7c9b5acf095ec172bec023\telectricity\tsmart-main'
p787
aS''
aS'3d75bed61ffb84766a84c107921e32b0        db4b32999010a6090a0c29392791bc39        gas        smart-main'
p788
aS''
aS'4e63e6b6b5bdb137658d84a861593e5c\tfd796bf9e0dec7ef7ae3a74bc83fdc2a\twater\twater'
p789
aS'gridWater'
p790
aS''
aS''
aS''
aS''
aS''
aS''
aS''
aS''
aS''
aS''
aS''
aS''
aS''
aS''
aS''
aS''
aS'no'
p791
aS''
aS'Toilet, Outdoors (watering the garden, washing your car, ...)'
p792
aS''
aa(lp793
S'1/26/2014 19:22:02'
p794
aS''
aS'1982'
p795
aS'1981'
p796
aS'2007'
p797
aS'2010'
p798
aS'2012'
p799
aS'2014'
p800
aS''
aS''
aS'2005'
p801
aS''
aS''
aS'230'
p802
aS'270'
p803
aS'YES'
p804
aS''
aS''
aS''
aS''
aS''
aS''
aS''
aS'YES'
p805
aS''
aS''
aS''
aS''
aS''
aS''
aS''
aS'7'
aS'6'
aS'Natural gas'
p806
aS'FL03001525'
p807
aS'1a5c55ec176d24483572aca420ac59b5 7bfdc1065f99e2a8a0dea7a9c5065e59 water cold water '
p808
aS'gridWater'
p809
aS'39b4908eee6b07ca8b226698263bedd3 90f8b6e08f8ad0e0feb0875660c12b5d electricity smart-main '
p810
aS''
aS'1fd6e92d38ccc7ea87793119b7888eec 0015cc5842a6294067a0809201673414 gas smart-main \n'
p811
aS''
aS'4d23c511766514749bc84e29af6f444e       711887d337abc26a4605c3f9c5eddcb1     electricity     Main'
p812
aS'gridImport'
p813
aS'ba14f92064072f9783baf27f45a147b4        55d4d0b6247b859b43e391ab9d06ef1a        gas       Main Gas'
p814
aS'gridGas'
p815
aS''
aS''
aS''
aS''
aS''
aS''
aS''
aS''
aS''
aS''
aS''
aS''
aS''
aS''
aS''
aS''
aS''
aS''
aS'no'
p816
aS'Net consumption'
p817
aS''
aS''
aa(lp818
S'2/3/2014 11:41:19'
p819
aS''
aS'1979'
p820
aS'1980'
p821
aS'2008'
p822
aS'2009'
p823
aS''
aS''
aS''
aS''
aS''
aS''
aS''
aS''
aS'480'
p824
aS'YES'
p825
aS''
aS''
aS''
aS''
aS''
aS''
aS''
aS''
aS''
aS''
aS'YES'
p826
aS''
aS''
aS''
aS''
aS'9'
aS'3'
aS'Electricity'
p827
aS'FL03001554'
p828
aS'f1aacb5468d0faf00afc771571bcf9ad 1b97a72e6b0301c689cd9c1c7391a76d electricity smart-main '
p829
aS''
aS''
aS''
aS''
aS''
aS'47e36532b3bf49ee4eb7203eee2aa8fb 83baf2c8c70f2fa35d9b73a9725e7e86 gas gas_boven '
p830
aS'gridGas'
p831
aS'2ba9ab3baf898d7abd9254603ee76287 2c50663acf2ecc22eccb4eccd7439123 water water '
p832
aS'gridWater'
p833
aS''
aS''
aS''
aS''
aS''
aS''
aS''
aS''
aS''
aS''
aS''
aS''
aS''
aS''
aS''
aS''
aS''
aS''
aS'yes'
p834
aS"I don't know"
p835
aS''
aS''
aa(lp836
S'2/11/2014 0:24:08'
p837
aS''
aS'1978'
p838
aS'1978'
p839
aS'2009'
p840
aS'2013'
p841
aS''
aS''
aS''
aS''
aS'1953'
p842
aS''
aS''
aS'346'
p843
aS'180'
p844
aS'YES'
p845
aS''
aS''
aS''
aS''
aS''
aS''
aS''
aS'YES'
p846
aS''
aS''
aS''
aS''
aS''
aS'YES'
p847
aS''
aS'5'
aS'5'
aS'Natural gas'
p848
aS'FL03001441'
p849
aS'81fb589c911e808daa96a2064bebed41 65d056785481a89c5c13b559f25042e0        electricity        Netaansluiting'
p850
aS'gridNet'
p851
aS'212ce724e124fbde0fb649396375d099 7ef8759d669eaa3a46b2a74a029e9845        gas        Gas\n'
p852
aS'gridGas'
p853
aS'c57f45b21e2ec21ab427f172478e1ca4 64ed4c3548ccfce3bdda8ef4087f90d2        water        Water'
p854
aS'gridWater'
p855
aS'156e0abc64b00c5e98dbd3c17883b5f6 aabaeb135a2d81544796afff5b75d91c        electricity        sub kitchen'
p856
aS'gridSub'
p857
aS'e5306ee3a4235498592fc89ee0ede353 dc6f16f6d4bbf5e9ee996b9f46e18bbd        electricity        PV'
p858
aS'pvProd'
p859
aS''
aS''
aS''
aS''
aS''
aS''
aS''
aS''
aS''
aS''
aS''
aS''
aS''
aS''
aS''
aS''
aS''
aS''
aS'yes'
p860
aS'Resulting consumption'
p861
aS''
aS''
aa(lp862
S'7/6/2014 18:18:44'
p863
aS''
aS'1983'
p864
aS'1984'
p865
aS''
aS''
aS''
aS''
aS''
aS''
aS'1964'
p866
aS''
aS''
aS'498'
p867
aS'188'
p868
aS''
aS'YES'
p869
aS''
aS''
aS'YES'
p870
aS''
aS''
aS''
aS'YES'
p871
aS''
aS''
aS'YES'
p872
aS''
aS''
aS''
aS''
aS'12'
p873
aS'3'
aS'Electricity  AND natural gas'
p874
aS'FL03001572'
p875
aS'd209e2bbb35b82b83cc0de5e8b84a4ff\n  04ba03ef0e7991146b081e48e79e87af\nelectricity\ndin-rail meter'
p876
aS'gridCons'
p877
aS''
aS''
aS''
aS''
aS''
aS''
aS''
aS''
aS''
aS''
aS''
aS''
aS''
aS''
aS''
aS''
aS''
aS''
aS''
aS''
aS''
aS''
aS''
aS''
aS''
aS''
aS'no'
p878
aS''
aS''
aS'3001'
p879
aa(lp880
S'10/6/2014 21:16:39'
p881
aS''
aS'1981'
p882
aS'1976'
p883
aS'2009'
p884
aS'2010'
p885
aS'2012'
p886
aS''
aS''
aS''
aS'1940'
p887
aS'Kxx'
p888
aS'Exx'
p889
aS''
aS'160'
p890
aS'YES'
p891
aS''
aS''
aS''
aS''
aS''
aS''
aS''
aS'YES'
p892
aS''
aS''
aS''
aS''
aS''
aS''
aS''
aS'7'
aS'5'
aS'Electricity'
p893
aS'FL02000678'
p894
aS'a5c7faf24bf77ccb13f59e5d87731524\t7ced40aa674022433dafcde0112f1760\tgas\tGas'
p895
aS'gridGas'
p896
aS'c1a78eacaa6a82d3257a278d3e99088a\t821ccdeb482adf52dc9d540c38b16b13\telectricity\tMain'
p897
aS'gridNet'
p898
aS'06686f304bd7c72a86c3810d2965f4a2\t3f6fcf31d73697082c9c50ff9d419756\telectricity\tSolar'
p899
aS'pvProd'
p900
aS'8520ae493bcc57574e09b6ff7b13be76\t568a9656e5f68f142b0ec1338a1dcc08\telectricity\tTest'
p901
aS'gridSub'
p902
aS''
aS''
aS''
aS''
aS''
aS''
aS''
aS''
aS''
aS''
aS''
aS''
aS''
aS''
aS''
aS''
aS''
aS''
aS''
aS''
aS'yes'
p903
aS'Resulting consumption'
p904
aS'Toilet'
p905
aS'3001'
p906
aa(lp907
S'10/23/2014 12:16:01'
p908
aS''
aS'1986'
p909
aS'1985'
p910
aS'2012'
p911
aS''
aS''
aS''
aS''
aS''
aS'1902'
p912
aS''
aS''
aS''
aS'140'
p913
aS'YES'
p914
aS''
aS''
aS''
aS''
aS''
aS''
aS''
aS'YES'
p915
aS''
aS''
aS''
aS''
aS''
aS'YES'
p916
aS''
aS'2'
aS'2'
aS'Natural gas'
p917
aS'FL03001579'
p918
aS'2e2e42c92da420eba8fb9aeea78376fc bb8cc3fd74dc412c498ecdab6957df2d gas Gasmeter '
p919
aS'gridGas'
p920
aS'62597ad3e7b8a543db2a574bf5d4685b eb162c9c0c02637b858beb01e5c4d57e gas heat meter '
p921
aS'heatProd'
p922
aS'3efc7ca36068816f069db24fcfa90de0 ffcba0400079df95c11c73644c18b2f6 electricity smart-main '
p923
aS''
aS'33e3e6e333de61d67a40e564baad101b 0b75537375f5a78bd7962950f6b3b2bf gas smart-main '
p924
aS''
aS'a926bc966f178fc5d507a569a5bfc3d7 6678a4a03fca8f0ef24aa48c1a828925 water water '
p925
aS'gridWater'
p926
aS''
aS''
aS''
aS''
aS''
aS''
aS''
aS''
aS''
aS''
aS''
aS''
aS''
aS''
aS''
aS''
aS''
aS''
aS'no'
p927
aS''
aS''
aS'1060'
p928
aa(lp929
S'1/18/2015 12:46:01'
p930
aS''
aS'1977'
p931
aS'1978'
p932
aS''
aS''
aS''
aS''
aS''
aS''
aS'1890'
p933
aS''
aS'120'
p934
aS''
aS'150'
p935
aS'YES'
p936
aS''
aS''
aS''
aS''
aS''
aS''
aS'YES'
p937
aS'YES'
p938
aS''
aS''
aS''
aS''
aS''
aS'YES'
p939
aS''
aS'9'
aS'4'
aS'Natural gas'
p940
aS'FL03001251'
p941
aS'd23028c01bea77170d8d8ee6254a5a2c\tb61a314062344dbf6f66e7512168eeb7\tgas\tGas'
p942
aS'gridGas'
p943
aS'214ef2d3533899dbf633caeb32e80483\t7d964f8a361a1273594161c67a8ac31e\telectricity\tMain'
p944
aS'gridNet'
p945
aS'894589249d671d09a7950cc435bd604c\t4ae1fd4214245d65319162c6321d076e\telectricity\tSolar'
p946
aS'pvProd'
p947
aS'a519ce042e8748570d3a91cfca16a747\t73e0b81374908cc111a04bf031af8747\twater\tWater'
p948
aS'gridWater'
p949
aS''
aS''
aS''
aS''
aS''
aS''
aS''
aS''
aS''
aS''
aS''
aS''
aS''
aS''
aS''
aS''
aS''
aS''
aS''
aS''
aS'yes'
p950
aS"I don't know"
p951
aS''
aS'3000'
p952
aa(lp953
S''
aS''
aS''
aS''
aS''
aS''
aS''
aS''
aS''
aS''
aS''
aS''
aS''
aS''
aS''
aS''
aS''
aS''
aS''
aS''
aS''
aS''
aS''
aS''
aS''
aS''
aS''
aS''
aS''
aS''
aS''
aS''
aS''
aS''
aS''
aS''
aS''
aS''
aS''
aS''
aS''
aS''
aS''
aS''
aS''
aS''
aS''
aS''
aS''
aS''
aS''
aS''
aS''
aS''
aS''
aS''
aS''
aS''
aS''
aS''
aS''
aS''
aS''
aS''
aS''
aS''
aS''
aa(lp954
S''
aS''
aS''
aS''
aS''
aS''
aS''
aS''
aS''
aS''
aS''
aS''
aS''
aS''
aS''
aS''
aS''
aS''
aS''
aS''
aS''
aS''
aS''
aS''
aS''
aS''
aS''
aS''
aS''
aS''
aS''
aS''
aS''
aS''
aS''
aS''
aS''
aS''
aS''
aS''
aS''
aS''
aS''
aS''
aS''
aS''
aS''
aS''
aS''
aS''
aS''
aS''
aS''
aS''
aS''
aS''
aS''
aS''
aS''
aS''
aS''
aS''
aS''
aS''
aS''
aS''
aS''
aa(lp955
S''
aS''
aS''
aS''
aS''
aS''
aS''
aS''
aS''
aS''
aS''
aS''
aS''
aS''
aS''
aS''
aS''
aS''
aS''
aS''
aS''
aS''
aS''
aS''
aS''
aS''
aS''
aS''
aS''
aS''
aS''
aS''
aS''
aS''
aS''
aS''
aS''
aS''
aS''
aS''
aS''
aS''
aS''
aS''
aS''
aS''
aS''
aS''
aS''
aS''
aS''
aS''
aS''
aS''
aS''
aS''
aS''
aS''
aS''
aS''
aS''
aS''
aS''
aS''
aS''
aS''
aS''
aa(lp956
S''
aS''
aS''
aS''
aS''
aS''
aS''
aS''
aS''
aS''
aS''
aS''
aS''
aS''
aS''
aS''
aS''
aS''
aS''
aS''
aS''
aS''
aS''
aS''
aS''
aS''
aS''
aS''
aS''
aS''
aS''
aS''
aS''
aS''
aS''
aS''
aS''
aS''
aS''
aS''
aS''
aS''
aS''
aS''
aS''
aS''
aS''
aS''
aS''
aS''
aS''
aS''
aS''
aS''
aS''
aS''
aS''
aS''
aS''
aS''
aS''
aS''
aS''
aS''
aS''
aS''
aS''
aa(lp957
S'gridExport'
p958
aS''
aS''
aS''
aS''
aS''
aS''
aS''
aS''
aS''
aS''
aS''
aS''
aS''
aS''
aS''
aS''
aS''
aS''
aS''
aS''
aS''
aS''
aS''
aS''
aS''
aS''
aS''
aS''
aS''
aS''
aS''
aS''
aS''
aS''
aS''
aS''
aS''
aS''
aS''
aS''
aS''
aS''
aS''
aS''
aS''
aS''
aS''
aS''
aS''
aS''
aS''
aS''
aS''
aS''
aS''
aS''
aS''
aS''
aS''
aS''
aS''
aS''
aS''
aS''
aS''
aS''
aa(lp959
S'pvProd'
p960
aS''
aS''
aS''
aS''
aS''
aS''
aS''
aS''
aS''
aS''
aS''
aS''
aS''
aS''
aS''
aS''
aS''
aS''
aS''
aS''
aS''
aS''
aS''
aS''
aS''
aS''
aS''
aS''
aS''
aS''
aS''
aS''
aS''
aS''
aS''
aS''
aS''
aS''
aS''
aS''
aS''
aS''
aS''
aS''
aS''
aS''
aS''
aS''
aS''
aS''
aS''
aS''
aS''
aS''
aS''
aS''
aS''
aS''
aS''
aS''
aS''
aS''
aS''
aS''
aS''
aS''
aa(lp961
S'gridImport'
p962
aS''
aS''
aS''
aS''
aS''
aS''
aS''
aS''
aS''
aS''
aS''
aS''
aS''
aS''
aS''
aS''
aS''
aS''
aS''
aS''
aS''
aS''
aS''
aS''
aS''
aS''
aS''
aS''
aS''
aS''
aS''
aS''
aS''
aS''
aS''
aS''
aS''
aS''
aS''
aS''
aS''
aS''
aS''
aS''
aS''
aS''
aS''
aS''
aS''
aS''
aS''
aS''
aS''
aS''
aS''
aS''
aS''
aS''
aS''
aS''
aS''
aS''
aS''
aS''
aS''
aS''
aa(lp963
S'gridNet'
p964
aS''
aS''
aS''
aS''
aS''
aS''
aS''
aS''
aS''
aS''
aS''
aS''
aS''
aS''
aS''
aS''
aS''
aS''
aS''
aS''
aS''
aS''
aS''
aS''
aS''
aS''
aS''
aS''
aS''
aS''
aS''
aS''
aS''
aS''
aS''
aS''
aS''
aS''
aS''
aS''
aS''
aS''
aS''
aS''
aS''
aS''
aS''
aS''
aS''
aS''
aS''
aS''
aS''
aS''
aS''
aS''
aS''
aS''
aS''
aS''
aS''
aS''
aS''
aS''
aS''
aS''
aa(lp965
S'gridCons'
p966
aS''
aS''
aS''
aS''
aS''
aS''
aS''
aS''
aS''
aS''
aS''
aS''
aS''
aS''
aS''
aS''
aS''
aS''
aS''
aS''
aS''
aS''
aS''
aS''
aS''
aS''
aS''
aS''
aS''
aS''
aS''
aS''
aS''
aS''
aS''
aS''
aS''
aS''
aS''
aS''
aS''
aS''
aS''
aS''
aS''
aS''
aS''
aS''
aS''
aS''
aS''
aS''
aS''
aS''
aS''
aS''
aS''
aS''
aS''
aS''
aS''
aS''
aS''
aS''
aS''
aS''
aa(lp967
S'gridWater'
p968
aS''
aS''
aS''
aS''
aS''
aS''
aS''
aS''
aS''
aS''
aS''
aS''
aS''
aS''
aS''
aS''
aS''
aS''
aS''
aS''
aS''
aS''
aS''
aS''
aS''
aS''
aS''
aS''
aS''
aS''
aS''
aS''
aS''
aS''
aS''
aS''
aS''
aS''
aS''
aS''
aS''
aS''
aS''
aS''
aS''
aS''
aS''
aS''
aS''
aS''
aS''
aS''
aS''
aS''
aS''
aS''
aS''
aS''
aS''
aS''
aS''
aS''
aS''
aS''
aS''
aS''
aa(lp969
S'gridSub'
p970
aS''
aS''
aS''
aS''
aS''
aS''
aS''
aS''
aS''
aS''
aS''
aS''
aS''
aS''
aS''
aS''
aS''
aS''
aS''
aS''
aS''
aS''
aS''
aS''
aS''
aS''
aS''
aS''
aS''
aS''
aS''
aS''
aS''
aS''
aS''
aS''
aS''
aS''
aS''
aS''
aS''
aS''
aS''
aS''
aS''
aS''
aS''
aS''
aS''
aS''
aS''
aS''
aS''
aS''
aS''
aS''
aS''
aS''
aS''
aS''
aS''
aS''
aS''
aS''
aS''
aS''
aa(lp971
S'gridGas'
p972
aS''
aS''
aS''
aS''
aS''
aS''
aS''
aS''
aS''
aS''
aS''
aS''
aS''
aS''
aS''
aS''
aS''
aS''
aS''
aS''
aS''
aS''
aS''
aS''
aS''
aS''
aS''
aS''
aS''
aS''
aS''
aS''
aS''
aS''
aS''
aS''
aS''
aS''
aS''
aS''
aS''
aS''
aS''
aS''
aS''
aS''
aS''
aS''
aS''
aS''
aS''
aS''
aS''
aS''
aS''
aS''
aS''
aS''
aS''
aS''
aS''
aS''
aS''
aS''
aS''
aS''
aa(lp973
S'heatProd'
p974
aS''
aS''
aS''
aS''
aS''
aS''
aS''
aS''
aS''
aS''
aS''
aS''
aS''
aS''
aS''
aS''
aS''
aS''
aS''
aS''
aS''
aS''
aS''
aS''
aS''
aS''
aS''
aS''
aS''
aS''
aS''
aS''
aS''
aS''
aS''
aS''
aS''
aS''
aS''
aS''
aS''
aS''
aS''
aS''
aS''
aS''
aS''
aS''
aS''
aS''
aS''
aS''
aS''
aS''
aS''
aS''
aS''
aS''
aS''
aS''
aS''
aS''
aS''
aS''
aS''
aS''
aasS'flukso_ids'
p975
(dp976
g32
I29
sg54
I27
sg81
I25
sg108
I11
sg140
I22
sg152
I13
sg361
I28
sg174
I23
sg181
I31
sg203
I20
sg215
I12
sg322
I24
sg244
I10
sg276
I17
sg298
I19
sg315
I15
sg222
I18
sg354
I21
sg11
I26
sg368
I16
sg395
I14
sg402
I30
ssb.